
test_code/build/main:     file format elf32-littleriscv


Disassembly of section .text:

10000000 <_start>:
10000000:	20400137          	lui	x2,0x20400
10000004:	ffc10113          	addi	x2,x2,-4 # 203ffffc <_ebss+0x3ffffc>
10000008:	07c0006f          	jal	x0,10000084 <main>

1000000c <sideEffect>:
1000000c:	200007b7          	lui	x15,0x20000
10000010:	00001737          	lui	x14,0x1
10000014:	ae070713          	addi	x14,x14,-1312 # ae0 <_start-0xffff520>
10000018:	00e7a023          	sw	x14,0(x15) # 20000000 <_ebss>
1000001c:	000017b7          	lui	x15,0x1
10000020:	ae478793          	addi	x15,x15,-1308 # ae4 <_start-0xffff51c>
10000024:	00078513          	addi	x10,x15,0
10000028:	00008067          	jalr	x0,0(x1)

1000002c <branchTest>:
1000002c:	ff010113          	addi	x2,x2,-16
10000030:	00400793          	addi	x15,x0,4
10000034:	00f12623          	sw	x15,12(x2)
10000038:	00500793          	addi	x15,x0,5
1000003c:	00f12423          	sw	x15,8(x2)
10000040:	00c12703          	lw	x14,12(x2)
10000044:	00812783          	lw	x15,8(x2)
10000048:	00e7ce63          	blt	x15,x14,10000064 <branchTest+0x38>
1000004c:	200007b7          	lui	x15,0x20000
10000050:	00878793          	addi	x15,x15,8 # 20000008 <_ebss+0x8>
10000054:	00001737          	lui	x14,0x1
10000058:	be070713          	addi	x14,x14,-1056 # be0 <_start-0xffff420>
1000005c:	00e7a023          	sw	x14,0(x15)
10000060:	0180006f          	jal	x0,10000078 <branchTest+0x4c>
10000064:	200007b7          	lui	x15,0x20000
10000068:	00878793          	addi	x15,x15,8 # 20000008 <_ebss+0x8>
1000006c:	00001737          	lui	x14,0x1
10000070:	be470713          	addi	x14,x14,-1052 # be4 <_start-0xffff41c>
10000074:	00e7a023          	sw	x14,0(x15)
10000078:	00000013          	addi	x0,x0,0
1000007c:	01010113          	addi	x2,x2,16
10000080:	00008067          	jalr	x0,0(x1)

10000084 <main>:
10000084:	fe010113          	addi	x2,x2,-32
10000088:	00112e23          	sw	x1,28(x2)
1000008c:	f81ff0ef          	jal	x1,1000000c <sideEffect>
10000090:	00a12423          	sw	x10,8(x2)
10000094:	200007b7          	lui	x15,0x20000
10000098:	00478793          	addi	x15,x15,4 # 20000004 <_ebss+0x4>
1000009c:	00812703          	lw	x14,8(x2)
100000a0:	00e7a023          	sw	x14,0(x15)
100000a4:	f89ff0ef          	jal	x1,1000002c <branchTest>
100000a8:	00012623          	sw	x0,12(x2)
100000ac:	03c0006f          	jal	x0,100000e8 <main+0x64>
100000b0:	00c12703          	lw	x14,12(x2)
100000b4:	000017b7          	lui	x15,0x1
100000b8:	ce078793          	addi	x15,x15,-800 # ce0 <_start-0xffff320>
100000bc:	00f706b3          	add	x13,x14,x15
100000c0:	00c12703          	lw	x14,12(x2)
100000c4:	080007b7          	lui	x15,0x8000
100000c8:	00378793          	addi	x15,x15,3 # 8000003 <_start-0x7fffffd>
100000cc:	00f707b3          	add	x15,x14,x15
100000d0:	00279793          	slli	x15,x15,0x2
100000d4:	00068713          	addi	x14,x13,0
100000d8:	00e7a023          	sw	x14,0(x15)
100000dc:	00c12783          	lw	x15,12(x2)
100000e0:	00178793          	addi	x15,x15,1
100000e4:	00f12623          	sw	x15,12(x2)
100000e8:	00c12703          	lw	x14,12(x2)
100000ec:	00100793          	addi	x15,x0,1
100000f0:	fce7d0e3          	bge	x15,x14,100000b0 <main+0x2c>
100000f4:	00000793          	addi	x15,x0,0
100000f8:	00078513          	addi	x10,x15,0
100000fc:	01c12083          	lw	x1,28(x2)
10000100:	02010113          	addi	x2,x2,32
10000104:	00008067          	jalr	x0,0(x1)
