PRG:00000: 78       SEI
PRG:00001: A9 00    LDA $00
PRG:00003: 8D 01 20 STA $2001
PRG:00006: 8D 00 20 STA $2000
PRG:00009: AD 02 20 LDA $2002
PRG:0000C: 10 FB    BPL $FB
PRG:0000E: AD 02 20 LDA $2002
PRG:00011: 10 FB    BPL $FB
PRG:00013: D8       CLD
PRG:00014: A2 3F    LDX $3F
PRG:00016: 9A       TXS
PRG:00017: A9 00    LDA $00
PRG:00019: A8       TAY
PRG:0001A: 99 00 00 STA $0000
PRG:0001D: C8       INY
PRG:0001E: D0 FA    BNE $FA
PRG:00020: A9 00    LDA $00
PRG:00022: A8       TAY
PRG:00023: 99 00 02 STA $0200
PRG:00026: 99 00 03 STA $0300
PRG:00029: 99 00 04 STA $0400
PRG:0002C: 99 00 05 STA $0500
PRG:0002F: 99 00 07 STA $0700
PRG:00032: C8       INY
PRG:00033: D0 EE    BNE $EE
PRG:00035: A0 40    LDY $40
PRG:00037: 99 00 01 STA $0100
PRG:0003A: C8       INY
PRG:0003B: D0 FA    BNE $FA
PRG:0003D: A0 00    LDY $00
PRG:0003F: 99 00 06 STA $0600
PRG:00042: C8       INY
PRG:00043: C0 94    CPY $94
PRG:00045: D0 F8    BNE $F8
PRG:00047: A2 00    LDX $00
PRG:00049: 20 17 B8 JSR $B817
PRG:0004C: A9 90    LDA $90
PRG:0004E: 85 04    STA $04
PRG:00050: 8D 00 20 STA $2000
PRG:00053: 20 DF B7 JSR $B7DF
PRG:00056: A2 00    LDX $00
PRG:00058: 8E 3D 05 STX $053D
PRG:0005B: 86 A0    STX $A0
PRG:0005D: 86 AB    STX $AB
PRG:0005F: 86 AC    STX $AC
PRG:00061: 86 41    STX $41
PRG:00063: 86 0E    STX $0E
PRG:00065: 86 0F    STX $0F
PRG:00067: 86 40    STX $40
PRG:00069: 86 43    STX $43
PRG:0006B: E8       INX
PRG:0006C: 86 42    STX $42
PRG:0006E: 20 49 89 JSR $8949
PRG:00071: 20 D3 AD JSR $ADD3
PRG:00074: A5 47    LDA $47
PRG:00076: D0 06    BNE $06
PRG:00078: A9 00    LDA $00
PRG:0007A: 85 37    STA $37
PRG:0007C: 85 38    STA $38
PRG:0007E: 20 26 81 JSR $8126
PRG:00081: A9 00    LDA $00
PRG:00083: 85 39    STA $39
PRG:00085: 8D 3E 05 STA $053E
PRG:00088: A9 03    LDA $03
PRG:0008A: 85 3F    STA $3F
PRG:0008C: A5 40    LDA $40
PRG:0008E: D0 0A    BNE $0A
PRG:00090: A0 00    LDY $00
PRG:00092: 20 77 89 JSR $8977
PRG:00095: A9 00    LDA $00
PRG:00097: 8D 29 05 STA $0529
PRG:0009A: A5 39    LDA $39
PRG:0009C: C9 04    CMP $04
PRG:0009E: 90 02    BCC $02
PRG:000A0: A9 03    LDA $03
PRG:000A2: 85 39    STA $39
PRG:000A4: 20 B3 AE JSR $AEB3
PRG:000A7: A9 00    LDA $00
PRG:000A9: 85 49    STA $49
PRG:000AB: 85 4B    STA $4B
PRG:000AD: 85 4C    STA $4C
PRG:000AF: 85 4D    STA $4D
PRG:000B1: 85 4A    STA $4A
PRG:000B3: A5 40    LDA $40
PRG:000B5: F0 04    BEQ $04
PRG:000B7: A9 01    LDA $01
PRG:000B9: 85 6D    STA $6D
PRG:000BB: 20 EF C4 JSR $C4EF
PRG:000BE: 20 13 BB JSR $BB13
PRG:000C1: 20 03 82 JSR $8203
PRG:000C4: A9 00    LDA $00
PRG:000C6: 85 44    STA $44
PRG:000C8: 85 45    STA $45
PRG:000CA: 85 78    STA $78
PRG:000CC: A2 0A    LDX $0A
PRG:000CE: 20 BD 81 JSR $81BD
PRG:000D1: 20 C7 81 JSR $81C7
PRG:000D4: 20 D4 C4 JSR $C4D4
PRG:000D7: 20 55 B7 JSR $B755
PRG:000DA: 20 76 82 JSR $8276
PRG:000DD: 20 EE BC JSR $BCEE
PRG:000E0: 20 64 8E JSR $8E64
PRG:000E3: 20 B1 C0 JSR $C0B1
PRG:000E6: 20 C9 8E JSR $8EC9
PRG:000E9: 20 DD 8B JSR $8BDD
PRG:000EC: 20 45 8C JSR $8C45
PRG:000EF: A5 4B    LDA $4B
PRG:000F1: D0 1B    BNE $1B
PRG:000F3: A5 44    LDA $44
PRG:000F5: D0 19    BNE $19
PRG:000F7: A5 45    LDA $45
PRG:000F9: D0 4B    BNE $4B
PRG:000FB: A5 40    LDA $40
PRG:000FD: F0 09    BEQ $09
PRG:000FF: A5 0F    LDA $0F
PRG:00101: 29 30    AND $30
PRG:00103: F0 D2    BEQ $D2
PRG:00105: 4C 71 80 JMP $8071
PRG:00108: 20 E3 81 JSR $81E3
PRG:0010B: 4C D7 80 JMP $80D7
PRG:0010E: D0 62    BNE $62
PRG:00110: 20 A2 81 JSR $81A2
PRG:00113: A5 49    LDA $49
PRG:00115: F0 05    BEQ $05
PRG:00117: 20 9A AD JSR $AD9A
PRG:0011A: E6 39    INC $39
PRG:0011C: C6 3F    DEC $3F
PRG:0011E: F0 15    BEQ $15
PRG:00120: 20 26 81 JSR $8126
PRG:00123: 4C 9A 80 JMP $809A
PRG:00126: A9 00    LDA $00
PRG:00128: 85 6D    STA $6D
PRG:0012A: 85 6E    STA $6E
PRG:0012C: 8D 34 05 STA $0534
PRG:0012F: A9 0C    LDA $0C
PRG:00131: 8D 28 05 STA $0528
PRG:00134: 60       RTS
PRG:00135: A5 40    LDA $40
PRG:00137: D0 07    BNE $07
PRG:00139: 20 F2 AF JSR $AFF2
PRG:0013C: A5 47    LDA $47
PRG:0013E: D0 03    BNE $03
PRG:00140: 4C 71 80 JMP $8071
PRG:00143: 4C 7E 80 JMP $807E
PRG:00146: 20 A2 81 JSR $81A2
PRG:00149: A5 49    LDA $49
PRG:0014B: D0 43    BNE $43
PRG:0014D: A5 46    LDA $46
PRG:0014F: D0 4B    BNE $4B
PRG:00151: 20 16 AF JSR $AF16
PRG:00154: A9 00    LDA $00
PRG:00156: 85 39    STA $39
PRG:00158: 8D 3E 05 STA $053E
PRG:0015B: E6 38    INC $38
PRG:0015D: A5 38    LDA $38
PRG:0015F: C9 04    CMP $04
PRG:00161: 90 0C    BCC $0C
PRG:00163: A9 00    LDA $00
PRG:00165: 85 38    STA $38
PRG:00167: E6 37    INC $37
PRG:00169: A5 37    LDA $37
PRG:0016B: 29 07    AND $07
PRG:0016D: 85 37    STA $37
PRG:0016F: 4C 9A 80 JMP $809A
PRG:00172: 20 8D AD JSR $AD8D
PRG:00175: A6 37    LDX $37
PRG:00177: D0 04    BNE $04
PRG:00179: A5 38    LDA $38
PRG:0017B: F0 01    BEQ $01
PRG:0017D: E8       INX
PRG:0017E: E8       INX
PRG:0017F: 86 49    STX $49
PRG:00181: A9 02    LDA $02
PRG:00183: 85 37    STA $37
PRG:00185: A9 00    LDA $00
PRG:00187: 85 38    STA $38
PRG:00189: A9 02    LDA $02
PRG:0018B: 85 39    STA $39
PRG:0018D: 4C BB 80 JMP $80BB
PRG:00190: 20 9A AD JSR $AD9A
PRG:00193: E6 39    INC $39
PRG:00195: A9 00    LDA $00
PRG:00197: 85 49    STA $49
PRG:00199: 4C BB 80 JMP $80BB
PRG:0019C: 20 42 B0 JSR $B042
PRG:0019F: 4C 71 80 JMP $8071
PRG:001A2: A2 3C    LDX $3C
PRG:001A4: 86 10    STX $10
PRG:001A6: 20 55 B7 JSR $B755
PRG:001A9: 20 64 8E JSR $8E64
PRG:001AC: 20 EE BC JSR $BCEE
PRG:001AF: 20 C9 8E JSR $8EC9
PRG:001B2: C6 10    DEC $10
PRG:001B4: D0 F0    BNE $F0
PRG:001B6: A9 00    LDA $00
PRG:001B8: 85 A0    STA $A0
PRG:001BA: 4C 55 B7 JMP $B755
PRG:001BD: 86 10    STX $10
PRG:001BF: 20 55 B7 JSR $B755
PRG:001C2: C6 10    DEC $10
PRG:001C4: D0 F9    BNE $F9
PRG:001C6: 60       RTS
PRG:001C7: A5 49    LDA $49
PRG:001C9: F0 04    BEQ $04
PRG:001CB: A9 07    LDA $07
PRG:001CD: D0 05    BNE $05
PRG:001CF: A4 52    LDY $52
PRG:001D1: B9 D7 81 LDA $81D7
PRG:001D4: 85 AB    STA $AB
PRG:001D6: 60       RTS
PRG:001D7: 02       .byte $02
PRG:001D8: 02       .byte $02
PRG:001D9: 03       .byte $03
PRG:001DA: 04 04    NOP $04
PRG:001DC: 05 05    ORA $05
PRG:001DE: 05 05    ORA $05
PRG:001E0: 05 06    ORA $06
PRG:001E2: 07       .byte $07
PRG:001E3: A5 0F    LDA $0F
PRG:001E5: 29 10    AND $10
PRG:001E7: F0 19    BEQ $19
PRG:001E9: A2 01    LDX $01
PRG:001EB: 86 AC    STX $AC
PRG:001ED: 86 41    STX $41
PRG:001EF: A9 11    LDA $11
PRG:001F1: 85 A0    STA $A0
PRG:001F3: 20 55 B7 JSR $B755
PRG:001F6: A5 0F    LDA $0F
PRG:001F8: 29 10    AND $10
PRG:001FA: F0 F7    BEQ $F7
PRG:001FC: A9 00    LDA $00
PRG:001FE: 85 AC    STA $AC
PRG:00200: 85 41    STA $41
PRG:00202: 60       RTS
PRG:00203: A9 50    LDA $50
PRG:00205: 85 84    STA $84
PRG:00207: 85 00    STA $00
PRG:00209: A9 00    LDA $00
PRG:0020B: 85 85    STA $85
PRG:0020D: 85 01    STA $01
PRG:0020F: A5 4D    LDA $4D
PRG:00211: F0 06    BEQ $06
PRG:00213: A9 14    LDA $14
PRG:00215: 85 86    STA $86
PRG:00217: D0 05    BNE $05
PRG:00219: 20 AD C1 JSR $C1AD
PRG:0021C: 85 86    STA $86
PRG:0021E: A9 40    LDA $40
PRG:00220: 85 87    STA $87
PRG:00222: 20 9D 8D JSR $8D9D
PRG:00225: A2 00    LDX $00
PRG:00227: 20 D2 8D JSR $8DD2
PRG:0022A: A9 00    LDA $00
PRG:0022C: 8D 94 05 STA $0594
PRG:0022F: 85 6A    STA $6A
PRG:00231: 85 6B    STA $6B
PRG:00233: 85 6C    STA $6C
PRG:00235: 85 6F    STA $6F
PRG:00237: 85 70    STA $70
PRG:00239: 85 72    STA $72
PRG:0023B: 85 74    STA $74
PRG:0023D: 85 75    STA $75
PRG:0023F: 85 7A    STA $7A
PRG:00241: 85 7B    STA $7B
PRG:00243: A9 01    LDA $01
PRG:00245: 85 73    STA $73
PRG:00247: 85 71    STA $71
PRG:00249: 20 70 88 JSR $8870
PRG:0024C: A5 49    LDA $49
PRG:0024E: 85 4C    STA $4C
PRG:00250: F0 23    BEQ $23
PRG:00252: AD 84 05 LDA $0584
PRG:00255: 85 84    STA $84
PRG:00257: AD 94 05 LDA $0594
PRG:0025A: 85 85    STA $85
PRG:0025C: A9 E0    LDA $E0
PRG:0025E: 85 86    STA $86
PRG:00260: A9 C1    LDA $C1
PRG:00262: 8D C4 05 STA $05C4
PRG:00265: A9 3B    LDA $3B
PRG:00267: 85 87    STA $87
PRG:00269: A9 04    LDA $04
PRG:0026B: 8D 4E 05 STA $054E
PRG:0026E: A9 08    LDA $08
PRG:00270: 85 8E    STA $8E
PRG:00272: 4C B4 8D JMP $8DB4
PRG:00275: 60       RTS
PRG:00276: A5 72    LDA $72
PRG:00278: D0 37    BNE $37
PRG:0027A: 20 C0 87 JSR $87C0
PRG:0027D: 20 06 84 JSR $8406
PRG:00280: 20 2A 83 JSR $832A
PRG:00283: 20 EB 85 JSR $85EB
PRG:00286: A5 7A    LDA $7A
PRG:00288: F0 0E    BEQ $0E
PRG:0028A: AD 94 05 LDA $0594
PRG:0028D: F0 08    BEQ $08
PRG:0028F: A5 AB    LDA $AB
PRG:00291: D0 04    BNE $04
PRG:00293: A9 01    LDA $01
PRG:00295: 85 45    STA $45
PRG:00297: 60       RTS
PRG:00298: AD 2A 05 LDA $052A
PRG:0029B: 05 49    ORA $49
PRG:0029D: D0 F8    BNE $F8
PRG:0029F: A5 2E    LDA $2E
PRG:002A1: F0 F4    BEQ $F4
PRG:002A3: AD 84 05 LDA $0584
PRG:002A6: 10 EF    BPL $EF
PRG:002A8: A9 01    LDA $01
PRG:002AA: 85 7A    STA $7A
PRG:002AC: A9 0E    LDA $0E
PRG:002AE: 85 AB    STA $AB
PRG:002B0: 60       RTS
PRG:002B1: AD 74 06 LDA $0674
PRG:002B4: F0 09    BEQ $09
PRG:002B6: CE 74 06 DEC $0674
PRG:002B9: D0 04    BNE $04
PRG:002BB: A9 09    LDA $09
PRG:002BD: 85 AB    STA $AB
PRG:002BF: A5 72    LDA $72
PRG:002C1: 30 34    BMI $34
PRG:002C3: AD 64 06 LDA $0664
PRG:002C6: F0 05    BEQ $05
PRG:002C8: CE 64 06 DEC $0664
PRG:002CB: D0 1C    BNE $1C
PRG:002CD: 20 A2 83 JSR $83A2
PRG:002D0: AD D4 05 LDA $05D4
PRG:002D3: 30 14    BMI $14
PRG:002D5: C9 04    CMP $04
PRG:002D7: B0 07    BCS $07
PRG:002D9: A9 20    LDA $20
PRG:002DB: 8D 64 06 STA $0664
PRG:002DE: D0 09    BNE $09
PRG:002E0: C9 41    CMP $41
PRG:002E2: 90 05    BCC $05
PRG:002E4: A9 40    LDA $40
PRG:002E6: 8D D4 05 STA $05D4
PRG:002E9: 20 EB 85 JSR $85EB
PRG:002EC: A5 6A    LDA $6A
PRG:002EE: 30 06    BMI $06
PRG:002F0: F0 04    BEQ $04
PRG:002F2: A9 FF    LDA $FF
PRG:002F4: 85 72    STA $72
PRG:002F6: 60       RTS
PRG:002F7: AD 74 06 LDA $0674
PRG:002FA: D0 FA    BNE $FA
PRG:002FC: A5 AB    LDA $AB
PRG:002FE: D0 F6    BNE $F6
PRG:00300: A9 01    LDA $01
PRG:00302: 85 44    STA $44
PRG:00304: 60       RTS
PRG:00305: A5 01    LDA $01
PRG:00307: 2A       ROL
PRG:00308: 66 01    ROR $01
PRG:0030A: 66 00    ROR $00
PRG:0030C: 88       DEY
PRG:0030D: D0 F6    BNE $F6
PRG:0030F: 60       RTS
PRG:00310: A5 00    LDA $00
PRG:00312: 10 03    BPL $03
PRG:00314: A9 FF    LDA $FF
PRG:00316: CD A9 00 CMP $00A9
PRG:00319: 85 01    STA $01
PRG:0031B: 60       RTS
PRG:0031C: A9 01    LDA $01
PRG:0031E: 85 4B    STA $4B
PRG:00320: 85 4A    STA $4A
PRG:00322: 60       RTS
PRG:00323: A9 01    LDA $01
PRG:00325: 85 45    STA $45
PRG:00327: 85 4D    STA $4D
PRG:00329: 60       RTS
PRG:0032A: A5 4C    LDA $4C
PRG:0032C: D0 6F    BNE $6F
PRG:0032E: A5 4A    LDA $4A
PRG:00330: F0 0B    BEQ $0B
PRG:00332: A5 6A    LDA $6A
PRG:00334: 30 E6    BMI $E6
PRG:00336: AD C4 05 LDA $05C4
PRG:00339: C9 10    CMP $10
PRG:0033B: 90 DF    BCC $DF
PRG:0033D: 20 CE 84 JSR $84CE
PRG:00340: A5 6A    LDA $6A
PRG:00342: 30 5E    BMI $5E
PRG:00344: F0 23    BEQ $23
PRG:00346: A5 49    LDA $49
PRG:00348: D0 D9    BNE $D9
PRG:0034A: A9 FF    LDA $FF
PRG:0034C: 85 72    STA $72
PRG:0034E: AD 2D 05 LDA $052D
PRG:00351: D0 08    BNE $08
PRG:00353: 8D 74 06 STA $0674
PRG:00356: A9 09    LDA $09
PRG:00358: 85 AB    STA $AB
PRG:0035A: 60       RTS
PRG:0035B: A9 00    LDA $00
PRG:0035D: 85 AB    STA $AB
PRG:0035F: A9 0E    LDA $0E
PRG:00361: 85 A0    STA $A0
PRG:00363: A9 20    LDA $20
PRG:00365: 8D 74 06 STA $0674
PRG:00368: 60       RTS
PRG:00369: AD D4 05 LDA $05D4
PRG:0036C: 30 34    BMI $34
PRG:0036E: AD 94 05 LDA $0594
PRG:00371: D0 2B    BNE $2B
PRG:00373: AD 84 05 LDA $0584
PRG:00376: C9 F8    CMP $F8
PRG:00378: B0 24    BCS $24
PRG:0037A: 20 5F C2 JSR $C25F
PRG:0037D: B0 23    BCS $23
PRG:0037F: 48       PHA
PRG:00380: 20 A2 83 JSR $83A2
PRG:00383: 68       PLA
PRG:00384: 38       SEC
PRG:00385: E9 10    SBC $10
PRG:00387: CD C4 05 CMP $05C4
PRG:0038A: F0 02    BEQ $02
PRG:0038C: B0 0F    BCS $0F
PRG:0038E: 8D C4 05 STA $05C4
PRG:00391: A9 00    LDA $00
PRG:00393: 8D D4 05 STA $05D4
PRG:00396: 8D B4 05 STA $05B4
PRG:00399: 85 6F    STA $6F
PRG:0039B: 85 70    STA $70
PRG:0039D: 60       RTS
PRG:0039E: A5 49    LDA $49
PRG:003A0: F0 FB    BEQ $FB
PRG:003A2: A9 00    LDA $00
PRG:003A4: 85 00    STA $00
PRG:003A6: AD D4 05 LDA $05D4
PRG:003A9: 85 01    STA $01
PRG:003AB: 29 80    AND $80
PRG:003AD: F0 02    BEQ $02
PRG:003AF: A9 FF    LDA $FF
PRG:003B1: 85 02    STA $02
PRG:003B3: A0 04    LDY $04
PRG:003B5: 20 05 83 JSR $8305
PRG:003B8: AD B4 05 LDA $05B4
PRG:003BB: 18       CLC
PRG:003BC: 65 00    ADC $00
PRG:003BE: 8D B4 05 STA $05B4
PRG:003C1: AD C4 05 LDA $05C4
PRG:003C4: 65 01    ADC $01
PRG:003C6: 8D C4 05 STA $05C4
PRG:003C9: A5 6A    LDA $6A
PRG:003CB: 65 02    ADC $02
PRG:003CD: 85 6A    STA $6A
PRG:003CF: AD D4 05 LDA $05D4
PRG:003D2: 18       CLC
PRG:003D3: 69 04    ADC $04
PRG:003D5: 30 06    BMI $06
PRG:003D7: C9 60    CMP $60
PRG:003D9: 90 02    BCC $02
PRG:003DB: A9 5F    LDA $5F
PRG:003DD: 8D D4 05 STA $05D4
PRG:003E0: 60       RTS
PRG:003E1: A0 04    LDY $04
PRG:003E3: CD A0 03 CMP $03A0
PRG:003E6: CD A0 02 CMP $02A0
PRG:003E9: CD A0 01 CMP $01A0
PRG:003EC: A9 00    LDA $00
PRG:003EE: 85 00    STA $00
PRG:003F0: BD D4 05 LDA $05D4
PRG:003F3: 85 01    STA $01
PRG:003F5: 20 05 83 JSR $8305
PRG:003F8: BD B4 05 LDA $05B4
PRG:003FB: 18       CLC
PRG:003FC: 65 00    ADC $00
PRG:003FE: 9D B4 05 STA $05B4
PRG:00401: A5 01    LDA $01
PRG:00403: 4C CF 91 JMP $91CF
PRG:00406: 20 39 85 JSR $8539
PRG:00409: AD 94 05 LDA $0594
PRG:0040C: F0 11    BEQ $11
PRG:0040E: AD 84 05 LDA $0584
PRG:00411: C9 20    CMP $20
PRG:00413: 90 76    BCC $76
PRG:00415: A5 49    LDA $49
PRG:00417: F0 71    BEQ $71
PRG:00419: 4C 23 83 JMP $8323
PRG:0041C: 68       PLA
PRG:0041D: 68       PLA
PRG:0041E: 60       RTS
PRG:0041F: AD 84 05 LDA $0584
PRG:00422: 48       PHA
PRG:00423: AD 94 05 LDA $0594
PRG:00426: 48       PHA
PRG:00427: 20 8B 84 JSR $848B
PRG:0042A: AD 84 05 LDA $0584
PRG:0042D: C9 C0    CMP $C0
PRG:0042F: B0 EB    BCS $EB
PRG:00431: A5 6A    LDA $6A
PRG:00433: 30 2D    BMI $2D
PRG:00435: A2 00    LDX $00
PRG:00437: 20 91 C2 JSR $C291
PRG:0043A: 90 26    BCC $26
PRG:0043C: 68       PLA
PRG:0043D: 8D 94 05 STA $0594
PRG:00440: 68       PLA
PRG:00441: 8D 84 05 STA $0584
PRG:00444: A5 70    LDA $70
PRG:00446: F0 13    BEQ $13
PRG:00448: A5 6B    LDA $6B
PRG:0044A: 29 01    AND $01
PRG:0044C: 49 01    EOR $01
PRG:0044E: 85 6B    STA $6B
PRG:00450: F0 03    BEQ $03
PRG:00452: A9 F8    LDA $F8
PRG:00454: CD A9 08 CMP $08A9
PRG:00457: 9D A4 05 STA $05A4
PRG:0045A: 60       RTS
PRG:0045B: 8D A4 05 STA $05A4
PRG:0045E: 8D 74 05 STA $0574
PRG:00461: 60       RTS
PRG:00462: 68       PLA
PRG:00463: 68       PLA
PRG:00464: AD 94 05 LDA $0594
PRG:00467: 30 09    BMI $09
PRG:00469: D0 1F    BNE $1F
PRG:0046B: AD 84 05 LDA $0584
PRG:0046E: C9 10    CMP $10
PRG:00470: B0 18    BCS $18
PRG:00472: A9 10    LDA $10
PRG:00474: 8D 84 05 STA $0584
PRG:00477: A9 00    LDA $00
PRG:00479: 8D 74 05 STA $0574
PRG:0047C: 8D 94 05 STA $0594
PRG:0047F: 8D A4 05 STA $05A4
PRG:00482: A5 70    LDA $70
PRG:00484: F0 04    BEQ $04
PRG:00486: A9 00    LDA $00
PRG:00488: 85 6B    STA $6B
PRG:0048A: 60       RTS
PRG:0048B: A2 00    LDX $00
PRG:0048D: F0 03    BEQ $03
PRG:0048F: A0 06    LDY $06
PRG:00491: CD A0 05 CMP $05A0
PRG:00494: CD A0 04 CMP $04A0
PRG:00497: CD A0 03 CMP $03A0
PRG:0049A: CD A0 02 CMP $02A0
PRG:0049D: CD A0 01 CMP $01A0
PRG:004A0: A9 00    LDA $00
PRG:004A2: 85 00    STA $00
PRG:004A4: BD A4 05 LDA $05A4
PRG:004A7: 85 01    STA $01
PRG:004A9: 29 80    AND $80
PRG:004AB: F0 02    BEQ $02
PRG:004AD: A9 FF    LDA $FF
PRG:004AF: 85 02    STA $02
PRG:004B1: 20 05 83 JSR $8305
PRG:004B4: BD 74 05 LDA $0574
PRG:004B7: 18       CLC
PRG:004B8: 65 00    ADC $00
PRG:004BA: 9D 74 05 STA $0574
PRG:004BD: BD 84 05 LDA $0584
PRG:004C0: 65 01    ADC $01
PRG:004C2: 9D 84 05 STA $0584
PRG:004C5: BD 94 05 LDA $0594
PRG:004C8: 65 02    ADC $02
PRG:004CA: 9D 94 05 STA $0594
PRG:004CD: 60       RTS
PRG:004CE: A5 7A    LDA $7A
PRG:004D0: 05 4A    ORA $4A
PRG:004D2: D0 38    BNE $38
PRG:004D4: A5 70    LDA $70
PRG:004D6: D0 34    BNE $34
PRG:004D8: 20 E8 B7 JSR $B7E8
PRG:004DB: 30 05    BMI $05
PRG:004DD: A9 00    LDA $00
PRG:004DF: 85 71    STA $71
PRG:004E1: 60       RTS
PRG:004E2: A5 6F    LDA $6F
PRG:004E4: D0 26    BNE $26
PRG:004E6: AD D4 05 LDA $05D4
PRG:004E9: D0 21    BNE $21
PRG:004EB: A5 71    LDA $71
PRG:004ED: D0 1D    BNE $1D
PRG:004EF: 20 E8 B7 JSR $B7E8
PRG:004F2: 10 18    BPL $18
PRG:004F4: A2 00    LDX $00
PRG:004F6: 29 43    AND $43
PRG:004F8: F0 01    BEQ $01
PRG:004FA: E8       INX
PRG:004FB: BD 0F 85 LDA $850F
PRG:004FE: 85 A0    STA $A0
PRG:00500: BC 0D 85 LDY $850D
PRG:00503: 8C D4 05 STY $05D4
PRG:00506: A9 01    LDA $01
PRG:00508: 85 71    STA $71
PRG:0050A: 85 6F    STA $6F
PRG:0050C: 60       RTS
PRG:0050D: C0 A9    CPY $A9
PRG:0050F: 13       .byte $13
PRG:00510: 01 A5    ORA $A5
PRG:00512: 79 D0 0C ADC $0CD0
PRG:00515: 8A       TXA
PRG:00516: 18       CLC
PRG:00517: 69 03    ADC $03
PRG:00519: 30 02    BMI $02
PRG:0051B: A9 00    LDA $00
PRG:0051D: 8D A4 05 STA $05A4
PRG:00520: 60       RTS
PRG:00521: EE A4 05 INC $05A4
PRG:00524: 60       RTS
PRG:00525: A5 79    LDA $79
PRG:00527: D0 0C    BNE $0C
PRG:00529: 8A       TXA
PRG:0052A: 38       SEC
PRG:0052B: E9 03    SBC $03
PRG:0052D: 10 02    BPL $02
PRG:0052F: A9 00    LDA $00
PRG:00531: 8D A4 05 STA $05A4
PRG:00534: 60       RTS
PRG:00535: CE A4 05 DEC $05A4
PRG:00538: 60       RTS
PRG:00539: 20 B9 C1 JSR $C1B9
PRG:0053C: 05 6F    ORA $6F
PRG:0053E: 85 79    STA $79
PRG:00540: A5 7A    LDA $7A
PRG:00542: D0 45    BNE $45
PRG:00544: A5 70    LDA $70
PRG:00546: 05 4A    ORA $4A
PRG:00548: D0 16    BNE $16
PRG:0054A: 20 E8 B7 JSR $B7E8
PRG:0054D: 6A       ROR
PRG:0054E: B0 39    BCS $39
PRG:00550: 6A       ROR
PRG:00551: B0 69    BCS $69
PRG:00553: A5 6E    LDA $6E
PRG:00555: D0 0A    BNE $0A
PRG:00557: AE A4 05 LDX $05A4
PRG:0055A: F0 04    BEQ $04
PRG:0055C: 30 B3    BMI $B3
PRG:0055E: 10 C5    BPL $C5
PRG:00560: 60       RTS
PRG:00561: AE A4 05 LDX $05A4
PRG:00564: 30 07    BMI $07
PRG:00566: E0 30    CPX $30
PRG:00568: 90 03    BCC $03
PRG:0056A: D0 0F    BNE $0F
PRG:0056C: 60       RTS
PRG:0056D: EE A4 05 INC $05A4
PRG:00570: A5 79    LDA $79
PRG:00572: D0 06    BNE $06
PRG:00574: EE A4 05 INC $05A4
PRG:00577: EE A4 05 INC $05A4
PRG:0057A: 60       RTS
PRG:0057B: CE A4 05 DEC $05A4
PRG:0057E: A5 79    LDA $79
PRG:00580: D0 06    BNE $06
PRG:00582: CE A4 05 DEC $05A4
PRG:00585: CE A4 05 DEC $05A4
PRG:00588: 60       RTS
PRG:00589: A9 00    LDA $00
PRG:0058B: 85 6B    STA $6B
PRG:0058D: AE A4 05 LDX $05A4
PRG:00590: 30 DB    BMI $DB
PRG:00592: A5 7A    LDA $7A
PRG:00594: D0 0A    BNE $0A
PRG:00596: 20 E8 B7 JSR $B7E8
PRG:00599: 2A       ROL
PRG:0059A: 30 12    BMI $12
PRG:0059C: A5 6E    LDA $6E
PRG:0059E: D0 07    BNE $07
PRG:005A0: E0 31    CPX $31
PRG:005A2: 90 C9    BCC $C9
PRG:005A4: D0 D5    BNE $D5
PRG:005A6: 60       RTS
PRG:005A7: E0 49    CPX $49
PRG:005A9: 90 C2    BCC $C2
PRG:005AB: D0 CE    BNE $CE
PRG:005AD: 60       RTS
PRG:005AE: A5 6E    LDA $6E
PRG:005B0: D0 05    BNE $05
PRG:005B2: E0 49    CPX $49
PRG:005B4: 90 B7    BCC $B7
PRG:005B6: 60       RTS
PRG:005B7: E0 50    CPX $50
PRG:005B9: 90 B2    BCC $B2
PRG:005BB: 60       RTS
PRG:005BC: A5 6E    LDA $6E
PRG:005BE: D0 1B    BNE $1B
PRG:005C0: A9 01    LDA $01
PRG:005C2: 85 6B    STA $6B
PRG:005C4: AE A4 05 LDX $05A4
PRG:005C7: 10 B2    BPL $B2
PRG:005C9: 20 E8 B7 JSR $B7E8
PRG:005CC: 2A       ROL
PRG:005CD: 30 07    BMI $07
PRG:005CF: E0 D0    CPX $D0
PRG:005D1: 90 9A    BCC $9A
PRG:005D3: D0 A6    BNE $A6
PRG:005D5: 60       RTS
PRG:005D6: E0 B1    CPX $B1
PRG:005D8: B0 A1    BCS $A1
PRG:005DA: 60       RTS
PRG:005DB: A9 00    LDA $00
PRG:005DD: 85 6B    STA $6B
PRG:005DF: AE A4 05 LDX $05A4
PRG:005E2: 30 89    BMI $89
PRG:005E4: E0 20    CPX $20
PRG:005E6: 90 85    BCC $85
PRG:005E8: D0 91    BNE $91
PRG:005EA: 60       RTS
PRG:005EB: A9 00    LDA $00
PRG:005ED: 8D 84 06 STA $0684
PRG:005F0: A5 72    LDA $72
PRG:005F2: 30 61    BMI $61
PRG:005F4: A5 6A    LDA $6A
PRG:005F6: D0 5D    BNE $5D
PRG:005F8: AD C4 05 LDA $05C4
PRG:005FB: C9 F0    CMP $F0
PRG:005FD: B0 56    BCS $56
PRG:005FF: AD 94 05 LDA $0594
PRG:00602: D0 51    BNE $51
PRG:00604: AD 2D 05 LDA $052D
PRG:00607: F0 07    BEQ $07
PRG:00609: AD 84 05 LDA $0584
PRG:0060C: C9 D0    CMP $D0
PRG:0060E: B0 45    BCS $45
PRG:00610: A9 03    LDA $03
PRG:00612: 8D 84 06 STA $0684
PRG:00615: A4 72    LDY $72
PRG:00617: D0 6B    BNE $6B
PRG:00619: A5 70    LDA $70
PRG:0061B: D0 6C    BNE $6C
PRG:0061D: A5 6E    LDA $6E
PRG:0061F: D0 4A    BNE $4A
PRG:00621: A5 4A    LDA $4A
PRG:00623: D0 31    BNE $31
PRG:00625: A5 74    LDA $74
PRG:00627: D0 31    BNE $31
PRG:00629: A5 6F    LDA $6F
PRG:0062B: D0 32    BNE $32
PRG:0062D: A5 7A    LDA $7A
PRG:0062F: D0 36    BNE $36
PRG:00631: A2 00    LDX $00
PRG:00633: 20 E8 B7 JSR $B7E8
PRG:00636: 29 03    AND $03
PRG:00638: F0 0A    BEQ $0A
PRG:0063A: A2 02    LDX $02
PRG:0063C: 20 E8 B7 JSR $B7E8
PRG:0063F: 2A       ROL
PRG:00640: 10 02    BPL $02
PRG:00642: E8       INX
PRG:00643: E8       INX
PRG:00644: A5 6B    LDA $6B
PRG:00646: F0 01    BEQ $01
PRG:00648: E8       INX
PRG:00649: 8A       TXA
PRG:0064A: C5 6C    CMP $6C
PRG:0064C: F0 07    BEQ $07
PRG:0064E: 85 6C    STA $6C
PRG:00650: A2 00    LDX $00
PRG:00652: 20 4A 9D JSR $9D4A
PRG:00655: 60       RTS
PRG:00656: A2 00    LDX $00
PRG:00658: F0 EA    BEQ $EA
PRG:0065A: C6 74    DEC $74
PRG:0065C: A2 08    LDX $08
PRG:0065E: CD A2 06 CMP $06A2
PRG:00661: A5 6B    LDA $6B
PRG:00663: F0 E4    BEQ $E4
PRG:00665: D0 E1    BNE $E1
PRG:00667: A2 02    LDX $02
PRG:00669: D0 DE    BNE $DE
PRG:0066B: A2 0C    LDX $0C
PRG:0066D: A5 6F    LDA $6F
PRG:0066F: D0 D8    BNE $D8
PRG:00671: A5 7A    LDA $7A
PRG:00673: D0 0B    BNE $0B
PRG:00675: CA       DEX
PRG:00676: 20 E8 B7 JSR $B7E8
PRG:00679: 29 02    AND $02
PRG:0067B: D0 CC    BNE $CC
PRG:0067D: CA       DEX
PRG:0067E: D0 C9    BNE $C9
PRG:00680: A2 0A    LDX $0A
PRG:00682: D0 C5    BNE $C5
PRG:00684: BE 90 86 LDX $8690
PRG:00687: D0 C0    BNE $C0
PRG:00689: A2 0F    LDX $0F
PRG:0068B: A5 6B    LDA $6B
PRG:0068D: F0 BA    BEQ $BA
PRG:0068F: D0 B7    BNE $B7
PRG:00691: 0D 0E 1D ORA $1D0E
PRG:00694: A9 0C    LDA $0C
PRG:00696: A4 75    LDY $75
PRG:00698: 30 02    BMI $02
PRG:0069A: A9 81    LDA $81
PRG:0069C: 4C 38 99 JMP $9938
PRG:0069F: A9 00    LDA $00
PRG:006A1: 9D 84 06 STA $0684
PRG:006A4: 60       RTS
PRG:006A5: A4 6A    LDY $6A
PRG:006A7: 30 F6    BMI $F6
PRG:006A9: 20 C5 86 JSR $86C5
PRG:006AC: B0 F1    BCS $F1
PRG:006AE: A9 01    LDA $01
PRG:006B0: 9D 84 06 STA $0684
PRG:006B3: AD 84 05 LDA $0584
PRG:006B6: 38       SEC
PRG:006B7: E9 10    SBC $10
PRG:006B9: 9D 84 05 STA $0584
PRG:006BC: AD 94 05 LDA $0594
PRG:006BF: E9 00    SBC $00
PRG:006C1: 9D 94 05 STA $0594
PRG:006C4: 60       RTS
PRG:006C5: A5 6A    LDA $6A
PRG:006C7: D0 0C    BNE $0C
PRG:006C9: AD C4 05 LDA $05C4
PRG:006CC: 38       SEC
PRG:006CD: E9 18    SBC $18
PRG:006CF: 90 04    BCC $04
PRG:006D1: 18       CLC
PRG:006D2: 4C D2 91 JMP $91D2
PRG:006D5: 38       SEC
PRG:006D6: 60       RTS
PRG:006D7: A5 7A    LDA $7A
PRG:006D9: D0 B9    BNE $B9
PRG:006DB: BC 54 05 LDY $0554
PRG:006DE: 88       DEY
PRG:006DF: F0 61    BEQ $61
PRG:006E1: 88       DEY
PRG:006E2: F0 1A    BEQ $1A
PRG:006E4: 20 9E 84 JSR $849E
PRG:006E7: 20 E7 83 JSR $83E7
PRG:006EA: BD 94 05 LDA $0594
PRG:006ED: D0 07    BNE $07
PRG:006EF: BD C4 05 LDA $05C4
PRG:006F2: C9 F0    CMP $F0
PRG:006F4: 90 CE    BCC $CE
PRG:006F6: 20 32 95 JSR $9532
PRG:006F9: A9 00    LDA $00
PRG:006FB: 85 75    STA $75
PRG:006FD: 60       RTS
PRG:006FE: A5 72    LDA $72
PRG:00700: D0 1B    BNE $1B
PRG:00702: A5 75    LDA $75
PRG:00704: 10 0D    BPL $0D
PRG:00706: BD 24 06 LDA $0624
PRG:00709: D0 9A    BNE $9A
PRG:0070B: A5 76    LDA $76
PRG:0070D: C9 02    CMP $02
PRG:0070F: B0 94    BCS $94
PRG:00711: 90 0A    BCC $0A
PRG:00713: DE 64 06 DEC $0664
PRG:00716: D0 8D    BNE $8D
PRG:00718: DE 74 06 DEC $0674
PRG:0071B: D0 88    BNE $88
PRG:0071D: A5 72    LDA $72
PRG:0071F: D0 03    BNE $03
PRG:00721: 20 C7 81 JSR $81C7
PRG:00724: 20 26 95 JSR $9526
PRG:00727: A9 01    LDA $01
PRG:00729: 9D 84 06 STA $0684
PRG:0072C: A5 6A    LDA $6A
PRG:0072E: D0 C6    BNE $C6
PRG:00730: 20 C5 86 JSR $86C5
PRG:00733: B0 C1    BCS $C1
PRG:00735: 20 B3 86 JSR $86B3
PRG:00738: A9 03    LDA $03
PRG:0073A: 9D A4 05 STA $05A4
PRG:0073D: A9 FB    LDA $FB
PRG:0073F: 4C 33 A9 JMP $A933
PRG:00742: A5 72    LDA $72
PRG:00744: D0 D7    BNE $D7
PRG:00746: FE 64 06 INC $0664
PRG:00749: D0 0D    BNE $0D
PRG:0074B: FE 54 05 INC $0554
PRG:0074E: A9 02    LDA $02
PRG:00750: 9D 74 06 STA $0674
PRG:00753: A9 58    LDA $58
PRG:00755: 4C 4C AD JMP $AD4C
PRG:00758: AD 84 05 LDA $0584
PRG:0075B: 38       SEC
PRG:0075C: E9 10    SBC $10
PRG:0075E: 85 00    STA $00
PRG:00760: AD 94 05 LDA $0594
PRG:00763: E9 00    SBC $00
PRG:00765: 85 01    STA $01
PRG:00767: A5 00    LDA $00
PRG:00769: 38       SEC
PRG:0076A: FD 84 05 SBC $0584
PRG:0076D: A5 01    LDA $01
PRG:0076F: FD 94 05 SBC $0594
PRG:00772: 30 11    BMI $11
PRG:00774: BD A4 05 LDA $05A4
PRG:00777: 10 06    BPL $06
PRG:00779: 4A       LSR
PRG:0077A: 09 80    ORA $80
PRG:0077C: 9D A4 05 STA $05A4
PRG:0077F: FE A4 05 INC $05A4
PRG:00782: 4C 91 87 JMP $8791
PRG:00785: BD A4 05 LDA $05A4
PRG:00788: 30 04    BMI $04
PRG:0078A: 4A       LSR
PRG:0078B: 9D A4 05 STA $05A4
PRG:0078E: DE A4 05 DEC $05A4
PRG:00791: AD C4 05 LDA $05C4
PRG:00794: 38       SEC
PRG:00795: E9 18    SBC $18
PRG:00797: 38       SEC
PRG:00798: FD C4 05 SBC $05C4
PRG:0079B: 30 11    BMI $11
PRG:0079D: BD D4 05 LDA $05D4
PRG:007A0: 10 06    BPL $06
PRG:007A2: 4A       LSR
PRG:007A3: 09 80    ORA $80
PRG:007A5: 9D D4 05 STA $05D4
PRG:007A8: FE D4 05 INC $05D4
PRG:007AB: 4C BA 87 JMP $87BA
PRG:007AE: BD D4 05 LDA $05D4
PRG:007B1: 30 04    BMI $04
PRG:007B3: 4A       LSR
PRG:007B4: 9D D4 05 STA $05D4
PRG:007B7: DE D4 05 DEC $05D4
PRG:007BA: 20 98 84 JSR $8498
PRG:007BD: 4C E4 83 JMP $83E4
PRG:007C0: A9 00    LDA $00
PRG:007C2: 8D 35 05 STA $0535
PRG:007C5: A5 6D    LDA $6D
PRG:007C7: F0 14    BEQ $14
PRG:007C9: A5 72    LDA $72
PRG:007CB: 05 70    ORA $70
PRG:007CD: 05 7A    ORA $7A
PRG:007CF: 05 4A    ORA $4A
PRG:007D1: D0 0A    BNE $0A
PRG:007D3: 20 E8 B7 JSR $B7E8
PRG:007D6: 2A       ROL
PRG:007D7: 30 05    BMI $05
PRG:007D9: A9 00    LDA $00
PRG:007DB: 85 73    STA $73
PRG:007DD: 60       RTS
PRG:007DE: A5 73    LDA $73
PRG:007E0: D0 FB    BNE $FB
PRG:007E2: A2 0F    LDX $0F
PRG:007E4: A0 00    LDY $00
PRG:007E6: BD 54 05 LDA $0554
PRG:007E9: F0 08    BEQ $08
PRG:007EB: BD 64 05 LDA $0564
PRG:007EE: C9 42    CMP $42
PRG:007F0: D0 01    BNE $01
PRG:007F2: C8       INY
PRG:007F3: CA       DEX
PRG:007F4: D0 F0    BNE $F0
PRG:007F6: C0 02    CPY $02
PRG:007F8: B0 E3    BCS $E3
PRG:007FA: A5 6A    LDA $6A
PRG:007FC: D0 DF    BNE $DF
PRG:007FE: AD 84 05 LDA $0584
PRG:00801: 85 84    STA $84
PRG:00803: AD 94 05 LDA $0594
PRG:00806: 85 85    STA $85
PRG:00808: AD C4 05 LDA $05C4
PRG:0080B: 85 86    STA $86
PRG:0080D: A9 42    LDA $42
PRG:0080F: 85 87    STA $87
PRG:00811: 4C B4 8D JMP $8DB4
PRG:00814: A9 01    LDA $01
PRG:00816: 85 73    STA $73
PRG:00818: 8D 35 05 STA $0535
PRG:0081B: A5 74    LDA $74
PRG:0081D: D0 04    BNE $04
PRG:0081F: A9 07    LDA $07
PRG:00821: 85 74    STA $74
PRG:00823: A9 08    LDA $08
PRG:00825: A4 6B    LDY $6B
PRG:00827: F0 02    BEQ $02
PRG:00829: A9 F8    LDA $F8
PRG:0082B: 9D A4 05 STA $05A4
PRG:0082E: A5 6D    LDA $6D
PRG:00830: 9D 64 06 STA $0664
PRG:00833: DE 64 06 DEC $0664
PRG:00836: A0 06    LDY $06
PRG:00838: 84 A0    STY $A0
PRG:0083A: BD 64 06 LDA $0664
PRG:0083D: F0 05    BEQ $05
PRG:0083F: A9 1F    LDA $1F
PRG:00841: 4C 66 9D JMP $9D66
PRG:00844: A0 11    LDY $11
PRG:00846: BD A4 05 LDA $05A4
PRG:00849: 10 01    BPL $01
PRG:0084B: C8       INY
PRG:0084C: 98       TYA
PRG:0084D: 4C 4A 9D JMP $9D4A
PRG:00850: 20 91 C2 JSR $C291
PRG:00853: B0 18    BCS $18
PRG:00855: 20 5F C2 JSR $C25F
PRG:00858: B0 05    BCS $05
PRG:0085A: DD C4 05 CMP $05C4
PRG:0085D: 90 0E    BCC $0E
PRG:0085F: 20 9E 84 JSR $849E
PRG:00862: BD 64 06 LDA $0664
PRG:00865: D0 03    BNE $03
PRG:00867: 4C 10 92 JMP $9210
PRG:0086A: 4C 13 92 JMP $9213
PRG:0086D: 4C 32 95 JMP $9532
PRG:00870: A9 0A    LDA $0A
PRG:00872: 85 76    STA $76
PRG:00874: A9 FF    LDA $FF
PRG:00876: 85 77    STA $77
PRG:00878: 60       RTS
PRG:00879: 85 01    STA $01
PRG:0087B: A9 00    LDA $00
PRG:0087D: 85 00    STA $00
PRG:0087F: A0 01    LDY $01
PRG:00881: 20 05 83 JSR $8305
PRG:00884: A5 77    LDA $77
PRG:00886: 18       CLC
PRG:00887: 65 00    ADC $00
PRG:00889: 85 77    STA $77
PRG:0088B: A5 76    LDA $76
PRG:0088D: 65 01    ADC $01
PRG:0088F: 85 76    STA $76
PRG:00891: CD 28 05 CMP $0528
PRG:00894: F0 0B    BEQ $0B
PRG:00896: 90 09    BCC $09
PRG:00898: AD 28 05 LDA $0528
PRG:0089B: 85 76    STA $76
PRG:0089D: A9 FF    LDA $FF
PRG:0089F: 85 77    STA $77
PRG:008A1: 60       RTS
PRG:008A2: A9 52    LDA $52
PRG:008A4: 85 5A    STA $5A
PRG:008A6: A9 00    LDA $00
PRG:008A8: 85 59    STA $59
PRG:008AA: A9 24    LDA $24
PRG:008AC: 85 5D    STA $5D
PRG:008AE: A5 48    LDA $48
PRG:008B0: 05 78    ORA $78
PRG:008B2: D0 ED    BNE $ED
PRG:008B4: A4 76    LDY $76
PRG:008B6: 30 E9    BMI $E9
PRG:008B8: C8       INY
PRG:008B9: 98       TYA
PRG:008BA: 4A       LSR
PRG:008BB: F0 10    BEQ $10
PRG:008BD: AA       TAX
PRG:008BE: A9 0C    LDA $0C
PRG:008C0: 20 01 C3 JSR $C301
PRG:008C3: A5 5A    LDA $5A
PRG:008C5: 18       CLC
PRG:008C6: 69 0A    ADC $0A
PRG:008C8: 85 5A    STA $5A
PRG:008CA: CA       DEX
PRG:008CB: D0 F1    BNE $F1
PRG:008CD: A4 76    LDY $76
PRG:008CF: C8       INY
PRG:008D0: 98       TYA
PRG:008D1: 4A       LSR
PRG:008D2: 90 CD    BCC $CD
PRG:008D4: A9 0D    LDA $0D
PRG:008D6: 4C 01 C3 JMP $C301
PRG:008D9: A2 01    LDX $01
PRG:008DB: BD A3 06 LDA $06A3
PRG:008DE: 20 01 89 JSR $8901
PRG:008E1: 85 00    STA $00
PRG:008E3: BD 9A 06 LDA $069A
PRG:008E6: 20 01 89 JSR $8901
PRG:008E9: C5 00    CMP $00
PRG:008EB: 90 1E    BCC $1E
PRG:008ED: D0 06    BNE $06
PRG:008EF: E8       INX
PRG:008F0: E0 08    CPX $08
PRG:008F2: 90 E7    BCC $E7
PRG:008F4: 60       RTS
PRG:008F5: A2 07    LDX $07
PRG:008F7: BD 9A 06 LDA $069A
PRG:008FA: 9D A3 06 STA $06A3
PRG:008FD: CA       DEX
PRG:008FE: D0 F7    BNE $F7
PRG:00900: 60       RTS
PRG:00901: C9 FF    CMP $FF
PRG:00903: F0 04    BEQ $04
PRG:00905: 38       SEC
PRG:00906: E9 F5    SBC $F5
PRG:00908: 60       RTS
PRG:00909: A9 00    LDA $00
PRG:0090B: 60       RTS
PRG:0090C: A9 60    LDA $60
PRG:0090E: 85 5A    STA $5A
PRG:00910: A9 00    LDA $00
PRG:00912: 85 59    STA $59
PRG:00914: A9 14    LDA $14
PRG:00916: 85 5D    STA $5D
PRG:00918: A9 2C    LDA $2C
PRG:0091A: 4C 01 C3 JMP $C301
PRG:0091D: A5 48    LDA $48
PRG:0091F: D0 EA    BNE $EA
PRG:00921: 20 0C 89 JSR $890C
PRG:00924: A9 1C    LDA $1C
PRG:00926: 85 5D    STA $5D
PRG:00928: A9 18    LDA $18
PRG:0092A: 85 5A    STA $5A
PRG:0092C: A9 18    LDA $18
PRG:0092E: 20 01 C3 JSR $C301
PRG:00931: A9 24    LDA $24
PRG:00933: 85 5A    STA $5A
PRG:00935: A9 0E    LDA $0E
PRG:00937: A4 40    LDY $40
PRG:00939: D0 05    BNE $05
PRG:0093B: 18       CLC
PRG:0093C: 65 3F    ADC $3F
PRG:0093E: E9 00    SBC $00
PRG:00940: 4C 01 C3 JMP $C301
PRG:00943: 48       PHA
PRG:00944: 45 43    EOR $43
PRG:00946: 54 4F    NOP $4F
PRG:00948: 52       .byte $52
PRG:00949: A9 E4    LDA $E4
PRG:0094B: 8D 9A 06 STA $069A
PRG:0094E: 8D A3 06 STA $06A3
PRG:00951: 8D AC 06 STA $06AC
PRG:00954: 8D B5 06 STA $06B5
PRG:00957: A2 05    LDX $05
PRG:00959: BD 94 06 LDA $0694
PRG:0095C: DD 43 89 CMP $8943
PRG:0095F: D0 04    BNE $04
PRG:00961: CA       DEX
PRG:00962: 10 F5    BPL $F5
PRG:00964: 60       RTS
PRG:00965: A2 05    LDX $05
PRG:00967: BD 43 89 LDA $8943
PRG:0096A: 9D 94 06 STA $0694
PRG:0096D: CA       DEX
PRG:0096E: 10 F7    BPL $F7
PRG:00970: A0 00    LDY $00
PRG:00972: 20 77 89 JSR $8977
PRG:00975: A0 09    LDY $09
PRG:00977: C8       INY
PRG:00978: A2 06    LDX $06
PRG:0097A: A9 FF    LDA $FF
PRG:0097C: 99 9A 06 STA $069A
PRG:0097F: C8       INY
PRG:00980: CA       DEX
PRG:00981: D0 F9    BNE $F9
PRG:00983: A9 F5    LDA $F5
PRG:00985: 99 9A 06 STA $069A
PRG:00988: C8       INY
PRG:00989: 99 9A 06 STA $069A
PRG:0098C: C8       INY
PRG:0098D: 60       RTS
PRG:0098E: 07       .byte $07
PRG:0098F: 07       .byte $07
PRG:00990: 07       .byte $07
PRG:00991: 06 06    ASL $06
PRG:00993: 06 06    ASL $06
PRG:00995: 06 05    ASL $05
PRG:00997: 05 05    ORA $05
PRG:00999: 05 05    ORA $05
PRG:0099B: 04 04    NOP $04
PRG:0099D: 04 01    NOP $01
PRG:0099F: 02       .byte $02
PRG:009A0: 05 01    ORA $01
PRG:009A2: 02       .byte $02
PRG:009A3: 03       .byte $03
PRG:009A4: 04 05    NOP $05
PRG:009A6: 01 02    ORA $02
PRG:009A8: 03       .byte $03
PRG:009A9: 04 05    NOP $05
PRG:009AB: 01 02    ORA $02
PRG:009AD: 05 04    ORA $04
PRG:009AF: 03       .byte $03
PRG:009B0: 03       .byte $03
PRG:009B1: 00 FA    BRK $FA
PRG:009B3: F6 F7    INC $F7
PRG:009B5: FF       .byte $FF
PRG:009B6: A9 01    LDA $01
PRG:009B8: A4 40    LDY $40
PRG:009BA: D0 30    BNE $30
PRG:009BC: A8       TAY
PRG:009BD: 8A       TXA
PRG:009BE: 48       PHA
PRG:009BF: A9 00    LDA $00
PRG:009C1: 20 01 8A JSR $8A01
PRG:009C4: AE 29 05 LDX $0529
PRG:009C7: BC AE 89 LDY $89AE
PRG:009CA: B9 9A 06 LDA $069A
PRG:009CD: C9 FF    CMP $FF
PRG:009CF: F0 0B    BEQ $0B
PRG:009D1: DD B2 89 CMP $89B2
PRG:009D4: D0 06    BNE $06
PRG:009D6: EE 29 05 INC $0529
PRG:009D9: 20 E2 89 JSR $89E2
PRG:009DC: 20 D9 88 JSR $88D9
PRG:009DF: 68       PLA
PRG:009E0: AA       TAX
PRG:009E1: 60       RTS
PRG:009E2: E6 0D    INC $0D
PRG:009E4: A5 3F    LDA $3F
PRG:009E6: C9 09    CMP $09
PRG:009E8: F0 02    BEQ $02
PRG:009EA: E6 3F    INC $3F
PRG:009EC: 60       RTS
PRG:009ED: 85 02    STA $02
PRG:009EF: B9 9E 89 LDA $899E
PRG:009F2: 85 01    STA $01
PRG:009F4: B9 8E 89 LDA $898E
PRG:009F7: 85 00    STA $00
PRG:009F9: A8       TAY
PRG:009FA: 18       CLC
PRG:009FB: 65 02    ADC $02
PRG:009FD: 85 03    STA $03
PRG:009FF: AA       TAX
PRG:00A00: 60       RTS
PRG:00A01: 20 ED 89 JSR $89ED
PRG:00A04: C0 07    CPY $07
PRG:00A06: F0 10    BEQ $10
PRG:00A08: BD 9A 06 LDA $069A
PRG:00A0B: C9 FF    CMP $FF
PRG:00A0D: D0 05    BNE $05
PRG:00A0F: A9 F5    LDA $F5
PRG:00A11: 9D 9A 06 STA $069A
PRG:00A14: E8       INX
PRG:00A15: C8       INY
PRG:00A16: D0 EC    BNE $EC
PRG:00A18: A6 03    LDX $03
PRG:00A1A: A4 00    LDY $00
PRG:00A1C: BD 9A 06 LDA $069A
PRG:00A1F: 20 01 89 JSR $8901
PRG:00A22: 18       CLC
PRG:00A23: 65 01    ADC $01
PRG:00A25: C9 0A    CMP $0A
PRG:00A27: 90 3B    BCC $3B
PRG:00A29: 69 EA    ADC $EA
PRG:00A2B: 9D 9A 06 STA $069A
PRG:00A2E: CA       DEX
PRG:00A2F: 88       DEY
PRG:00A30: F0 20    BEQ $20
PRG:00A32: BD 9A 06 LDA $069A
PRG:00A35: C9 FF    CMP $FF
PRG:00A37: D0 06    BNE $06
PRG:00A39: A9 F6    LDA $F6
PRG:00A3B: 9D 9A 06 STA $069A
PRG:00A3E: 60       RTS
PRG:00A3F: FE 9A 06 INC $069A
PRG:00A42: BD 9A 06 LDA $069A
PRG:00A45: C9 FF    CMP $FF
PRG:00A47: D0 19    BNE $19
PRG:00A49: A9 F5    LDA $F5
PRG:00A4B: 9D 9A 06 STA $069A
PRG:00A4E: CA       DEX
PRG:00A4F: 88       DEY
PRG:00A50: D0 E0    BNE $E0
PRG:00A52: A0 07    LDY $07
PRG:00A54: 98       TYA
PRG:00A55: 18       CLC
PRG:00A56: 65 02    ADC $02
PRG:00A58: AA       TAX
PRG:00A59: A9 FE    LDA $FE
PRG:00A5B: 9D 9A 06 STA $069A
PRG:00A5E: CA       DEX
PRG:00A5F: 88       DEY
PRG:00A60: D0 F9    BNE $F9
PRG:00A62: 60       RTS
PRG:00A63: 18       CLC
PRG:00A64: 69 F5    ADC $F5
PRG:00A66: 9D 9A 06 STA $069A
PRG:00A69: 60       RTS
PRG:00A6A: 20 89 8A JSR $8A89
PRG:00A6D: A6 02    LDX $02
PRG:00A6F: E8       INX
PRG:00A70: A0 01    LDY $01
PRG:00A72: BD 9A 06 LDA $069A
PRG:00A75: C9 FF    CMP $FF
PRG:00A77: F0 09    BEQ $09
PRG:00A79: C9 F5    CMP $F5
PRG:00A7B: D0 E5    BNE $E5
PRG:00A7D: A9 FF    LDA $FF
PRG:00A7F: 9D 9A 06 STA $069A
PRG:00A82: E8       INX
PRG:00A83: C8       INY
PRG:00A84: C0 07    CPY $07
PRG:00A86: D0 EA    BNE $EA
PRG:00A88: 60       RTS
PRG:00A89: 20 ED 89 JSR $89ED
PRG:00A8C: BD 9A 06 LDA $069A
PRG:00A8F: 20 01 89 JSR $8901
PRG:00A92: 38       SEC
PRG:00A93: E5 01    SBC $01
PRG:00A95: B0 CC    BCS $CC
PRG:00A97: 18       CLC
PRG:00A98: 69 FF    ADC $FF
PRG:00A9A: 9D 9A 06 STA $069A
PRG:00A9D: CA       DEX
PRG:00A9E: BD 9A 06 LDA $069A
PRG:00AA1: 20 01 89 JSR $8901
PRG:00AA4: 38       SEC
PRG:00AA5: E9 01    SBC $01
PRG:00AA7: B0 BA    BCS $BA
PRG:00AA9: 90 EC    BCC $EC
PRG:00AAB: AA       TAX
PRG:00AAC: E8       INX
PRG:00AAD: A0 07    LDY $07
PRG:00AAF: A9 00    LDA $00
PRG:00AB1: 85 00    STA $00
PRG:00AB3: BD 9A 06 LDA $069A
PRG:00AB6: 20 01 89 JSR $8901
PRG:00AB9: 05 00    ORA $00
PRG:00ABB: 85 00    STA $00
PRG:00ABD: E8       INX
PRG:00ABE: 88       DEY
PRG:00ABF: D0 F2    BNE $F2
PRG:00AC1: A5 00    LDA $00
PRG:00AC3: 60       RTS
PRG:00AC4: AD 3E 05 LDA $053E
PRG:00AC7: D0 52    BNE $52
PRG:00AC9: BD C4 05 LDA $05C4
PRG:00ACC: 0E 4E 05 ASL $054E
PRG:00ACF: 38       SEC
PRG:00AD0: ED 4E 05 SBC $054E
PRG:00AD3: 9D C4 05 STA $05C4
PRG:00AD6: FE 54 05 INC $0554
PRG:00AD9: 4C 47 AD JMP $AD47
PRG:00ADC: BD 64 05 LDA $0564
PRG:00ADF: 29 07    AND $07
PRG:00AE1: 9D 64 06 STA $0664
PRG:00AE4: A8       TAY
PRG:00AE5: BD C4 05 LDA $05C4
PRG:00AE8: 38       SEC
PRG:00AE9: F9 FD 8A SBC $8AFD
PRG:00AEC: E5 3E    SBC $3E
PRG:00AEE: 9D C4 05 STA $05C4
PRG:00AF1: B9 02 8B LDA $8B02
PRG:00AF4: 9D 74 06 STA $0674
PRG:00AF7: A9 00    LDA $00
PRG:00AF9: 9D 84 06 STA $0684
PRG:00AFC: 60       RTS
PRG:00AFD: 48       PHA
PRG:00AFE: 18       CLC
PRG:00AFF: 4C 0C 48 JMP $480C
PRG:00B02: 64 64    NOP $64
PRG:00B04: 64 32    NOP $32
PRG:00B06: 32       .byte $32
PRG:00B07: BC 54 05 LDY $0554
PRG:00B0A: 88       DEY
PRG:00B0B: F0 41    BEQ $41
PRG:00B0D: 88       DEY
PRG:00B0E: F0 26    BEQ $26
PRG:00B10: 88       DEY
PRG:00B11: F0 0B    BEQ $0B
PRG:00B13: 20 EA 83 JSR $83EA
PRG:00B16: DE 74 06 DEC $0674
PRG:00B19: D0 E1    BNE $E1
PRG:00B1B: 4C 32 95 JMP $9532
PRG:00B1E: 20 E8 BF JSR $BFE8
PRG:00B21: B0 48    BCS $48
PRG:00B23: DE 74 06 DEC $0674
PRG:00B26: D0 03    BNE $03
PRG:00B28: 4C 32 95 JMP $9532
PRG:00B2B: BD 74 06 LDA $0674
PRG:00B2E: 29 04    AND $04
PRG:00B30: 4A       LSR
PRG:00B31: 4A       LSR
PRG:00B32: 9D 84 06 STA $0684
PRG:00B35: 60       RTS
PRG:00B36: 20 E8 BF JSR $BFE8
PRG:00B39: B0 30    BCS $30
PRG:00B3B: BD 74 06 LDA $0674
PRG:00B3E: F0 2A    BEQ $2A
PRG:00B40: DE 74 06 DEC $0674
PRG:00B43: D0 25    BNE $25
PRG:00B45: FE 54 05 INC $0554
PRG:00B48: A9 3B    LDA $3B
PRG:00B4A: 9D 74 06 STA $0674
PRG:00B4D: 60       RTS
PRG:00B4E: BD 94 05 LDA $0594
PRG:00B51: D0 17    BNE $17
PRG:00B53: BD 84 05 LDA $0584
PRG:00B56: 38       SEC
PRG:00B57: ED 84 05 SBC $0584
PRG:00B5A: DD 74 06 CMP $0674
PRG:00B5D: B0 0B    BCS $0B
PRG:00B5F: FE 54 05 INC $0554
PRG:00B62: FE 84 06 INC $0684
PRG:00B65: A9 78    LDA $78
PRG:00B67: 9D 74 06 STA $0674
PRG:00B6A: 60       RTS
PRG:00B6B: A9 03    LDA $03
PRG:00B6D: 85 A0    STA $A0
PRG:00B6F: 20 23 95 JSR $9523
PRG:00B72: A9 FD    LDA $FD
PRG:00B74: 9D D4 05 STA $05D4
PRG:00B77: A9 1E    LDA $1E
PRG:00B79: 9D 74 06 STA $0674
PRG:00B7C: BC 64 06 LDY $0664
PRG:00B7F: C0 05    CPY $05
PRG:00B81: B0 1F    BCS $1F
PRG:00B83: B9 D8 8B LDA $8BD8
PRG:00B86: 20 79 88 JSR $8879
PRG:00B89: A5 8F    LDA $8F
PRG:00B8B: F0 1A    BEQ $1A
PRG:00B8D: BC 64 06 LDY $0664
PRG:00B90: A5 49    LDA $49
PRG:00B92: F0 02    BEQ $02
PRG:00B94: A0 06    LDY $06
PRG:00B96: B9 CA 8B LDA $8BCA
PRG:00B99: 20 6D 9D JSR $9D6D
PRG:00B9C: B9 D1 8B LDA $8BD1
PRG:00B9F: 4C B8 89 JMP $89B8
PRG:00BA2: A9 01    LDA $01
PRG:00BA4: 8D 3E 05 STA $053E
PRG:00BA7: BC 64 06 LDY $0664
PRG:00BAA: A5 49    LDA $49
PRG:00BAC: F0 02    BEQ $02
PRG:00BAE: A0 06    LDY $06
PRG:00BB0: B9 BC 8B LDA $8BBC
PRG:00BB3: 20 6D 9D JSR $9D6D
PRG:00BB6: B9 C3 8B LDA $8BC3
PRG:00BB9: 4C B8 89 JMP $89B8
PRG:00BBC: 30 30    BMI $30
PRG:00BBE: 31 31    AND $31
PRG:00BC0: 32       .byte $32
PRG:00BC1: 36 35    ROL $35
PRG:00BC3: 02       .byte $02
PRG:00BC4: 02       .byte $02
PRG:00BC5: 03       .byte $03
PRG:00BC6: 03       .byte $03
PRG:00BC7: 04 08    NOP $08
PRG:00BC9: 07       .byte $07
PRG:00BCA: 31 31    AND $31
PRG:00BCC: 32       .byte $32
PRG:00BCD: 32       .byte $32
PRG:00BCE: 34 00    NOP $00
PRG:00BD0: 36 03    ROL $03
PRG:00BD2: 03       .byte $03
PRG:00BD3: 04 04    NOP $04
PRG:00BD5: 06 00    ASL $00
PRG:00BD7: 08       PHP
PRG:00BD8: 01 01    ORA $01
PRG:00BDA: 02       .byte $02
PRG:00BDB: 02       .byte $02
PRG:00BDC: 03       .byte $03
PRG:00BDD: AD 31 05 LDA $0531
PRG:00BE0: F0 26    BEQ $26
PRG:00BE2: A5 06    LDA $06
PRG:00BE4: 29 7F    AND $7F
PRG:00BE6: 85 00    STA $00
PRG:00BE8: A9 10    LDA $10
PRG:00BEA: 38       SEC
PRG:00BEB: E5 00    SBC $00
PRG:00BED: 85 84    STA $84
PRG:00BEF: 85 00    STA $00
PRG:00BF1: A9 01    LDA $01
PRG:00BF3: 85 85    STA $85
PRG:00BF5: 85 01    STA $01
PRG:00BF7: 20 AD C1 JSR $C1AD
PRG:00BFA: 85 86    STA $86
PRG:00BFC: A9 41    LDA $41
PRG:00BFE: 85 87    STA $87
PRG:00C00: 20 B4 8D JSR $8DB4
PRG:00C03: A9 00    LDA $00
PRG:00C05: 8D 31 05 STA $0531
PRG:00C08: 60       RTS
PRG:00C09: AD 31 05 LDA $0531
PRG:00C0C: 4C 4C AD JMP $AD4C
PRG:00C0F: BD 94 05 LDA $0594
PRG:00C12: 30 1E    BMI $1E
PRG:00C14: A5 67    LDA $67
PRG:00C16: 48       PHA
PRG:00C17: A9 00    LDA $00
PRG:00C19: 85 67    STA $67
PRG:00C1B: A9 FC    LDA $FC
PRG:00C1D: 20 76 9D JSR $9D76
PRG:00C20: A9 FC    LDA $FC
PRG:00C22: 20 8B 9D JSR $9D8B
PRG:00C25: BD 64 06 LDA $0664
PRG:00C28: 18       CLC
PRG:00C29: 69 FF    ADC $FF
PRG:00C2B: 20 01 C3 JSR $C301
PRG:00C2E: 68       PLA
PRG:00C2F: 85 67    STA $67
PRG:00C31: 60       RTS
PRG:00C32: 4C 32 95 JMP $9532
PRG:00C35: A2 0F    LDX $0F
PRG:00C37: A9 00    LDA $00
PRG:00C39: 85 66    STA $66
PRG:00C3B: 9D 54 05 STA $0554
PRG:00C3E: CA       DEX
PRG:00C3F: D0 FA    BNE $FA
PRG:00C41: 8E 36 05 STX $0536
PRG:00C44: 60       RTS
PRG:00C45: A5 3A    LDA $3A
PRG:00C47: 30 FB    BMI $FB
PRG:00C49: 20 DE 99 JSR $99DE
PRG:00C4C: A2 04    LDX $04
PRG:00C4E: 8A       TXA
PRG:00C4F: 48       PHA
PRG:00C50: 20 5A 8C JSR $8C5A
PRG:00C53: 68       PLA
PRG:00C54: AA       TAX
PRG:00C55: CA       DEX
PRG:00C56: CA       DEX
PRG:00C57: 10 F5    BPL $F5
PRG:00C59: 60       RTS
PRG:00C5A: BD 46 05 LDA $0546
PRG:00C5D: 30 E5    BMI $E5
PRG:00C5F: BD 40 05 LDA $0540
PRG:00C62: 8D 4C 05 STA $054C
PRG:00C65: 29 F0    AND $F0
PRG:00C67: 85 00    STA $00
PRG:00C69: BD 41 05 LDA $0541
PRG:00C6C: 8D 4D 05 STA $054D
PRG:00C6F: 85 01    STA $01
PRG:00C71: A5 06    LDA $06
PRG:00C73: 18       CLC
PRG:00C74: 69 40    ADC $40
PRG:00C76: 85 02    STA $02
PRG:00C78: A5 3A    LDA $3A
PRG:00C7A: 69 00    ADC $00
PRG:00C7C: 85 03    STA $03
PRG:00C7E: A5 02    LDA $02
PRG:00C80: 38       SEC
PRG:00C81: E5 00    SBC $00
PRG:00C83: 85 00    STA $00
PRG:00C85: A5 03    LDA $03
PRG:00C87: E5 01    SBC $01
PRG:00C89: 85 01    STA $01
PRG:00C8B: 30 B7    BMI $B7
PRG:00C8D: 48       PHA
PRG:00C8E: A5 00    LDA $00
PRG:00C90: 48       PHA
PRG:00C91: 0E 4C 05 ASL $054C
PRG:00C94: 2E 4D 05 ROL $054D
PRG:00C97: 0E 4C 05 ASL $054C
PRG:00C9A: 2E 4D 05 ROL $054D
PRG:00C9D: 0E 4C 05 ASL $054C
PRG:00CA0: 2E 4D 05 ROL $054D
PRG:00CA3: A0 06    LDY $06
PRG:00CA5: 20 74 8D JSR $8D74
PRG:00CA8: A5 00    LDA $00
PRG:00CAA: 85 87    STA $87
PRG:00CAC: 0D 4C 05 ORA $054C
PRG:00CAF: 8D 4C 05 STA $054C
PRG:00CB2: 29 3F    AND $3F
PRG:00CB4: C9 38    CMP $38
PRG:00CB6: 90 1A    BCC $1A
PRG:00CB8: A0 08    LDY $08
PRG:00CBA: 20 74 8D JSR $8D74
PRG:00CBD: A5 00    LDA $00
PRG:00CBF: 8D 4E 05 STA $054E
PRG:00CC2: A5 87    LDA $87
PRG:00CC4: C9 3E    CMP $3E
PRG:00CC6: 90 0A    BCC $0A
PRG:00CC8: A0 08    LDY $08
PRG:00CCA: 20 74 8D JSR $8D74
PRG:00CCD: A5 00    LDA $00
PRG:00CCF: 8D 4F 05 STA $054F
PRG:00CD2: 68       PLA
PRG:00CD3: 85 00    STA $00
PRG:00CD5: 68       PLA
PRG:00CD6: D0 1D    BNE $1D
PRG:00CD8: A9 40    LDA $40
PRG:00CDA: 38       SEC
PRG:00CDB: E5 00    SBC $00
PRG:00CDD: 90 16    BCC $16
PRG:00CDF: 85 84    STA $84
PRG:00CE1: 85 00    STA $00
PRG:00CE3: A9 01    LDA $01
PRG:00CE5: 85 85    STA $85
PRG:00CE7: 85 01    STA $01
PRG:00CE9: 8A       TXA
PRG:00CEA: 48       PHA
PRG:00CEB: 20 AD C1 JSR $C1AD
PRG:00CEE: 85 86    STA $86
PRG:00CF0: 20 B4 8D JSR $8DB4
PRG:00CF3: 68       PLA
PRG:00CF4: AA       TAX
PRG:00CF5: A0 01    LDY $01
PRG:00CF7: 20 74 8D JSR $8D74
PRG:00CFA: 46 00    LSR $00
PRG:00CFC: 90 1D    BCC $1D
PRG:00CFE: A0 0A    LDY $0A
PRG:00D00: 20 74 8D JSR $8D74
PRG:00D03: A5 00    LDA $00
PRG:00D05: 05 01    ORA $01
PRG:00D07: F0 30    BEQ $30
PRG:00D09: A0 03    LDY $03
PRG:00D0B: 20 3F 8D JSR $8D3F
PRG:00D0E: A5 00    LDA $00
PRG:00D10: 9D 40 05 STA $0540
PRG:00D13: A5 01    LDA $01
PRG:00D15: 9D 41 05 STA $0541
PRG:00D18: 4C 5A 8C JMP $8C5A
PRG:00D1B: A0 06    LDY $06
PRG:00D1D: 20 74 8D JSR $8D74
PRG:00D20: A0 03    LDY $03
PRG:00D22: 20 3F 8D JSR $8D3F
PRG:00D25: BD 40 05 LDA $0540
PRG:00D28: 18       CLC
PRG:00D29: 65 00    ADC $00
PRG:00D2B: 9D 40 05 STA $0540
PRG:00D2E: BD 41 05 LDA $0541
PRG:00D31: 65 01    ADC $01
PRG:00D33: 9D 41 05 STA $0541
PRG:00D36: 4C 5A 8C JMP $8C5A
PRG:00D39: A9 FF    LDA $FF
PRG:00D3B: 9D 46 05 STA $0546
PRG:00D3E: 60       RTS
PRG:00D3F: 06 00    ASL $00
PRG:00D41: 26 01    ROL $01
PRG:00D43: 88       DEY
PRG:00D44: D0 F9    BNE $F9
PRG:00D46: 60       RTS
PRG:00D47: A2 04    LDX $04
PRG:00D49: B5 7C    LDA $7C
PRG:00D4B: 15 7D    ORA $7D
PRG:00D4D: D0 07    BNE $07
PRG:00D4F: A9 FF    LDA $FF
PRG:00D51: 9D 46 05 STA $0546
PRG:00D54: D0 19    BNE $19
PRG:00D56: A9 00    LDA $00
PRG:00D58: 9D 46 05 STA $0546
PRG:00D5B: A0 0A    LDY $0A
PRG:00D5D: 20 74 8D JSR $8D74
PRG:00D60: A0 03    LDY $03
PRG:00D62: 20 3F 8D JSR $8D3F
PRG:00D65: A5 00    LDA $00
PRG:00D67: 9D 40 05 STA $0540
PRG:00D6A: A5 01    LDA $01
PRG:00D6C: 9D 41 05 STA $0541
PRG:00D6F: CA       DEX
PRG:00D70: CA       DEX
PRG:00D71: 10 D6    BPL $D6
PRG:00D73: 60       RTS
PRG:00D74: A9 00    LDA $00
PRG:00D76: 85 00    STA $00
PRG:00D78: 85 01    STA $01
PRG:00D7A: BD 46 05 LDA $0546
PRG:00D7D: D0 10    BNE $10
PRG:00D7F: A1 7C    LDA $7C
PRG:00D81: 9D 47 05 STA $0547
PRG:00D84: A9 08    LDA $08
PRG:00D86: 9D 46 05 STA $0546
PRG:00D89: F6 7C    INC $7C
PRG:00D8B: D0 02    BNE $02
PRG:00D8D: F6 7D    INC $7D
PRG:00D8F: 3E 47 05 ROL $0547
PRG:00D92: 26 00    ROL $00
PRG:00D94: 26 01    ROL $01
PRG:00D96: DE 46 05 DEC $0546
PRG:00D99: 88       DEY
PRG:00D9A: D0 DE    BNE $DE
PRG:00D9C: 60       RTS
PRG:00D9D: A9 00    LDA $00
PRG:00D9F: 85 01    STA $01
PRG:00DA1: A5 87    LDA $87
PRG:00DA3: 0A       ASL
PRG:00DA4: 65 87    ADC $87
PRG:00DA6: 0A       ASL
PRG:00DA7: 26 01    ROL $01
PRG:00DA9: 69 1E    ADC $1E
PRG:00DAB: 85 82    STA $82
PRG:00DAD: A5 01    LDA $01
PRG:00DAF: 69 90    ADC $90
PRG:00DB1: 85 83    STA $83
PRG:00DB3: 60       RTS
PRG:00DB4: A2 0F    LDX $0F
PRG:00DB6: BD 54 05 LDA $0554
PRG:00DB9: F0 04    BEQ $04
PRG:00DBB: CA       DEX
PRG:00DBC: D0 F8    BNE $F8
PRG:00DBE: 60       RTS
PRG:00DBF: 20 9D 8D JSR $8D9D
PRG:00DC2: 20 D2 8D JSR $8DD2
PRG:00DC5: A5 87    LDA $87
PRG:00DC7: 0A       ASL
PRG:00DC8: A8       TAY
PRG:00DC9: B9 FF 8E LDA $8EFF
PRG:00DCC: 48       PHA
PRG:00DCD: B9 FE 8E LDA $8EFE
PRG:00DD0: 48       PHA
PRG:00DD1: 60       RTS
PRG:00DD2: A0 00    LDY $00
PRG:00DD4: B1 82    LDA $82
PRG:00DD6: 29 07    AND $07
PRG:00DD8: 9D 84 06 STA $0684
PRG:00DDB: B1 82    LDA $82
PRG:00DDD: 85 00    STA $00
PRG:00DDF: C8       INY
PRG:00DE0: B1 82    LDA $82
PRG:00DE2: C8       INY
PRG:00DE3: 4A       LSR
PRG:00DE4: 66 00    ROR $00
PRG:00DE6: 4A       LSR
PRG:00DE7: 66 00    ROR $00
PRG:00DE9: 4A       LSR
PRG:00DEA: 66 00    ROR $00
PRG:00DEC: 85 01    STA $01
PRG:00DEE: 20 40 8E JSR $8E40
PRG:00DF1: B1 82    LDA $82
PRG:00DF3: 9D E4 05 STA $05E4
PRG:00DF6: C8       INY
PRG:00DF7: B1 82    LDA $82
PRG:00DF9: 9D F4 05 STA $05F4
PRG:00DFC: C8       INY
PRG:00DFD: B1 82    LDA $82
PRG:00DFF: 9D 04 06 STA $0604
PRG:00E02: C8       INY
PRG:00E03: B1 82    LDA $82
PRG:00E05: 9D 14 06 STA $0614
PRG:00E08: 20 2C 95 JSR $952C
PRG:00E0B: A5 87    LDA $87
PRG:00E0D: 9D 64 05 STA $0564
PRG:00E10: A5 84    LDA $84
PRG:00E12: 9D 84 05 STA $0584
PRG:00E15: A5 85    LDA $85
PRG:00E17: 9D 94 05 STA $0594
PRG:00E1A: A5 86    LDA $86
PRG:00E1C: 18       CLC
PRG:00E1D: 7D F4 05 ADC $05F4
PRG:00E20: 9D C4 05 STA $05C4
PRG:00E23: A9 00    LDA $00
PRG:00E25: 9D 74 05 STA $0574
PRG:00E28: 9D A4 05 STA $05A4
PRG:00E2B: 9D B4 05 STA $05B4
PRG:00E2E: 9D D4 05 STA $05D4
PRG:00E31: 9D 64 06 STA $0664
PRG:00E34: 9D 74 06 STA $0674
PRG:00E37: 9D 24 06 STA $0624
PRG:00E3A: A9 FC    LDA $FC
PRG:00E3C: 9D 34 06 STA $0634
PRG:00E3F: 60       RTS
PRG:00E40: BD 84 06 LDA $0684
PRG:00E43: F0 1E    BEQ $1E
PRG:00E45: C9 03    CMP $03
PRG:00E47: 90 10    BCC $10
PRG:00E49: A5 00    LDA $00
PRG:00E4B: 18       CLC
PRG:00E4C: 69 20    ADC $20
PRG:00E4E: 9D 44 06 STA $0644
PRG:00E51: A5 01    LDA $01
PRG:00E53: 69 9E    ADC $9E
PRG:00E55: 9D 54 06 STA $0654
PRG:00E58: 60       RTS
PRG:00E59: A9 00    LDA $00
PRG:00E5B: 9D 54 06 STA $0654
PRG:00E5E: A5 00    LDA $00
PRG:00E60: 9D 44 06 STA $0644
PRG:00E63: 60       RTS
PRG:00E64: A2 0F    LDX $0F
PRG:00E66: BD 54 05 LDA $0554
PRG:00E69: F0 5A    BEQ $5A
PRG:00E6B: BD 64 05 LDA $0564
PRG:00E6E: 30 1C    BMI $1C
PRG:00E70: A5 3C    LDA $3C
PRG:00E72: F0 0F    BEQ $0F
PRG:00E74: 18       CLC
PRG:00E75: 7D 84 05 ADC $0584
PRG:00E78: 9D 84 05 STA $0584
PRG:00E7B: BD 94 05 LDA $0594
PRG:00E7E: 69 FF    ADC $FF
PRG:00E80: 9D 94 05 STA $0594
PRG:00E83: BD C4 05 LDA $05C4
PRG:00E86: 18       CLC
PRG:00E87: 65 3D    ADC $3D
PRG:00E89: 9D C4 05 STA $05C4
PRG:00E8C: 8A       TXA
PRG:00E8D: 48       PHA
PRG:00E8E: 20 9E 92 JSR $929E
PRG:00E91: 68       PLA
PRG:00E92: AA       TAX
PRG:00E93: BD 64 05 LDA $0564
PRG:00E96: 30 2D    BMI $2D
PRG:00E98: BD C4 05 LDA $05C4
PRG:00E9B: C9 F0    CMP $F0
PRG:00E9D: B0 23    BCS $23
PRG:00E9F: BD E4 05 LDA $05E4
PRG:00EA2: 85 00    STA $00
PRG:00EA4: 20 10 83 JSR $8310
PRG:00EA7: BD 84 05 LDA $0584
PRG:00EAA: 38       SEC
PRG:00EAB: E5 00    SBC $00
PRG:00EAD: BD 94 05 LDA $0594
PRG:00EB0: E5 01    SBC $01
PRG:00EB2: 30 0E    BMI $0E
PRG:00EB4: BD 94 05 LDA $0594
PRG:00EB7: 30 0C    BMI $0C
PRG:00EB9: F0 0A    BEQ $0A
PRG:00EBB: BD 84 05 LDA $0584
PRG:00EBE: C9 90    CMP $90
PRG:00EC0: 90 03    BCC $03
PRG:00EC2: 20 32 95 JSR $9532
PRG:00EC5: CA       DEX
PRG:00EC6: D0 9E    BNE $9E
PRG:00EC8: 60       RTS
PRG:00EC9: A6 66    LDX $66
PRG:00ECB: BD 54 05 LDA $0554
PRG:00ECE: F0 0C    BEQ $0C
PRG:00ED0: BD 84 06 LDA $0684
PRG:00ED3: F0 07    BEQ $07
PRG:00ED5: 8A       TXA
PRG:00ED6: 48       PHA
PRG:00ED7: 20 EE 91 JSR $91EE
PRG:00EDA: 68       PLA
PRG:00EDB: AA       TAX
PRG:00EDC: E8       INX
PRG:00EDD: E0 05    CPX $05
PRG:00EDF: D0 07    BNE $07
PRG:00EE1: 8A       TXA
PRG:00EE2: 48       PHA
PRG:00EE3: 20 1D 89 JSR $891D
PRG:00EE6: 68       PLA
PRG:00EE7: AA       TAX
PRG:00EE8: E0 0A    CPX $0A
PRG:00EEA: D0 07    BNE $07
PRG:00EEC: 8A       TXA
PRG:00EED: 48       PHA
PRG:00EEE: 20 A2 88 JSR $88A2
PRG:00EF1: 68       PLA
PRG:00EF2: AA       TAX
PRG:00EF3: E0 10    CPX $10
PRG:00EF5: 90 02    BCC $02
PRG:00EF7: A2 00    LDX $00
PRG:00EF9: E4 66    CPX $66
PRG:00EFB: D0 CE    BNE $CE
PRG:00EFD: 60       RTS
PRG:00EFE: BD 8D BD LDA $BD8D
PRG:00F01: 8D BD 8D STA $8DBD
PRG:00F04: BD 8D 69 LDA $698D
PRG:00F07: 93       .byte $93
PRG:00F08: 6C 93 E9 JMP $E993
PRG:00F0B: 95 BD    STA $BD
PRG:00F0D: 8D BD 8D STA $8DBD
PRG:00F10: 42       .byte $42
PRG:00F11: 95 3F    STA $3F
PRG:00F13: 95 26    STA $26
PRG:00F15: 98       TYA
PRG:00F16: EC 95 BD CPX $BD95
PRG:00F19: 8D EF 95 STA $95EF
PRG:00F1C: 2D 96 DB AND $DB96
PRG:00F1F: 8A       TXA
PRG:00F20: DB       .byte $DB
PRG:00F21: 8A       TXA
PRG:00F22: DB       .byte $DB
PRG:00F23: 8A       TXA
PRG:00F24: DB       .byte $DB
PRG:00F25: 8A       TXA
PRG:00F26: DB       .byte $DB
PRG:00F27: 8A       TXA
PRG:00F28: BD 8D BD LDA $BD8D
PRG:00F2B: 8D BD 8D STA $8DBD
PRG:00F2E: 73       .byte $73
PRG:00F2F: AB       .byte $AB
PRG:00F30: 3D AD 32 AND $32AD
PRG:00F33: AD 38 AD LDA $AD38
PRG:00F36: BD 8D 43 LDA $438D
PRG:00F39: AD BD 8D LDA $8DBD
PRG:00F3C: BD 8D BD LDA $BD8D
PRG:00F3F: 8D BD 8D STA $8DBD
PRG:00F42: BD 8D A7 LDA $A78D
PRG:00F45: 97       .byte $97
PRG:00F46: FF       .byte $FF
PRG:00F47: 97       .byte $97
PRG:00F48: AA       TAX
PRG:00F49: 97       .byte $97
PRG:00F4A: 26 98    ROL $98
PRG:00F4C: 26 98    ROL $98
PRG:00F4E: A4 97    LDY $97
PRG:00F50: 9F       .byte $9F
PRG:00F51: 97       .byte $97
PRG:00F52: DF       .byte $DF
PRG:00F53: 92       .byte $92
PRG:00F54: BD 8D BD LDA $BD8D
PRG:00F57: 8D BD 8D STA $8DBD
PRG:00F5A: BD 8D BD LDA $BD8D
PRG:00F5D: 8D BD 8D STA $8DBD
PRG:00F60: BD 8D BD LDA $BD8D
PRG:00F63: 8D EF 95 STA $95EF
PRG:00F66: E9 95    SBC $95
PRG:00F68: BD 8D BD LDA $BD8D
PRG:00F6B: 8D 3D AD STA $AD3D
PRG:00F6E: 91 98    STA $98
PRG:00F70: C3       .byte $C3
PRG:00F71: 8A       TXA
PRG:00F72: 49 A9    EOR $A9
PRG:00F74: CE A8 BD DEC $BDA8
PRG:00F77: 8D BD 8D STA $8DBD
PRG:00F7A: 36 A9    ROL $A9
PRG:00F7C: F4 A8    NOP $A8
PRG:00F7E: BD 8D 08 LDA $088D
PRG:00F81: 8C 13 88 STY $8813
PRG:00F84: 4C 9A BD JMP $BD9A
PRG:00F87: 8D 34 99 STA $9934
PRG:00F8A: B5 9C    LDA $9C
PRG:00F8C: BD 8D BD LDA $BD8D
PRG:00F8F: 8D CB 92 STA $92CB
PRG:00F92: D3       .byte $D3
PRG:00F93: 92       .byte $92
PRG:00F94: 35 93    AND $93
PRG:00F96: 83       .byte $83
PRG:00F97: 93       .byte $93
PRG:00F98: 83       .byte $83
PRG:00F99: 93       .byte $93
PRG:00F9A: F2       .byte $F2
PRG:00F9B: 93       .byte $93
PRG:00F9C: 73       .byte $73
PRG:00F9D: 94 18    STY $18
PRG:00F9F: 94 62    STY $62
PRG:00FA1: 95 62    STA $62
PRG:00FA3: 95 92    STA $92
PRG:00FA5: 95 F2    STA $F2
PRG:00FA7: 93       .byte $93
PRG:00FA8: 02       .byte $02
PRG:00FA9: 94 FA    STY $FA
PRG:00FAB: 95 3D    STA $3D
PRG:00FAD: 96 06    STX $06
PRG:00FAF: 8B       .byte $8B
PRG:00FB0: 06 8B    ASL $8B
PRG:00FB2: 06 8B    ASL $8B
PRG:00FB4: 06 8B    ASL $8B
PRG:00FB6: 06 8B    ASL $8B
PRG:00FB8: BD 8D BD LDA $BD8D
PRG:00FBB: 8D 6A AC STA $AC6A
PRG:00FBE: 7F       .byte $7F
PRG:00FBF: AB       .byte $AB
PRG:00FC0: 00 AB    BRK $AB
PRG:00FC2: 00 AB    BRK $AB
PRG:00FC4: 00 AB    BRK $AB
PRG:00FC6: 6A       ROR
PRG:00FC7: AC 6A AC LDY $AC6A
PRG:00FCA: BD 8D BD LDA $BD8D
PRG:00FCD: 8D 83 96 STA $9683
PRG:00FD0: 2A       ROL
PRG:00FD1: 97       .byte $97
PRG:00FD2: 18       CLC
PRG:00FD3: 94 CE    STY $CE
PRG:00FD5: 97       .byte $97
PRG:00FD6: 11 98    ORA $98
PRG:00FD8: CE 97 39 DEC $3997
PRG:00FDB: 98       TYA
PRG:00FDC: 39 98 CE AND $CE98
PRG:00FDF: 97       .byte $97
PRG:00FE0: CE 97 EF DEC $EF97
PRG:00FE3: 92       .byte $92
PRG:00FE4: D2       .byte $D2
PRG:00FE5: 99 E7 AA STA $AAE7
PRG:00FE8: BD 8D BD LDA $BD8D
PRG:00FEB: 8D BD 8D STA $8DBD
PRG:00FEE: 38       SEC
PRG:00FEF: AB       .byte $AB
PRG:00FF0: CE 92 C6 DEC $C692
PRG:00FF3: 92       .byte $92
PRG:00FF4: F5 95    SBC $95
PRG:00FF6: ED 93 30 SBC $3093
PRG:00FF9: 93       .byte $93
PRG:00FFA: CE A6 CE DEC $CEA6
PRG:00FFD: A6 CE    LDX $CE
PRG:00FFF: 98       TYA
PRG:01000: 06 8B    ASL $8B
PRG:01002: 65 A9    ADC $A9
PRG:01004: 65 A9    ADC $A9
PRG:01006: BD 8D BD LDA $BD8D
PRG:01009: 8D 65 A9 STA $A965
PRG:0100C: 65 A9    ADC $A9
PRG:0100E: BD 8D 0E LDA $0E8D
PRG:01011: 8C 4F 88 STY $884F
PRG:01014: 0F       .byte $0F
PRG:01015: 9B       .byte $9B
PRG:01016: C7       .byte $C7
PRG:01017: 9C       .byte $9C
PRG:01018: 5F       .byte $5F
PRG:01019: 99 BD 8D STA $8DBD
PRG:0101C: D6 86    DEC $86
PRG:0101E: 00 00    BRK $00
PRG:01020: 00 00    BRK $00
PRG:01022: 00 00    BRK $00
PRG:01024: BB       .byte $BB
PRG:01025: 05 F8    ORA $F8
PRG:01027: F4 04    NOP $04
PRG:01029: 08       PHP
PRG:0102A: 09 05    ORA $05
PRG:0102C: F8       SED
PRG:0102D: F8       SED
PRG:0102E: 06 06    ASL $06
PRG:01030: F1 01    SBC $01
PRG:01032: F8       SED
PRG:01033: F4 04    NOP $04
PRG:01035: 08       PHP
PRG:01036: 01 03    ORA $03
PRG:01038: F4 F4    NOP $F4
PRG:0103A: 06 08    ASL $08
PRG:0103C: 01 03    ORA $03
PRG:0103E: F4 F4    NOP $F4
PRG:01040: 06 08    ASL $08
PRG:01042: FB       .byte $FB
PRG:01043: 07       .byte $07
PRG:01044: F8       SED
PRG:01045: F4 06    NOP $06
PRG:01047: 0A       ASL
PRG:01048: DB       .byte $DB
PRG:01049: 06 F8    ASL $F8
PRG:0104B: F8       SED
PRG:0104C: 06 06    ASL $06
PRG:0104E: 23       .byte $23
PRG:0104F: 07       .byte $07
PRG:01050: F8       SED
PRG:01051: F8       SED
PRG:01052: 06 06    ASL $06
PRG:01054: 4B       .byte $4B
PRG:01055: 06 F8    ASL $F8
PRG:01057: F8       SED
PRG:01058: 04 04    NOP $04
PRG:0105A: 4B       .byte $4B
PRG:0105B: 06 F8    ASL $F8
PRG:0105D: F8       SED
PRG:0105E: 04 04    NOP $04
PRG:01060: 23       .byte $23
PRG:01061: 09 F8    ORA $F8
PRG:01063: F8       SED
PRG:01064: 06 06    ASL $06
PRG:01066: FB       .byte $FB
PRG:01067: 07       .byte $07
PRG:01068: F8       SED
PRG:01069: F4 08    NOP $08
PRG:0106B: 0A       ASL
PRG:0106C: 93       .byte $93
PRG:0106D: 06 F8    ASL $F8
PRG:0106F: F8       SED
PRG:01070: 06 06    ASL $06
PRG:01072: 03       .byte $03
PRG:01073: 06 F4    ASL $F4
PRG:01075: F8       SED
PRG:01076: 0A       ASL
PRG:01077: 06 FC    ASL $FC
PRG:01079: 09 F4    ORA $F4
PRG:0107B: F4 06    NOP $06
PRG:0107D: 06 59    ASL $59
PRG:0107F: 02       .byte $02
PRG:01080: F8       SED
PRG:01081: F8       SED
PRG:01082: 07       .byte $07
PRG:01083: 07       .byte $07
PRG:01084: 99 04 F8 STA $F804
PRG:01087: F8       SED
PRG:01088: 07       .byte $07
PRG:01089: 07       .byte $07
PRG:0108A: A1 04    LDA $04
PRG:0108C: F8       SED
PRG:0108D: F8       SED
PRG:0108E: 07       .byte $07
PRG:0108F: 07       .byte $07
PRG:01090: 01 06    ORA $06
PRG:01092: F8       SED
PRG:01093: F8       SED
PRG:01094: 07       .byte $07
PRG:01095: 07       .byte $07
PRG:01096: A9 04    LDA $04
PRG:01098: F8       SED
PRG:01099: F8       SED
PRG:0109A: 07       .byte $07
PRG:0109B: 07       .byte $07
PRG:0109C: 00 00    BRK $00
PRG:0109E: 00 00    BRK $00
PRG:010A0: 00 00    BRK $00
PRG:010A2: 00 00    BRK $00
PRG:010A4: 00 00    BRK $00
PRG:010A6: 00 00    BRK $00
PRG:010A8: 11 03    ORA $03
PRG:010AA: F4 F8    NOP $F8
PRG:010AC: 0A       ASL
PRG:010AD: 06 31    ASL $31
PRG:010AF: 03       .byte $03
PRG:010B0: F8       SED
PRG:010B1: F8       SED
PRG:010B2: 07       .byte $07
PRG:010B3: 07       .byte $07
PRG:010B4: 78       SEI
PRG:010B5: 00 F4    BRK $F4
PRG:010B7: F8       SED
PRG:010B8: 0A       ASL
PRG:010B9: 06 80    ASL $80
PRG:010BB: 00 F4    BRK $F4
PRG:010BD: F8       SED
PRG:010BE: 0A       ASL
PRG:010BF: 06 88    ASL $88
PRG:010C1: 00 F4    BRK $F4
PRG:010C3: F8       SED
PRG:010C4: 0A       ASL
PRG:010C5: 06 11    ASL $11
PRG:010C7: 03       .byte $03
PRG:010C8: F4 F8    NOP $F8
PRG:010CA: 08       PHP
PRG:010CB: 06 11    ASL $11
PRG:010CD: 03       .byte $03
PRG:010CE: F4 F8    NOP $F8
PRG:010D0: 0A       ASL
PRG:010D1: 06 00    ASL $00
PRG:010D3: 00 00    BRK $00
PRG:010D5: 00 00    BRK $00
PRG:010D7: 00 00    BRK $00
PRG:010D9: 00 00    BRK $00
PRG:010DB: 00 00    BRK $00
PRG:010DD: 00 F1    BRK $F1
PRG:010DF: 05 E8    ORA $E8
PRG:010E1: F8       SED
PRG:010E2: 06 0A    ASL $0A
PRG:010E4: F9 05 E8 SBC $E805
PRG:010E7: F8       SED
PRG:010E8: 06 0A    ASL $0A
PRG:010EA: 23       .byte $23
PRG:010EB: 07       .byte $07
PRG:010EC: F8       SED
PRG:010ED: F8       SED
PRG:010EE: 06 06    ASL $06
PRG:010F0: B9 04 F8 LDA $F804
PRG:010F3: F4 06    NOP $06
PRG:010F5: 0A       ASL
PRG:010F6: 84 08    STY $08
PRG:010F8: E0 00    CPX $00
PRG:010FA: 14 01    NOP $01
PRG:010FC: B9 04 F8 LDA $F804
PRG:010FF: F4 06    NOP $06
PRG:01101: 0A       ASL
PRG:01102: C9 04    CMP $04
PRG:01104: F8       SED
PRG:01105: F4 06    NOP $06
PRG:01107: 0A       ASL
PRG:01108: C9 04    CMP $04
PRG:0110A: F8       SED
PRG:0110B: F4 06    NOP $06
PRG:0110D: 0A       ASL
PRG:0110E: 21 05    AND $05
PRG:01110: F8       SED
PRG:01111: F4 06    NOP $06
PRG:01113: 0A       ASL
PRG:01114: 21 05    AND $05
PRG:01116: F8       SED
PRG:01117: F4 06    NOP $06
PRG:01119: 0A       ASL
PRG:0111A: 53       .byte $53
PRG:0111B: 0B       .byte $0B
PRG:0111C: F8       SED
PRG:0111D: FC 04 02 NOP $0204
PRG:01120: 00 00    BRK $00
PRG:01122: 00 00    BRK $00
PRG:01124: 00 00    BRK $00
PRG:01126: 00 00    BRK $00
PRG:01128: 00 00    BRK $00
PRG:0112A: 00 00    BRK $00
PRG:0112C: 00 00    BRK $00
PRG:0112E: 00 00    BRK $00
PRG:01130: 00 00    BRK $00
PRG:01132: 00 00    BRK $00
PRG:01134: 00 00    BRK $00
PRG:01136: 00 00    BRK $00
PRG:01138: 00 00    BRK $00
PRG:0113A: 00 00    BRK $00
PRG:0113C: 00 00    BRK $00
PRG:0113E: 70 00    BVS $00
PRG:01140: F8       SED
PRG:01141: F0 10    BEQ $10
PRG:01143: 10 09    BPL $09
PRG:01145: 05 F8    ORA $F8
PRG:01147: F8       SED
PRG:01148: 06 06    ASL $06
PRG:0114A: BB       .byte $BB
PRG:0114B: 05 F8    ORA $F8
PRG:0114D: F4 04    NOP $04
PRG:0114F: 08       PHP
PRG:01150: 03       .byte $03
PRG:01151: 06 F4    ASL $F4
PRG:01153: F8       SED
PRG:01154: 0A       ASL
PRG:01155: 06 FB    ASL $FB
PRG:01157: 07       .byte $07
PRG:01158: F8       SED
PRG:01159: F4 06    NOP $06
PRG:0115B: 0A       ASL
PRG:0115C: F1 01    SBC $01
PRG:0115E: F8       SED
PRG:0115F: F4 04    NOP $04
PRG:01161: 08       PHP
PRG:01162: 02       .byte $02
PRG:01163: 00 F4    BRK $F4
PRG:01165: F5 0E    SBC $0E
PRG:01167: 08       PHP
PRG:01168: 52       .byte $52
PRG:01169: 00 F4    BRK $F4
PRG:0116B: F5 0E    SBC $0E
PRG:0116D: 08       PHP
PRG:0116E: D9 04 F8 CMP $F804
PRG:01171: F8       SED
PRG:01172: 04 04    NOP $04
PRG:01174: 39 05 F8 AND $F805
PRG:01177: F8       SED
PRG:01178: 08       PHP
PRG:01179: 08       PHP
PRG:0117A: 01 00    ORA $00
PRG:0117C: E0 F8    CPX $F8
PRG:0117E: 22       .byte $22
PRG:0117F: 0C 01 00 NOP $0001
PRG:01182: E0 F8    CPX $F8
PRG:01184: 22       .byte $22
PRG:01185: 0C 00 00 NOP $0000
PRG:01188: 00 00    BRK $00
PRG:0118A: 00 00    BRK $00
PRG:0118C: 00 00    BRK $00
PRG:0118E: 00 00    BRK $00
PRG:01190: 00 00    BRK $00
PRG:01192: 01 00    ORA $00
PRG:01194: E0 F8    CPX $F8
PRG:01196: 22       .byte $22
PRG:01197: 0C 01 00 NOP $0001
PRG:0119A: E0 F8    CPX $F8
PRG:0119C: 22       .byte $22
PRG:0119D: 0C 03 00 NOP $0003
PRG:011A0: F8       SED
PRG:011A1: F0 04    BEQ $04
PRG:011A3: 0C D9 03 NOP $03D9
PRG:011A6: F8       SED
PRG:011A7: F8       SED
PRG:011A8: 00 00    BRK $00
PRG:011AA: 03       .byte $03
PRG:011AB: 00 F8    BRK $F8
PRG:011AD: F8       SED
PRG:011AE: 04 07    NOP $07
PRG:011B0: CA       DEX
PRG:011B1: 02       .byte $02
PRG:011B2: EC E4 14 CPX $14E4
PRG:011B5: 18       CLC
PRG:011B6: C9 03    CMP $03
PRG:011B8: F8       SED
PRG:011B9: F8       SED
PRG:011BA: 05 05    ORA $05
PRG:011BC: 00 00    BRK $00
PRG:011BE: 00 00    BRK $00
PRG:011C0: 00 00    BRK $00
PRG:011C2: 01 00    ORA $00
PRG:011C4: F4 F4    NOP $F4
PRG:011C6: 04 04    NOP $04
PRG:011C8: 00 00    BRK $00
PRG:011CA: F8       SED
PRG:011CB: F8       SED
PRG:011CC: 00 00    BRK $00
PRG:011CE: 18       CLC
PRG:011CF: 7D C4 05 ADC $05C4
PRG:011D2: 9D C4 05 STA $05C4
PRG:011D5: 60       RTS
PRG:011D6: BC 44 06 LDY $0644
PRG:011D9: 4C 16 A7 JMP $A716
PRG:011DC: BD E4 05 LDA $05E4
PRG:011DF: 20 76 9D JSR $9D76
PRG:011E2: BD F4 05 LDA $05F4
PRG:011E5: 20 8B 9D JSR $9D8B
PRG:011E8: BD 44 06 LDA $0644
PRG:011EB: 4C 01 C3 JMP $C301
PRG:011EE: BC 84 06 LDY $0684
PRG:011F1: 88       DEY
PRG:011F2: F0 E8    BEQ $E8
PRG:011F4: 88       DEY
PRG:011F5: F0 DF    BEQ $DF
PRG:011F7: 88       DEY
PRG:011F8: F0 07    BEQ $07
PRG:011FA: 20 92 9D JSR $9D92
PRG:011FD: A8       TAY
PRG:011FE: 4C 16 A7 JMP $A716
PRG:01201: 20 92 9D JSR $9D92
PRG:01204: 4C 01 C3 JMP $C301
PRG:01207: A0 01    LDY $01
PRG:01209: CD A0 02 CMP $02A0
PRG:0120C: CD A0 03 CMP $03A0
PRG:0120F: CD A0 04 CMP $04A0
PRG:01212: CD A0 05 CMP $05A0
PRG:01215: 20 EC 83 JSR $83EC
PRG:01218: FE D4 05 INC $05D4
PRG:0121B: 60       RTS
PRG:0121C: 8D 32 05 STA $0532
PRG:0121F: 20 28 C1 JSR $C128
PRG:01222: B0 06    BCS $06
PRG:01224: 4C 46 C0 JMP $C046
PRG:01227: 8D 32 05 STA $0532
PRG:0122A: A9 0D    LDA $0D
PRG:0122C: 85 A0    STA $A0
PRG:0122E: 20 2F 95 JSR $952F
PRG:01231: AC 32 05 LDY $0532
PRG:01234: B9 74 92 LDA $9274
PRG:01237: 48       PHA
PRG:01238: F0 07    BEQ $07
PRG:0123A: 20 E7 95 JSR $95E7
PRG:0123D: A9 EC    LDA $EC
PRG:0123F: D0 0E    BNE $0E
PRG:01241: A5 00    LDA $00
PRG:01243: 10 03    BPL $03
PRG:01245: A9 FD    LDA $FD
PRG:01247: CD A9 03 CMP $03A9
PRG:0124A: 9D A4 05 STA $05A4
PRG:0124D: A9 F6    LDA $F6
PRG:0124F: 9D D4 05 STA $05D4
PRG:01252: AC 32 05 LDY $0532
PRG:01255: B9 8C 92 LDA $928C
PRG:01258: 20 B8 89 JSR $89B8
PRG:0125B: 68       PLA
PRG:0125C: 85 01    STA $01
PRG:0125E: AC 32 05 LDY $0532
PRG:01261: B9 80 92 LDA $9280
PRG:01264: A4 01    LDY $01
PRG:01266: C0 02    CPY $02
PRG:01268: B0 05    BCS $05
PRG:0126A: 20 6D 9D JSR $9D6D
PRG:0126D: 38       SEC
PRG:0126E: 60       RTS
PRG:0126F: 20 66 9D JSR $9D66
PRG:01272: 38       SEC
PRG:01273: 60       RTS
PRG:01274: 01 00    ORA $00
PRG:01276: 01 00    ORA $00
PRG:01278: 00 00    BRK $00
PRG:0127A: 00 01    BRK $01
PRG:0127C: 00 02    BRK $02
PRG:0127E: 00 00    BRK $00
PRG:01280: 3F       .byte $3F
PRG:01281: 61 A2    ADC $A2
PRG:01283: 81 9E    STA $9E
PRG:01285: 72       .byte $72
PRG:01286: 9F       .byte $9F
PRG:01287: 73       .byte $73
PRG:01288: 64 15    NOP $15
PRG:0128A: 00 77    BRK $77
PRG:0128C: 03       .byte $03
PRG:0128D: 03       .byte $03
PRG:0128E: 04 03    NOP $03
PRG:01290: 02       .byte $02
PRG:01291: 00 00    BRK $00
PRG:01293: 07       .byte $07
PRG:01294: 03       .byte $03
PRG:01295: 03       .byte $03
PRG:01296: 01 02    ORA $02
PRG:01298: 20 9E 84 JSR $849E
PRG:0129B: 4C 0A 92 JMP $920A
PRG:0129E: BC 54 05 LDY $0554
PRG:012A1: C8       INY
PRG:012A2: F0 F4    BEQ $F4
PRG:012A4: BD 64 05 LDA $0564
PRG:012A7: 29 7F    AND $7F
PRG:012A9: 0A       ASL
PRG:012AA: A8       TAY
PRG:012AB: B9 8F 8F LDA $8F8F
PRG:012AE: 48       PHA
PRG:012AF: B9 8E 8F LDA $8F8E
PRG:012B2: 48       PHA
PRG:012B3: 60       RTS
PRG:012B4: BD 54 05 LDA $0554
PRG:012B7: 0A       ASL
PRG:012B8: A8       TAY
PRG:012B9: 68       PLA
PRG:012BA: 85 00    STA $00
PRG:012BC: 68       PLA
PRG:012BD: 85 01    STA $01
PRG:012BF: B1 00    LDA $00
PRG:012C1: 48       PHA
PRG:012C2: 88       DEY
PRG:012C3: B1 00    LDA $00
PRG:012C5: 48       PHA
PRG:012C6: 60       RTS
PRG:012C7: 20 3E C0 JSR $C03E
PRG:012CA: B0 E7    BCS $E7
PRG:012CC: 4C 49 C0 JMP $C049
PRG:012CF: 20 3E C0 JSR $C03E
PRG:012D2: B0 DF    BCS $DF
PRG:012D4: A9 02    LDA $02
PRG:012D6: 20 2D C1 JSR $C12D
PRG:012D9: B0 D8    BCS $D8
PRG:012DB: A9 80    LDA $80
PRG:012DD: 4C 4B C0 JMP $C04B
PRG:012E0: A9 FA    LDA $FA
PRG:012E2: 9D A4 05 STA $05A4
PRG:012E5: A9 02    LDA $02
PRG:012E7: 9D 64 06 STA $0664
PRG:012EA: A9 FF    LDA $FF
PRG:012EC: 9D 74 06 STA $0674
PRG:012EF: 60       RTS
PRG:012F0: 20 46 C0 JSR $C046
PRG:012F3: B0 FA    BCS $FA
PRG:012F5: 4C 6A 95 JMP $956A
PRG:012F8: AD 36 05 LDA $0536
PRG:012FB: F0 33    BEQ $33
PRG:012FD: BD 94 05 LDA $0594
PRG:01300: D0 2E    BNE $2E
PRG:01302: BD 84 05 LDA $0584
PRG:01305: CD 84 05 CMP $0584
PRG:01308: 90 26    BCC $26
PRG:0130A: BD 64 06 LDA $0664
PRG:0130D: 29 07    AND $07
PRG:0130F: D0 1F    BNE $1F
PRG:01311: A9 00    LDA $00
PRG:01313: 8D 36 05 STA $0536
PRG:01316: BD 84 05 LDA $0584
PRG:01319: 85 84    STA $84
PRG:0131B: BD 94 05 LDA $0594
PRG:0131E: 85 85    STA $85
PRG:01320: BD C4 05 LDA $05C4
PRG:01323: 85 86    STA $86
PRG:01325: A9 2A    LDA $2A
PRG:01327: 85 87    STA $87
PRG:01329: 8A       TXA
PRG:0132A: 48       PHA
PRG:0132B: 20 B4 8D JSR $8DB4
PRG:0132E: 68       PLA
PRG:0132F: AA       TAX
PRG:01330: 60       RTS
PRG:01331: 20 3E C0 JSR $C03E
PRG:01334: B0 FA    BCS $FA
PRG:01336: 20 F8 92 JSR $92F8
PRG:01339: A9 00    LDA $00
PRG:0133B: 20 1C 92 JSR $921C
PRG:0133E: B0 F0    BCS $F0
PRG:01340: 20 AF 9B JSR $9BAF
PRG:01343: 29 07    AND $07
PRG:01345: A8       TAY
PRG:01346: BD 84 05 LDA $0584
PRG:01349: 18       CLC
PRG:0134A: 79 5A 93 ADC $935A
PRG:0134D: 9D 84 05 STA $0584
PRG:01350: BD 94 05 LDA $0594
PRG:01353: 79 62 93 ADC $9362
PRG:01356: 9D 94 05 STA $0594
PRG:01359: 60       RTS
PRG:0135A: 00 FF    BRK $FF
PRG:0135C: 00 01    BRK $01
PRG:0135E: 00 01    BRK $01
PRG:01360: 00 FF    BRK $FF
PRG:01362: 00 FF    BRK $FF
PRG:01364: 00 00    BRK $00
PRG:01366: 00 00    BRK $00
PRG:01368: 00 FF    BRK $FF
PRG:0136A: A9 FE    LDA $FE
PRG:0136C: CD A9 FD CMP $FDA9
PRG:0136F: 9D A4 05 STA $05A4
PRG:01372: AD 4C 05 LDA $054C
PRG:01375: 29 40    AND $40
PRG:01377: F0 71    BEQ $71
PRG:01379: FE 54 05 INC $0554
PRG:0137C: A9 00    LDA $00
PRG:0137E: 9D 84 06 STA $0684
PRG:01381: 4C 72 AA JMP $AA72
PRG:01384: BC 54 05 LDY $0554
PRG:01387: 88       DEY
PRG:01388: F0 12    BEQ $12
PRG:0138A: BD 94 05 LDA $0594
PRG:0138D: 10 5B    BPL $5B
PRG:0138F: BD 84 05 LDA $0584
PRG:01392: C9 F8    CMP $F8
PRG:01394: B0 54    BCS $54
PRG:01396: DE 54 05 DEC $0554
PRG:01399: FE 84 06 INC $0684
PRG:0139C: A9 02    LDA $02
PRG:0139E: 20 2D C1 JSR $C12D
PRG:013A1: B0 47    BCS $47
PRG:013A3: 20 46 C0 JSR $C046
PRG:013A6: B0 42    BCS $42
PRG:013A8: 20 91 C2 JSR $C291
PRG:013AB: 90 03    BCC $03
PRG:013AD: 20 72 AA JSR $AA72
PRG:013B0: 20 9E 84 JSR $849E
PRG:013B3: 20 5F C2 JSR $C25F
PRG:013B6: B0 33    BCS $33
PRG:013B8: 48       PHA
PRG:013B9: 20 EB 93 JSR $93EB
PRG:013BC: 68       PLA
PRG:013BD: 18       CLC
PRG:013BE: 7D F4 05 ADC $05F4
PRG:013C1: DD C4 05 CMP $05C4
PRG:013C4: B0 24    BCS $24
PRG:013C6: 9D C4 05 STA $05C4
PRG:013C9: A9 00    LDA $00
PRG:013CB: 9D B4 05 STA $05B4
PRG:013CE: BD D4 05 LDA $05D4
PRG:013D1: 4A       LSR
PRG:013D2: C9 08    CMP $08
PRG:013D4: B0 08    BCS $08
PRG:013D6: C9 04    CMP $04
PRG:013D8: B0 08    BCS $08
PRG:013DA: A9 03    LDA $03
PRG:013DC: D0 04    BNE $04
PRG:013DE: A0 05    LDY $05
PRG:013E0: 84 A0    STY $A0
PRG:013E2: 49 FF    EOR $FF
PRG:013E4: 9D D4 05 STA $05D4
PRG:013E7: FE D4 05 INC $05D4
PRG:013EA: 60       RTS
PRG:013EB: 4C 0D 92 JMP $920D
PRG:013EE: 20 3E C0 JSR $C03E
PRG:013F1: B0 F7    BCS $F7
PRG:013F3: A9 01    LDA $01
PRG:013F5: 20 1C 92 JSR $921C
PRG:013F8: B0 F0    BCS $F0
PRG:013FA: 4C 79 97 JMP $9779
PRG:013FD: FA       NOP
PRG:013FE: 0D F3 F0 ORA $F0F3
PRG:01401: CF       .byte $CF
PRG:01402: F7       .byte $F7
PRG:01403: 20 46 C0 JSR $C046
PRG:01406: B0 E2    BCS $E2
PRG:01408: 20 28 C1 JSR $C128
PRG:0140B: 90 DD    BCC $DD
PRG:0140D: 20 AF 9B JSR $9BAF
PRG:01410: C9 02    CMP $02
PRG:01412: B0 3B    BCS $3B
PRG:01414: A9 18    LDA $18
PRG:01416: 4C 4A 9D JMP $9D4A
PRG:01419: 20 46 C0 JSR $C046
PRG:0141C: B0 0F    BCS $0F
PRG:0141E: 20 28 C1 JSR $C128
PRG:01421: 90 0B    BCC $0B
PRG:01423: BD 64 06 LDA $0664
PRG:01426: 49 80    EOR $80
PRG:01428: 10 25    BPL $25
PRG:0142A: 9D 64 06 STA $0664
PRG:0142D: 60       RTS
PRG:0142E: 20 B4 92 JSR $92B4
PRG:01431: 38       SEC
PRG:01432: 94 53    STY $53
PRG:01434: 94 ED    STY $ED
PRG:01436: 94 BD    STY $BD
PRG:01438: 8D BD 94 STA $94BD
PRG:0143B: 05 D0    ORA $D0
PRG:0143D: EF       .byte $EF
PRG:0143E: AD 84 05 LDA $0584
PRG:01441: 38       SEC
PRG:01442: FD 84 05 SBC $0584
PRG:01445: 90 E6    BCC $E6
PRG:01447: C9 38    CMP $38
PRG:01449: 90 E2    BCC $E2
PRG:0144B: A0 01    LDY $01
PRG:0144D: D0 43    BNE $43
PRG:0144F: A9 02    LDA $02
PRG:01451: 4C 27 92 JMP $9227
PRG:01454: 20 F4 94 JSR $94F4
PRG:01457: 90 D4    BCC $D4
PRG:01459: A9 1C    LDA $1C
PRG:0145B: 20 4A 9D JSR $9D4A
PRG:0145E: 20 AF 9B JSR $9BAF
PRG:01461: 29 7F    AND $7F
PRG:01463: C9 04    CMP $04
PRG:01465: 90 7E    BCC $7E
PRG:01467: BD 64 05 LDA $0564
PRG:0146A: C9 22    CMP $22
PRG:0146C: F0 03    BEQ $03
PRG:0146E: 4C 23 95 JMP $9523
PRG:01471: 4C 8A C0 JMP $C08A
PRG:01474: 20 46 C0 JSR $C046
PRG:01477: B0 7A    BCS $7A
PRG:01479: 20 28 C1 JSR $C128
PRG:0147C: 90 2D    BCC $2D
PRG:0147E: 20 AF 9B JSR $9BAF
PRG:01481: C9 02    CMP $02
PRG:01483: B0 CA    BCS $CA
PRG:01485: BD 54 05 LDA $0554
PRG:01488: C9 02    CMP $02
PRG:0148A: F0 67    BEQ $67
PRG:0148C: C9 04    CMP $04
PRG:0148E: F0 63    BEQ $63
PRG:01490: A0 00    LDY $00
PRG:01492: 20 29 95 JSR $9529
PRG:01495: B9 FD 93 LDA $93FD
PRG:01498: 9D A4 05 STA $05A4
PRG:0149B: B9 FF 93 LDA $93FF
PRG:0149E: 9D D4 05 STA $05D4
PRG:014A1: A9 09    LDA $09
PRG:014A3: 85 A0    STA $A0
PRG:014A5: B9 01 94 LDA $9401
PRG:014A8: 4C 6D 9D JMP $9D6D
PRG:014AB: 20 B4 92 JSR $92B4
PRG:014AE: B5 94    LDA $94
PRG:014B0: C8       INY
PRG:014B1: 94 ED    STY $ED
PRG:014B3: 94 BD    STY $BD
PRG:014B5: 8D BD 94 STA $94BD
PRG:014B8: 05 D0    ORA $D0
PRG:014BA: 38       SEC
PRG:014BB: BD 84 05 LDA $0584
PRG:014BE: 38       SEC
PRG:014BF: ED 84 05 SBC $0584
PRG:014C2: 90 5F    BCC $5F
PRG:014C4: C9 48    CMP $48
PRG:014C6: 90 C8    BCC $C8
PRG:014C8: 60       RTS
PRG:014C9: 20 F4 94 JSR $94F4
PRG:014CC: 90 25    BCC $25
PRG:014CE: A9 18    LDA $18
PRG:014D0: 20 4A 9D JSR $9D4A
PRG:014D3: BD 94 05 LDA $0594
PRG:014D6: D0 4B    BNE $4B
PRG:014D8: BD 84 05 LDA $0584
PRG:014DB: CD 84 05 CMP $0584
PRG:014DE: 90 43    BCC $43
PRG:014E0: BD A4 05 LDA $05A4
PRG:014E3: F0 3E    BEQ $3E
PRG:014E5: FE 54 05 INC $0554
PRG:014E8: A9 06    LDA $06
PRG:014EA: 9D 74 06 STA $0674
PRG:014ED: 60       RTS
PRG:014EE: DE 74 06 DEC $0674
PRG:014F1: F0 39    BEQ $39
PRG:014F3: 60       RTS
PRG:014F4: 20 91 C2 JSR $C291
PRG:014F7: 90 03    BCC $03
PRG:014F9: 20 E7 95 JSR $95E7
PRG:014FC: 20 9B 84 JSR $849B
PRG:014FF: BD D4 05 LDA $05D4
PRG:01502: 30 17    BMI $17
PRG:01504: 20 5F C2 JSR $C25F
PRG:01507: B0 12    BCS $12
PRG:01509: 48       PHA
PRG:0150A: 20 20 95 JSR $9520
PRG:0150D: 68       PLA
PRG:0150E: 38       SEC
PRG:0150F: E9 08    SBC $08
PRG:01511: DD C4 05 CMP $05C4
PRG:01514: B0 08    BCS $08
PRG:01516: 9D C4 05 STA $05C4
PRG:01519: 38       SEC
PRG:0151A: 60       RTS
PRG:0151B: 20 20 95 JSR $9520
PRG:0151E: 18       CLC
PRG:0151F: 60       RTS
PRG:01520: 4C 07 92 JMP $9207
PRG:01523: A9 04    LDA $04
PRG:01525: CD A9 03 CMP $03A9
PRG:01528: CD A9 02 CMP $02A9
PRG:0152B: CD A9 01 CMP $01A9
PRG:0152E: CD A9 FF CMP $FFA9
PRG:01531: CD A9 00 CMP $00A9
PRG:01534: 9D 54 05 STA $0554
PRG:01537: 60       RTS
PRG:01538: 22       .byte $22
PRG:01539: 53       .byte $53
PRG:0153A: E9 DC    SBC $DC
PRG:0153C: ED 17 24 SBC $2417
PRG:0153F: 13       .byte $13
PRG:01540: FE 64 06 INC $0664
PRG:01543: DE 74 06 DEC $0674
PRG:01546: AD 4C 05 LDA $054C
PRG:01549: 29 40    AND $40
PRG:0154B: F0 13    BEQ $13
PRG:0154D: BC 64 06 LDY $0664
PRG:01550: BD C4 05 LDA $05C4
PRG:01553: 38       SEC
PRG:01554: F9 38 95 SBC $9538
PRG:01557: 9D C4 05 STA $05C4
PRG:0155A: FE 74 06 INC $0674
PRG:0155D: FE 74 06 INC $0674
PRG:01560: 4C EA 95 JMP $95EA
PRG:01563: A9 03    LDA $03
PRG:01565: 20 1C 92 JSR $921C
PRG:01568: B0 28    BCS $28
PRG:0156A: 20 9B 84 JSR $849B
PRG:0156D: 20 E1 83 JSR $83E1
PRG:01570: BC 64 06 LDY $0664
PRG:01573: BD D4 05 LDA $05D4
PRG:01576: 18       CLC
PRG:01577: 7D 74 06 ADC $0674
PRG:0157A: D9 3A 95 CMP $953A
PRG:0157D: F0 08    BEQ $08
PRG:0157F: D9 3D 95 CMP $953D
PRG:01582: F0 03    BEQ $03
PRG:01584: 4C 33 A9 JMP $A933
PRG:01587: BD 74 06 LDA $0674
PRG:0158A: 49 FF    EOR $FF
PRG:0158C: 9D 74 06 STA $0674
PRG:0158F: FE 74 06 INC $0674
PRG:01592: 60       RTS
PRG:01593: A9 04    LDA $04
PRG:01595: 20 1C 92 JSR $921C
PRG:01598: B0 F8    BCS $F8
PRG:0159A: BC 54 05 LDY $0554
PRG:0159D: 88       DEY
PRG:0159E: F0 03    BEQ $03
PRG:015A0: 20 9E 84 JSR $849E
PRG:015A3: BC 54 05 LDY $0554
PRG:015A6: 88       DEY
PRG:015A7: F0 12    BEQ $12
PRG:015A9: 88       DEY
PRG:015AA: F0 2D    BEQ $2D
PRG:015AC: 20 AF 9B JSR $9BAF
PRG:015AF: A0 02    LDY $02
PRG:015B1: 29 08    AND $08
PRG:015B3: F0 02    BEQ $02
PRG:015B5: A0 FE    LDY $FE
PRG:015B7: 98       TYA
PRG:015B8: 4C CE 91 JMP $91CE
PRG:015BB: BD 94 05 LDA $0594
PRG:015BE: D0 EC    BNE $EC
PRG:015C0: BD 84 05 LDA $0584
PRG:015C3: 38       SEC
PRG:015C4: ED 84 05 SBC $0584
PRG:015C7: 30 E3    BMI $E3
PRG:015C9: FE 54 05 INC $0554
PRG:015CC: A9 FE    LDA $FE
PRG:015CE: 9D A4 05 STA $05A4
PRG:015D1: 20 4A AD JSR $AD4A
PRG:015D4: A9 0A    LDA $0A
PRG:015D6: 4C 33 A9 JMP $A933
PRG:015D9: 20 EA 83 JSR $83EA
PRG:015DC: 20 AF 9B JSR $9BAF
PRG:015DF: C9 0F    CMP $0F
PRG:015E1: D0 12    BNE $12
PRG:015E3: FE 54 05 INC $0554
PRG:015E6: 60       RTS
PRG:015E7: A9 00    LDA $00
PRG:015E9: CD A9 FD CMP $FDA9
PRG:015EC: CD A9 FB CMP $FBA9
PRG:015EF: CD A9 FF CMP $FFA9
PRG:015F2: 9D A4 05 STA $05A4
PRG:015F5: 60       RTS
PRG:015F6: 20 3E C0 JSR $C03E
PRG:015F9: B0 FA    BCS $FA
PRG:015FB: A9 05    LDA $05
PRG:015FD: 20 1C 92 JSR $921C
PRG:01600: B0 F3    BCS $F3
PRG:01602: BD 84 05 LDA $0584
PRG:01605: 38       SEC
PRG:01606: E9 0C    SBC $0C
PRG:01608: 85 00    STA $00
PRG:0160A: BD 94 05 LDA $0594
PRG:0160D: E9 00    SBC $00
PRG:0160F: 85 01    STA $01
PRG:01611: 20 AD C1 JSR $C1AD
PRG:01614: B0 DF    BCS $DF
PRG:01616: 48       PHA
PRG:01617: BD 84 05 LDA $0584
PRG:0161A: 85 00    STA $00
PRG:0161C: BD 94 05 LDA $0594
PRG:0161F: 85 01    STA $01
PRG:01621: 20 AD C1 JSR $C1AD
PRG:01624: 85 00    STA $00
PRG:01626: 68       PLA
PRG:01627: C5 00    CMP $00
PRG:01629: D0 CA    BNE $CA
PRG:0162B: 4C 8F 84 JMP $848F
PRG:0162E: AD 4C 05 LDA $054C
PRG:01631: 29 40    AND $40
PRG:01633: F0 C0    BEQ $C0
PRG:01635: BD C4 05 LDA $05C4
PRG:01638: 38       SEC
PRG:01639: E9 18    SBC $18
PRG:0163B: 4C D2 91 JMP $91D2
PRG:0163E: 20 49 C0 JSR $C049
PRG:01641: B0 B2    BCS $B2
PRG:01643: 20 28 C1 JSR $C128
PRG:01646: 90 05    BCC $05
PRG:01648: A9 06    LDA $06
PRG:0164A: 4C 27 92 JMP $9227
PRG:0164D: 20 AF 9B JSR $9BAF
PRG:01650: 29 07    AND $07
PRG:01652: A8       TAY
PRG:01653: BD 84 05 LDA $0584
PRG:01656: 18       CLC
PRG:01657: 79 6C 96 ADC $966C
PRG:0165A: 9D 84 05 STA $0584
PRG:0165D: BD 94 05 LDA $0594
PRG:01660: 79 74 96 ADC $9674
PRG:01663: 9D 94 05 STA $0594
PRG:01666: B9 7C 96 LDA $967C
PRG:01669: 4C CE 91 JMP $91CE
PRG:0166C: 00 FF    BRK $FF
PRG:0166E: 00 FF    BRK $FF
PRG:01670: 00 01    BRK $01
PRG:01672: 00 01    BRK $01
PRG:01674: 00 FF    BRK $FF
PRG:01676: 00 FF    BRK $FF
PRG:01678: 00 00    BRK $00
PRG:0167A: 00 00    BRK $00
PRG:0167C: 00 FF    BRK $FF
PRG:0167E: 00 01    BRK $01
PRG:01680: 00 01    BRK $01
PRG:01682: 00 FF    BRK $FF
PRG:01684: BC 54 05 LDY $0554
PRG:01687: 30 1D    BMI $1D
PRG:01689: 88       DEY
PRG:0168A: F0 7D    BEQ $7D
PRG:0168C: 88       DEY
PRG:0168D: F0 3D    BEQ $3D
PRG:0168F: 20 46 C0 JSR $C046
PRG:01692: B0 74    BCS $74
PRG:01694: 20 28 C1 JSR $C128
PRG:01697: B0 47    BCS $47
PRG:01699: DE 74 06 DEC $0674
PRG:0169C: D0 6A    BNE $6A
PRG:0169E: 20 29 95 JSR $9529
PRG:016A1: A9 17    LDA $17
PRG:016A3: 4C 4A 9D JMP $9D4A
PRG:016A6: 20 98 92 JSR $9298
PRG:016A9: BD C4 05 LDA $05C4
PRG:016AC: C9 F0    CMP $F0
PRG:016AE: 90 58    BCC $58
PRG:016B0: A9 C0    LDA $C0
PRG:016B2: 9D 84 05 STA $0584
PRG:016B5: 85 00    STA $00
PRG:016B7: A9 00    LDA $00
PRG:016B9: 9D 94 05 STA $0594
PRG:016BC: 85 01    STA $01
PRG:016BE: 20 AD C1 JSR $C1AD
PRG:016C1: 38       SEC
PRG:016C2: E9 18    SBC $18
PRG:016C4: 9D C4 05 STA $05C4
PRG:016C7: A9 00    LDA $00
PRG:016C9: 4C CA AA JMP $AACA
PRG:016CC: 20 46 C0 JSR $C046
PRG:016CF: B0 37    BCS $37
PRG:016D1: 20 28 C1 JSR $C128
PRG:016D4: B0 03    BCS $03
PRG:016D6: 4C 79 97 JMP $9779
PRG:016D9: 20 AF 9B JSR $9BAF
PRG:016DC: C9 02    CMP $02
PRG:016DE: 90 11    BCC $11
PRG:016E0: A5 00    LDA $00
PRG:016E2: 48       PHA
PRG:016E3: A9 07    LDA $07
PRG:016E5: 20 27 92 JSR $9227
PRG:016E8: 68       PLA
PRG:016E9: 30 1D    BMI $1D
PRG:016EB: A9 80    LDA $80
PRG:016ED: 9D 54 05 STA $0554
PRG:016F0: 60       RTS
PRG:016F1: A9 14    LDA $14
PRG:016F3: 9D 74 06 STA $0674
PRG:016F6: FE 54 05 INC $0554
PRG:016F9: A9 F8    LDA $F8
PRG:016FB: 9D E4 05 STA $05E4
PRG:016FE: A9 F4    LDA $F4
PRG:01700: 9D F4 05 STA $05F4
PRG:01703: A9 44    LDA $44
PRG:01705: 20 6D 9D JSR $9D6D
PRG:01708: 60       RTS
PRG:01709: BD 94 05 LDA $0594
PRG:0170C: 10 FA    BPL $FA
PRG:0170E: BD 84 05 LDA $0584
PRG:01711: C9 F8    CMP $F8
PRG:01713: B0 F3    BCS $F3
PRG:01715: FE 54 05 INC $0554
PRG:01718: BD C4 05 LDA $05C4
PRG:0171B: 38       SEC
PRG:0171C: E9 04    SBC $04
PRG:0171E: 9D C4 05 STA $05C4
PRG:01721: A9 0C    LDA $0C
PRG:01723: 9D A4 05 STA $05A4
PRG:01726: A9 16    LDA $16
PRG:01728: 4C 4A 9D JMP $9D4A
PRG:0172B: BC 54 05 LDY $0554
PRG:0172E: 88       DEY
PRG:0172F: F0 D8    BEQ $D8
PRG:01731: 88       DEY
PRG:01732: F0 03    BEQ $03
PRG:01734: 4C A6 96 JMP $96A6
PRG:01737: 20 46 C0 JSR $C046
PRG:0173A: B0 CC    BCS $CC
PRG:0173C: 20 28 C1 JSR $C128
PRG:0173F: B0 2C    BCS $2C
PRG:01741: AD 35 05 LDA $0535
PRG:01744: F0 0F    BEQ $0F
PRG:01746: BD 64 06 LDA $0664
PRG:01749: 30 0A    BMI $0A
PRG:0174B: 09 80    ORA $80
PRG:0174D: 9D 64 06 STA $0664
PRG:01750: A9 E0    LDA $E0
PRG:01752: 9D D4 05 STA $05D4
PRG:01755: 20 79 97 JSR $9779
PRG:01758: 90 42    BCC $42
PRG:0175A: BD 64 06 LDA $0664
PRG:0175D: 10 3D    BPL $3D
PRG:0175F: A0 16    LDY $16
PRG:01761: 29 7F    AND $7F
PRG:01763: 9D 64 06 STA $0664
PRG:01766: F0 01    BEQ $01
PRG:01768: C8       INY
PRG:01769: 98       TYA
PRG:0176A: 4C 4A 9D JMP $9D4A
PRG:0176D: 20 AF 9B JSR $9BAF
PRG:01770: 29 7F    AND $7F
PRG:01772: C9 02    CMP $02
PRG:01774: 90 83    BCC $83
PRG:01776: 4C E0 96 JMP $96E0
PRG:01779: 20 9B 84 JSR $849B
PRG:0177C: 20 5F C2 JSR $C25F
PRG:0177F: B0 17    BCS $17
PRG:01781: 48       PHA
PRG:01782: 20 9D 97 JSR $979D
PRG:01785: 68       PLA
PRG:01786: 38       SEC
PRG:01787: E9 0C    SBC $0C
PRG:01789: DD C4 05 CMP $05C4
PRG:0178C: B0 0D    BCS $0D
PRG:0178E: 9D C4 05 STA $05C4
PRG:01791: A9 00    LDA $00
PRG:01793: 9D D4 05 STA $05D4
PRG:01796: 38       SEC
PRG:01797: 60       RTS
PRG:01798: 20 9D 97 JSR $979D
PRG:0179B: 18       CLC
PRG:0179C: 60       RTS
PRG:0179D: 4C 0D 92 JMP $920D
PRG:017A0: FE 64 06 INC $0664
PRG:017A3: D0 06    BNE $06
PRG:017A5: FE 64 06 INC $0664
PRG:017A8: A9 D4    LDA $D4
PRG:017AA: CD A9 CC CMP $CCA9
PRG:017AD: 9D 74 06 STA $0674
PRG:017B0: A9 07    LDA $07
PRG:017B2: 85 A0    STA $A0
PRG:017B4: 20 46 AA JSR $AA46
PRG:017B7: BD 74 06 LDA $0674
PRG:017BA: 9D D4 05 STA $05D4
PRG:017BD: BC 64 06 LDY $0664
PRG:017C0: B9 C6 97 LDA $97C6
PRG:017C3: 4C 6D 9D JMP $9D6D
PRG:017C6: 97       .byte $97
PRG:017C7: A4 19    LDY $19
PRG:017C9: 1E A9 08 ASL $08A9
PRG:017CC: 4C 27 92 JMP $9227
PRG:017CF: 20 46 C0 JSR $C046
PRG:017D2: B0 2B    BCS $2B
PRG:017D4: 20 28 C1 JSR $C128
PRG:017D7: 90 11    BCC $11
PRG:017D9: DE 64 06 DEC $0664
PRG:017DC: 30 EC    BMI $EC
PRG:017DE: A9 03    LDA $03
PRG:017E0: 20 B8 89 JSR $89B8
PRG:017E3: BD D4 05 LDA $05D4
PRG:017E6: 30 D5    BMI $D5
PRG:017E8: 10 05    BPL $05
PRG:017EA: 20 0D 92 JSR $920D
PRG:017ED: D0 09    BNE $09
PRG:017EF: BC 64 06 LDY $0664
PRG:017F2: B9 C8 97 LDA $97C8
PRG:017F5: 4C 4A 9D JMP $9D4A
PRG:017F8: BD C4 05 LDA $05C4
PRG:017FB: C9 F0    CMP $F0
PRG:017FD: B0 B1    BCS $B1
PRG:017FF: 60       RTS
PRG:01800: A9 FB    LDA $FB
PRG:01802: 9D A4 05 STA $05A4
PRG:01805: 20 46 AA JSR $AA46
PRG:01808: A9 D2    LDA $D2
PRG:0180A: 9D D4 05 STA $05D4
PRG:0180D: A9 14    LDA $14
PRG:0180F: 4C 66 9D JMP $9D66
PRG:01812: A9 09    LDA $09
PRG:01814: 20 1C 92 JSR $921C
PRG:01817: B0 0D    BCS $0D
PRG:01819: 20 9B 84 JSR $849B
PRG:0181C: 20 0D 92 JSR $920D
PRG:0181F: BD C4 05 LDA $05C4
PRG:01822: C9 F0    CMP $F0
PRG:01824: B0 DF    BCS $DF
PRG:01826: 60       RTS
PRG:01827: BD C4 05 LDA $05C4
PRG:0182A: 38       SEC
PRG:0182B: E9 68    SBC $68
PRG:0182D: 4C D2 91 JMP $91D2
PRG:01830: A9 02    LDA $02
PRG:01832: 20 4B C0 JSR $C04B
PRG:01835: B0 32    BCS $32
PRG:01837: 4C 28 C1 JMP $C128
PRG:0183A: BD 54 05 LDA $0554
PRG:0183D: C9 03    CMP $03
PRG:0183F: F0 47    BEQ $47
PRG:01841: 20 30 98 JSR $9830
PRG:01844: 90 09    BCC $09
PRG:01846: 8A       TXA
PRG:01847: 48       PHA
PRG:01848: 20 B6 89 JSR $89B6
PRG:0184B: 68       PLA
PRG:0184C: AA       TAX
PRG:0184D: D0 2E    BNE $2E
PRG:0184F: BD 54 05 LDA $0554
PRG:01852: C9 02    CMP $02
PRG:01854: F0 14    BEQ $14
PRG:01856: BD 94 05 LDA $0594
PRG:01859: D0 0E    BNE $0E
PRG:0185B: BD 84 05 LDA $0584
PRG:0185E: 38       SEC
PRG:0185F: ED 84 05 SBC $0584
PRG:01862: C9 20    CMP $20
PRG:01864: B0 03    BCS $03
PRG:01866: FE 54 05 INC $0554
PRG:01869: 60       RTS
PRG:0186A: 20 0D 92 JSR $920D
PRG:0186D: 20 5F C2 JSR $C25F
PRG:01870: B0 F7    BCS $F7
PRG:01872: 38       SEC
PRG:01873: E9 0C    SBC $0C
PRG:01875: DD C4 05 CMP $05C4
PRG:01878: B0 EF    BCS $EF
PRG:0187A: 9D C4 05 STA $05C4
PRG:0187D: 20 26 95 JSR $9526
PRG:01880: 20 4A AD JSR $AD4A
PRG:01883: A9 9A    LDA $9A
PRG:01885: 4C 6D 9D JMP $9D6D
PRG:01888: 20 AF 9B JSR $9BAF
PRG:0188B: C9 14    CMP $14
PRG:0188D: 90 DA    BCC $DA
PRG:0188F: 4C 32 95 JMP $9532
PRG:01892: AD 4E 05 LDA $054E
PRG:01895: 48       PHA
PRG:01896: 4A       LSR
PRG:01897: 29 70    AND $70
PRG:01899: 85 00    STA $00
PRG:0189B: BD C4 05 LDA $05C4
PRG:0189E: 38       SEC
PRG:0189F: E5 00    SBC $00
PRG:018A1: 9D C4 05 STA $05C4
PRG:018A4: 68       PLA
PRG:018A5: 0A       ASL
PRG:018A6: 0A       ASL
PRG:018A7: 29 70    AND $70
PRG:018A9: A0 FE    LDY $FE
PRG:018AB: 38       SEC
PRG:018AC: E5 00    SBC $00
PRG:018AE: F0 1E    BEQ $1E
PRG:018B0: 10 07    BPL $07
PRG:018B2: A0 02    LDY $02
PRG:018B4: 49 FF    EOR $FF
PRG:018B6: 18       CLC
PRG:018B7: 69 01    ADC $01
PRG:018B9: 9D 64 06 STA $0664
PRG:018BC: 9D 74 06 STA $0674
PRG:018BF: 98       TYA
PRG:018C0: 9D D4 05 STA $05D4
PRG:018C3: AD 4E 05 LDA $054E
PRG:018C6: 4A       LSR
PRG:018C7: 29 01    AND $01
PRG:018C9: 09 02    ORA $02
PRG:018CB: 9D 54 05 STA $0554
PRG:018CE: 60       RTS
PRG:018CF: A9 0B    LDA $0B
PRG:018D1: 20 1C 92 JSR $921C
PRG:018D4: B0 F8    BCS $F8
PRG:018D6: BC 54 05 LDY $0554
PRG:018D9: 88       DEY
PRG:018DA: F0 F2    BEQ $F2
PRG:018DC: 88       DEY
PRG:018DD: F0 1A    BEQ $1A
PRG:018DF: 88       DEY
PRG:018E0: F0 1D    BEQ $1D
PRG:018E2: 88       DEY
PRG:018E3: F0 2B    BEQ $2B
PRG:018E5: DE 74 06 DEC $0674
PRG:018E8: D0 E4    BNE $E4
PRG:018EA: BD D4 05 LDA $05D4
PRG:018ED: 20 E2 93 JSR $93E2
PRG:018F0: BD 64 06 LDA $0664
PRG:018F3: 9D 74 06 STA $0674
PRG:018F6: 4C 23 95 JMP $9523
PRG:018F9: BD 94 05 LDA $0594
PRG:018FC: F0 F8    BEQ $F8
PRG:018FE: 60       RTS
PRG:018FF: BD 94 05 LDA $0594
PRG:01902: D0 CA    BNE $CA
PRG:01904: BD 84 05 LDA $0584
PRG:01907: 38       SEC
PRG:01908: ED 84 05 SBC $0584
PRG:0190B: C9 48    CMP $48
PRG:0190D: 90 E7    BCC $E7
PRG:0190F: 60       RTS
PRG:01910: 20 EA 83 JSR $83EA
PRG:01913: DE 74 06 DEC $0674
PRG:01916: D0 B6    BNE $B6
PRG:01918: FE 54 05 INC $0554
PRG:0191B: A9 05    LDA $05
PRG:0191D: 9D 74 06 STA $0674
PRG:01920: 60       RTS
PRG:01921: FC F8 F8 NOP $F8F8
PRG:01924: F8       SED
PRG:01925: FC 0B 7F NOP $7F0B
PRG:01928: 80 7F    NOP $7F
PRG:0192A: 0B       .byte $0B
PRG:0192B: 8D 3C 05 STA $053C
PRG:0192E: A9 45    LDA $45
PRG:01930: 85 87    STA $87
PRG:01932: 4C B4 8D JMP $8DB4
PRG:01935: AD 3C 05 LDA $053C
PRG:01938: 9D 64 06 STA $0664
PRG:0193B: A9 01    LDA $01
PRG:0193D: 9D 54 05 STA $0554
PRG:01940: A9 45    LDA $45
PRG:01942: 9D 64 05 STA $0564
PRG:01945: A9 0F    LDA $0F
PRG:01947: 85 A0    STA $A0
PRG:01949: A9 03    LDA $03
PRG:0194B: 9D 74 06 STA $0674
PRG:0194E: BC 54 05 LDY $0554
PRG:01951: B9 20 99 LDA $9920
PRG:01954: 9D E4 05 STA $05E4
PRG:01957: 9D F4 05 STA $05F4
PRG:0195A: B9 25 99 LDA $9925
PRG:0195D: 4C 6D 9D JMP $9D6D
PRG:01960: BD 54 05 LDA $0554
PRG:01963: C9 06    CMP $06
PRG:01965: B0 6B    BCS $6B
PRG:01967: DE 74 06 DEC $0674
PRG:0196A: D0 66    BNE $66
PRG:0196C: FE 54 05 INC $0554
PRG:0196F: BC 54 05 LDY $0554
PRG:01972: C0 06    CPY $06
PRG:01974: 90 D3    BCC $D3
PRG:01976: BD 64 06 LDA $0664
PRG:01979: C9 10    CMP $10
PRG:0197B: 90 34    BCC $34
PRG:0197D: 29 7F    AND $7F
PRG:0197F: A8       TAY
PRG:01980: F0 4D    BEQ $4D
PRG:01982: 88       DEY
PRG:01983: F0 1F    BEQ $1F
PRG:01985: A9 39    LDA $39
PRG:01987: 9D 64 05 STA $0564
PRG:0198A: BD C4 05 LDA $05C4
PRG:0198D: 38       SEC
PRG:0198E: E9 40    SBC $40
PRG:01990: 9D C4 05 STA $05C4
PRG:01993: 20 29 95 JSR $9529
PRG:01996: 20 47 AD JSR $AD47
PRG:01999: A9 A7    LDA $A7
PRG:0199B: 20 6D 9D JSR $9D6D
PRG:0199E: A9 00    LDA $00
PRG:019A0: 9D 74 06 STA $0674
PRG:019A3: 60       RTS
PRG:019A4: A9 01    LDA $01
PRG:019A6: 8D 39 05 STA $0539
PRG:019A9: A9 4D    LDA $4D
PRG:019AB: 20 6D 9D JSR $9D6D
PRG:019AE: 4C E2 89 JMP $89E2
PRG:019B1: BD 64 06 LDA $0664
PRG:019B4: 20 B8 89 JSR $89B8
PRG:019B7: BD 64 06 LDA $0664
PRG:019BA: 18       CLC
PRG:019BB: 69 2E    ADC $2E
PRG:019BD: 20 6D 9D JSR $9D6D
PRG:019C0: A9 2B    LDA $2B
PRG:019C2: 9D 64 05 STA $0564
PRG:019C5: A9 FD    LDA $FD
PRG:019C7: 9D D4 05 STA $05D4
PRG:019CA: A9 1E    LDA $1E
PRG:019CC: 4C 4C AD JMP $AD4C
PRG:019CF: 4C 32 95 JMP $9532
PRG:019D2: 60       RTS
PRG:019D3: 20 EA 83 JSR $83EA
PRG:019D6: DE 64 06 DEC $0664
PRG:019D9: D0 F7    BNE $F7
PRG:019DB: 4C 32 95 JMP $9532
PRG:019DE: A5 90    LDA $90
PRG:019E0: F0 F0    BEQ $F0
PRG:019E2: A5 3B    LDA $3B
PRG:019E4: C9 41    CMP $41
PRG:019E6: D0 EA    BNE $EA
PRG:019E8: A5 06    LDA $06
PRG:019EA: 29 7F    AND $7F
PRG:019EC: 85 00    STA $00
PRG:019EE: A9 E8    LDA $E8
PRG:019F0: 38       SEC
PRG:019F1: E5 00    SBC $00
PRG:019F3: 85 84    STA $84
PRG:019F5: A9 00    LDA $00
PRG:019F7: 85 85    STA $85
PRG:019F9: A9 A1    LDA $A1
PRG:019FB: 85 86    STA $86
PRG:019FD: A9 43    LDA $43
PRG:019FF: 85 87    STA $87
PRG:01A01: 20 B4 8D JSR $8DB4
PRG:01A04: A9 00    LDA $00
PRG:01A06: 85 90    STA $90
PRG:01A08: 4C A6 9B JMP $9BA6
PRG:01A0B: 02       .byte $02
PRG:01A0C: 00 02    BRK $02
PRG:01A0E: 03       .byte $03
PRG:01A0F: FA       NOP
PRG:01A10: 03       .byte $03
PRG:01A11: 01 FA    ORA $FA
PRG:01A13: 01 00    ORA $00
PRG:01A15: 02       .byte $02
PRG:01A16: 00 02    BRK $02
PRG:01A18: 03       .byte $03
PRG:01A19: FA       NOP
PRG:01A1A: 03       .byte $03
PRG:01A1B: 01 06    ORA $06
PRG:01A1D: 01 00    ORA $00
PRG:01A1F: 01 FA    ORA $FA
PRG:01A21: 00 01    BRK $01
PRG:01A23: FA       NOP
PRG:01A24: 01 00    ORA $00
PRG:01A26: 01 06    ORA $06
PRG:01A28: 00 01    BRK $01
PRG:01A2A: 06 01    ASL $01
PRG:01A2C: 00 0E    BRK $0E
PRG:01A2E: 0C 0A 0A NOP $0A0A
PRG:01A31: 0A       ASL
PRG:01A32: 08       PHP
PRG:01A33: 08       PHP
PRG:01A34: 06 1A    ASL $1A
PRG:01A36: 1A       NOP
PRG:01A37: 14 14    NOP $14
PRG:01A39: 16 16    ASL $16
PRG:01A3B: 14 14    NOP $14
PRG:01A3D: 0A       ASL
PRG:01A3E: 0A       ASL
PRG:01A3F: 08       PHP
PRG:01A40: 08       PHP
PRG:01A41: 0C 0C 0A NOP $0A0C
PRG:01A44: 0A       ASL
PRG:01A45: 08       PHP
PRG:01A46: 07       .byte $07
PRG:01A47: 07       .byte $07
PRG:01A48: 07       .byte $07
PRG:01A49: 07       .byte $07
PRG:01A4A: 07       .byte $07
PRG:01A4B: 06 06    ASL $06
PRG:01A4D: 86 97    STX $97
PRG:01A4F: A9 01    LDA $01
PRG:01A51: 85 91    STA $91
PRG:01A53: A9 40    LDA $40
PRG:01A55: 85 96    STA $96
PRG:01A57: A4 37    LDY $37
PRG:01A59: B9 45 9A LDA $9A45
PRG:01A5C: 85 94    STA $94
PRG:01A5E: A5 37    LDA $37
PRG:01A60: 0A       ASL
PRG:01A61: 69 08    ADC $08
PRG:01A63: 8D 37 05 STA $0537
PRG:01A66: BD 84 05 LDA $0584
PRG:01A69: 85 84    STA $84
PRG:01A6B: BD 94 05 LDA $0594
PRG:01A6E: 85 85    STA $85
PRG:01A70: BD C4 05 LDA $05C4
PRG:01A73: 38       SEC
PRG:01A74: E9 1C    SBC $1C
PRG:01A76: 85 86    STA $86
PRG:01A78: A9 46    LDA $46
PRG:01A7A: 85 87    STA $87
PRG:01A7C: 4C B4 8D JMP $8DB4
PRG:01A7F: E6 91    INC $91
PRG:01A81: 20 46 AA JSR $AA46
PRG:01A84: A5 37    LDA $37
PRG:01A86: 18       CLC
PRG:01A87: 69 25    ADC $25
PRG:01A89: 20 6D 9D JSR $9D6D
PRG:01A8C: A6 97    LDX $97
PRG:01A8E: BD 84 05 LDA $0584
PRG:01A91: 85 84    STA $84
PRG:01A93: BD 94 05 LDA $0594
PRG:01A96: 85 85    STA $85
PRG:01A98: BD C4 05 LDA $05C4
PRG:01A9B: 38       SEC
PRG:01A9C: E9 28    SBC $28
PRG:01A9E: 85 86    STA $86
PRG:01AA0: A9 0C    LDA $0C
PRG:01AA2: 20 2B 99 JSR $992B
PRG:01AA5: A6 97    LDX $97
PRG:01AA7: A9 06    LDA $06
PRG:01AA9: 9D A4 05 STA $05A4
PRG:01AAC: A9 B0    LDA $B0
PRG:01AAE: 9D D4 05 STA $05D4
PRG:01AB1: 4C A6 9B JMP $9BA6
PRG:01AB4: A6 98    LDX $98
PRG:01AB6: 20 9E 84 JSR $849E
PRG:01AB9: 20 0D 92 JSR $920D
PRG:01ABC: BD C4 05 LDA $05C4
PRG:01ABF: C9 F0    CMP $F0
PRG:01AC1: 90 4C    BCC $4C
PRG:01AC3: A5 37    LDA $37
PRG:01AC5: C9 07    CMP $07
PRG:01AC7: 90 B6    BCC $B6
PRG:01AC9: E6 91    INC $91
PRG:01ACB: E6 91    INC $91
PRG:01ACD: 4C 32 95 JMP $9532
PRG:01AD0: FE 74 06 INC $0674
PRG:01AD3: BD 74 06 LDA $0674
PRG:01AD6: C9 30    CMP $30
PRG:01AD8: 90 12    BCC $12
PRG:01ADA: E6 91    INC $91
PRG:01ADC: 20 4A AD JSR $AD4A
PRG:01ADF: 9D 74 06 STA $0674
PRG:01AE2: 85 95    STA $95
PRG:01AE4: 85 93    STA $93
PRG:01AE6: A9 14    LDA $14
PRG:01AE8: 85 92    STA $92
PRG:01AEA: A9 04    LDA $04
PRG:01AEC: 29 04    AND $04
PRG:01AEE: 4A       LSR
PRG:01AEF: 9D 84 06 STA $0684
PRG:01AF2: A4 98    LDY $98
PRG:01AF4: 4A       LSR
PRG:01AF5: 99 84 06 STA $0684
PRG:01AF8: A4 98    LDY $98
PRG:01AFA: BD 84 05 LDA $0584
PRG:01AFD: 99 84 05 STA $0584
PRG:01B00: BD 94 05 LDA $0594
PRG:01B03: 99 94 05 STA $0594
PRG:01B06: BD C4 05 LDA $05C4
PRG:01B09: 38       SEC
PRG:01B0A: E9 28    SBC $28
PRG:01B0C: 99 C4 05 STA $05C4
PRG:01B0F: 60       RTS
PRG:01B10: A4 91    LDY $91
PRG:01B12: 88       DEY
PRG:01B13: F0 BB    BEQ $BB
PRG:01B15: 88       DEY
PRG:01B16: F0 75    BEQ $75
PRG:01B18: 88       DEY
PRG:01B19: F0 99    BEQ $99
PRG:01B1B: 88       DEY
PRG:01B1C: F0 17    BEQ $17
PRG:01B1E: 88       DEY
PRG:01B1F: F0 11    BEQ $11
PRG:01B21: 20 10 92 JSR $9210
PRG:01B24: BD C4 05 LDA $05C4
PRG:01B27: C9 F0    CMP $F0
PRG:01B29: 90 06    BCC $06
PRG:01B2B: A9 01    LDA $01
PRG:01B2D: 85 45    STA $45
PRG:01B2F: 85 46    STA $46
PRG:01B31: 60       RTS
PRG:01B32: 4C ED 9B JMP $9BED
PRG:01B35: 20 9E 84 JSR $849E
PRG:01B38: BD 94 05 LDA $0594
PRG:01B3B: D0 06    BNE $06
PRG:01B3D: 20 13 92 JSR $9213
PRG:01B40: 4C F8 9A JMP $9AF8
PRG:01B43: 20 32 95 JSR $9532
PRG:01B46: A6 98    LDX $98
PRG:01B48: 20 32 95 JSR $9532
PRG:01B4B: A5 72    LDA $72
PRG:01B4D: D0 E2    BNE $E2
PRG:01B4F: A9 0D    LDA $0D
PRG:01B51: 85 AB    STA $AB
PRG:01B53: A9 01    LDA $01
PRG:01B55: 85 7A    STA $7A
PRG:01B57: A9 06    LDA $06
PRG:01B59: 85 8E    STA $8E
PRG:01B5B: AD 49 01 LDA $0149
PRG:01B5E: AE 4A 01 LDX $014A
PRG:01B61: AC 4B 01 LDY $014B
PRG:01B64: 85 12    STA $12
PRG:01B66: 20 C9 9B JSR $9BC9
PRG:01B69: A9 60    LDA $60
PRG:01B6B: 38       SEC
PRG:01B6C: E5 06    SBC $06
PRG:01B6E: 85 84    STA $84
PRG:01B70: A9 20    LDA $20
PRG:01B72: E5 3A    SBC $3A
PRG:01B74: 85 85    STA $85
PRG:01B76: E6 85    INC $85
PRG:01B78: A9 AF    LDA $AF
PRG:01B7A: 85 86    STA $86
PRG:01B7C: A9 3F    LDA $3F
PRG:01B7E: 85 87    STA $87
PRG:01B80: A9 04    LDA $04
PRG:01B82: 8D 4E 05 STA $054E
PRG:01B85: A9 00    LDA $00
PRG:01B87: 8D 4F 05 STA $054F
PRG:01B8A: 4C B4 8D JMP $8DB4
PRG:01B8D: 20 ED 9B JSR $9BED
PRG:01B90: A6 97    LDX $97
PRG:01B92: 20 F8 9A JSR $9AF8
PRG:01B95: A6 98    LDX $98
PRG:01B97: 20 13 C1 JSR $C113
PRG:01B9A: B0 1A    BCS $1A
PRG:01B9C: BD 74 06 LDA $0674
PRG:01B9F: F0 90    BEQ $90
PRG:01BA1: DE 74 06 DEC $0674
PRG:01BA4: D0 8B    BNE $8B
PRG:01BA6: A9 26    LDA $26
PRG:01BA8: A2 06    LDX $06
PRG:01BAA: A0 36    LDY $36
PRG:01BAC: 4C C9 9B JMP $9BC9
PRG:01BAF: FE 64 06 INC $0664
PRG:01BB2: BD 64 06 LDA $0664
PRG:01BB5: 60       RTS
PRG:01BB6: 20 AF 9B JSR $9BAF
PRG:01BB9: CD 37 05 CMP $0537
PRG:01BBC: B0 19    BCS $19
PRG:01BBE: A9 10    LDA $10
PRG:01BC0: 9D 74 06 STA $0674
PRG:01BC3: A9 15    LDA $15
PRG:01BC5: A2 05    LDX $05
PRG:01BC7: A0 35    LDY $35
PRG:01BC9: 8D 5D 01 STA $015D
PRG:01BCC: 8E 5E 01 STX $015E
PRG:01BCF: 8C 5F 01 STY $015F
PRG:01BD2: A9 01    LDA $01
PRG:01BD4: 85 13    STA $13
PRG:01BD6: 60       RTS
PRG:01BD7: E6 91    INC $91
PRG:01BD9: A9 FE    LDA $FE
PRG:01BDB: 9D A4 05 STA $05A4
PRG:01BDE: A9 F6    LDA $F6
PRG:01BE0: 4C 33 A9 JMP $A933
PRG:01BE3: 20 4D 9C JSR $9C4D
PRG:01BE6: A5 91    LDA $91
PRG:01BE8: C9 06    CMP $06
PRG:01BEA: 90 0F    BCC $0F
PRG:01BEC: 60       RTS
PRG:01BED: A5 91    LDA $91
PRG:01BEF: C9 04    CMP $04
PRG:01BF1: B0 03    BCS $03
PRG:01BF3: 20 1B C1 JSR $C11B
PRG:01BF6: DE 74 06 DEC $0674
PRG:01BF9: 10 F1    BPL $F1
PRG:01BFB: A4 92    LDY $92
PRG:01BFD: B9 0B 9A LDA $9A0B
PRG:01C00: F0 E1    BEQ $E1
PRG:01C02: 0A       ASL
PRG:01C03: 0A       ASL
PRG:01C04: 0A       ASL
PRG:01C05: 05 37    ORA $37
PRG:01C07: A8       TAY
PRG:01C08: B9 25 9A LDA $9A25
PRG:01C0B: 9D 74 06 STA $0674
PRG:01C0E: A4 92    LDY $92
PRG:01C10: C8       INY
PRG:01C11: B9 0B 9A LDA $9A0B
PRG:01C14: 9D A4 05 STA $05A4
PRG:01C17: C8       INY
PRG:01C18: B9 0B 9A LDA $9A0B
PRG:01C1B: 9D 64 06 STA $0664
PRG:01C1E: C8       INY
PRG:01C1F: 84 92    STY $92
PRG:01C21: A8       TAY
PRG:01C22: B9 46 9D LDA $9D46
PRG:01C25: 9D 44 06 STA $0644
PRG:01C28: 20 9E 84 JSR $849E
PRG:01C2B: BD 64 06 LDA $0664
PRG:01C2E: C9 02    CMP $02
PRG:01C30: D0 BA    BNE $BA
PRG:01C32: A9 44    LDA $44
PRG:01C34: 85 87    STA $87
PRG:01C36: BD 84 05 LDA $0584
PRG:01C39: 18       CLC
PRG:01C3A: 69 10    ADC $10
PRG:01C3C: 85 84    STA $84
PRG:01C3E: A9 00    LDA $00
PRG:01C40: 85 85    STA $85
PRG:01C42: BD C4 05 LDA $05C4
PRG:01C45: 38       SEC
PRG:01C46: E9 10    SBC $10
PRG:01C48: 85 86    STA $86
PRG:01C4A: 4C B4 8D JMP $8DB4
PRG:01C4D: A5 72    LDA $72
PRG:01C4F: D0 1D    BNE $1D
PRG:01C51: A5 91    LDA $91
PRG:01C53: C9 04    CMP $04
PRG:01C55: B0 17    BCS $17
PRG:01C57: E6 93    INC $93
PRG:01C59: A5 93    LDA $93
PRG:01C5B: C5 94    CMP $94
PRG:01C5D: 90 0F    BCC $0F
PRG:01C5F: A9 00    LDA $00
PRG:01C61: 85 93    STA $93
PRG:01C63: A9 00    LDA $00
PRG:01C65: A4 95    LDY $95
PRG:01C67: 10 02    BPL $02
PRG:01C69: A9 0A    LDA $0A
PRG:01C6B: 85 92    STA $92
PRG:01C6D: 60       RTS
PRG:01C6E: 20 E7 95 JSR $95E7
PRG:01C71: 20 91 C2 JSR $C291
PRG:01C74: 90 10    BCC $10
PRG:01C76: A5 91    LDA $91
PRG:01C78: C9 04    CMP $04
PRG:01C7A: 90 31    BCC $31
PRG:01C7C: E6 91    INC $91
PRG:01C7E: 20 5E A9 JSR $A95E
PRG:01C81: A9 01    LDA $01
PRG:01C83: 85 12    STA $12
PRG:01C85: 60       RTS
PRG:01C86: A5 91    LDA $91
PRG:01C88: C9 04    CMP $04
PRG:01C8A: B0 18    BCS $18
PRG:01C8C: BD 84 05 LDA $0584
PRG:01C8F: C9 E0    CMP $E0
PRG:01C91: B0 1A    BCS $1A
PRG:01C93: C5 96    CMP $96
PRG:01C95: B0 09    BCS $09
PRG:01C97: A5 96    LDA $96
PRG:01C99: 38       SEC
PRG:01C9A: E9 04    SBC $04
PRG:01C9C: 85 96    STA $96
PRG:01C9E: D0 04    BNE $04
PRG:01CA0: A5 95    LDA $95
PRG:01CA2: 10 09    BPL $09
PRG:01CA4: A9 1B    LDA $1B
PRG:01CA6: 85 92    STA $92
PRG:01CA8: A9 FF    LDA $FF
PRG:01CAA: 85 95    STA $95
PRG:01CAC: 60       RTS
PRG:01CAD: A9 14    LDA $14
PRG:01CAF: 85 92    STA $92
PRG:01CB1: A9 00    LDA $00
PRG:01CB3: 85 95    STA $95
PRG:01CB5: 60       RTS
PRG:01CB6: 86 98    STX $98
PRG:01CB8: BD 64 05 LDA $0564
PRG:01CBB: 09 80    ORA $80
PRG:01CBD: 9D 64 05 STA $0564
PRG:01CC0: A5 37    LDA $37
PRG:01CC2: 18       CLC
PRG:01CC3: 69 24    ADC $24
PRG:01CC5: 4C 6D 9D JMP $9D6D
PRG:01CC8: BD 74 06 LDA $0674
PRG:01CCB: 0A       ASL
PRG:01CCC: A8       TAY
PRG:01CCD: BD 84 05 LDA $0584
PRG:01CD0: 79 32 9D ADC $9D32
PRG:01CD3: 9D 84 05 STA $0584
PRG:01CD6: BD 94 05 LDA $0594
PRG:01CD9: 79 33 9D ADC $9D33
PRG:01CDC: 9D 94 05 STA $0594
PRG:01CDF: BC 74 06 LDY $0674
PRG:01CE2: B9 3A 9D LDA $9D3A
PRG:01CE5: 20 CE 91 JSR $91CE
PRG:01CE8: C8       INY
PRG:01CE9: 98       TYA
PRG:01CEA: 29 03    AND $03
PRG:01CEC: 9D 74 06 STA $0674
PRG:01CEF: BC 54 05 LDY $0554
PRG:01CF2: 88       DEY
PRG:01CF3: F0 1D    BEQ $1D
PRG:01CF5: 20 49 C0 JSR $C049
PRG:01CF8: 20 95 84 JSR $8495
PRG:01CFB: 20 0D 92 JSR $920D
PRG:01CFE: 20 5F C2 JSR $C25F
PRG:01D01: B0 B2    BCS $B2
PRG:01D03: E9 07    SBC $07
PRG:01D05: DD C4 05 CMP $05C4
PRG:01D08: B0 AB    BCS $AB
PRG:01D0A: 9D C4 05 STA $05C4
PRG:01D0D: A9 E8    LDA $E8
PRG:01D0F: 4C 33 A9 JMP $A933
PRG:01D12: 20 AF 9B JSR $9BAF
PRG:01D15: C9 14    CMP $14
PRG:01D17: 90 9C    BCC $9C
PRG:01D19: A9 D8    LDA $D8
PRG:01D1B: 9D A4 05 STA $05A4
PRG:01D1E: A4 37    LDY $37
PRG:01D20: B9 3E 9D LDA $9D3E
PRG:01D23: 9D D4 05 STA $05D4
PRG:01D26: FE 54 05 INC $0554
PRG:01D29: A9 0B    LDA $0B
PRG:01D2B: 85 A0    STA $A0
PRG:01D2D: A9 7A    LDA $7A
PRG:01D2F: 4C 6D 9D JMP $9D6D
PRG:01D32: 01 00    ORA $00
PRG:01D34: 01 00    ORA $00
PRG:01D36: FF       .byte $FF
PRG:01D37: FF       .byte $FF
PRG:01D38: FF       .byte $FF
PRG:01D39: FF       .byte $FF
PRG:01D3A: 01 FF    ORA $FF
PRG:01D3C: FF       .byte $FF
PRG:01D3D: 01 EC    ORA $EC
PRG:01D3F: ED ED EE SBC $EEED
PRG:01D42: EF       .byte $EF
PRG:01D43: EF       .byte $EF
PRG:01D44: F0 F0    BEQ $F0
PRG:01D46: 59 69 79 EOR $7969
PRG:01D49: 86 0A    STX $0A
PRG:01D4B: A8       TAY
PRG:01D4C: A9 00    LDA $00
PRG:01D4E: 9D 24 06 STA $0624
PRG:01D51: A9 FC    LDA $FC
PRG:01D53: 9D 34 06 STA $0634
PRG:01D56: B9 E0 9D LDA $9DE0
PRG:01D59: 9D 44 06 STA $0644
PRG:01D5C: B9 E1 9D LDA $9DE1
PRG:01D5F: 9D 54 06 STA $0654
PRG:01D62: A9 03    LDA $03
PRG:01D64: D0 0C    BNE $0C
PRG:01D66: 20 4A 9D JSR $9D4A
PRG:01D69: FE 84 06 INC $0684
PRG:01D6C: 60       RTS
PRG:01D6D: 9D 44 06 STA $0644
PRG:01D70: A9 01    LDA $01
PRG:01D72: 9D 84 06 STA $0684
PRG:01D75: 60       RTS
PRG:01D76: 85 00    STA $00
PRG:01D78: 20 10 83 JSR $8310
PRG:01D7B: BD 84 05 LDA $0584
PRG:01D7E: 18       CLC
PRG:01D7F: 65 00    ADC $00
PRG:01D81: 85 5A    STA $5A
PRG:01D83: BD 94 05 LDA $0594
PRG:01D86: 65 01    ADC $01
PRG:01D88: 85 59    STA $59
PRG:01D8A: 60       RTS
PRG:01D8B: 18       CLC
PRG:01D8C: 7D C4 05 ADC $05C4
PRG:01D8F: 85 5D    STA $5D
PRG:01D91: 60       RTS
PRG:01D92: BD 44 06 LDA $0644
PRG:01D95: 85 02    STA $02
PRG:01D97: BD 54 06 LDA $0654
PRG:01D9A: 85 03    STA $03
PRG:01D9C: BC 34 06 LDY $0634
PRG:01D9F: BD 24 06 LDA $0624
PRG:01DA2: F0 15    BEQ $15
PRG:01DA4: 30 03    BMI $03
PRG:01DA6: DE 24 06 DEC $0624
PRG:01DA9: C8       INY
PRG:01DAA: B1 02    LDA $02
PRG:01DAC: 20 76 9D JSR $9D76
PRG:01DAF: C8       INY
PRG:01DB0: B1 02    LDA $02
PRG:01DB2: 20 8B 9D JSR $9D8B
PRG:01DB5: C8       INY
PRG:01DB6: B1 02    LDA $02
PRG:01DB8: 60       RTS
PRG:01DB9: 98       TYA
PRG:01DBA: 18       CLC
PRG:01DBB: 69 04    ADC $04
PRG:01DBD: A8       TAY
PRG:01DBE: 9D 34 06 STA $0634
PRG:01DC1: B1 02    LDA $02
PRG:01DC3: 30 05    BMI $05
PRG:01DC5: 9D 24 06 STA $0624
PRG:01DC8: 10 DF    BPL $DF
PRG:01DCA: C9 80    CMP $80
PRG:01DCC: F0 07    BEQ $07
PRG:01DCE: C9 81    CMP $81
PRG:01DD0: F0 0A    BEQ $0A
PRG:01DD2: 4C 32 95 JMP $9532
PRG:01DD5: A9 FF    LDA $FF
PRG:01DD7: 9D 24 06 STA $0624
PRG:01DDA: D0 CD    BNE $CD
PRG:01DDC: A9 00    LDA $00
PRG:01DDE: F0 DD    BEQ $DD
PRG:01DE0: 20 9E 29 JSR $299E
PRG:01DE3: 9E       .byte $9E
PRG:01DE4: 32       .byte $32
PRG:01DE5: 9E       .byte $9E
PRG:01DE6: 43       .byte $43
PRG:01DE7: 9E       .byte $9E
PRG:01DE8: 54 9E    NOP $9E
PRG:01DEA: 65 9E    ADC $9E
PRG:01DEC: 76 9E    ROR $9E
PRG:01DEE: 7A       NOP
PRG:01DEF: 9E       .byte $9E
PRG:01DF0: 7E 9E 82 ROR $829E
PRG:01DF3: 9E       .byte $9E
PRG:01DF4: 86 9E    STX $9E
PRG:01DF6: 8F       .byte $8F
PRG:01DF7: 9E       .byte $9E
PRG:01DF8: 98       TYA
PRG:01DF9: 9E       .byte $9E
PRG:01DFA: 9C       .byte $9C
PRG:01DFB: 9E       .byte $9E
PRG:01DFC: A5 9E    LDA $9E
PRG:01DFE: AD 9E B1 LDA $B19E
PRG:01E01: 9E       .byte $9E
PRG:01E02: B5 9E    LDA $9E
PRG:01E04: C6 9E    DEC $9E
PRG:01E06: F2       .byte $F2
PRG:01E07: 9E       .byte $9E
PRG:01E08: 30 9F    BMI $9F
PRG:01E0A: 40       RTI
PRG:01E0B: 9F       .byte $9F
PRG:01E0C: 4D 9F 56 EOR $569F
PRG:01E0F: 9F       .byte $9F
PRG:01E10: FB       .byte $FB
PRG:01E11: 9E       .byte $9E
PRG:01E12: 0D 9F 70 ORA $709F
PRG:01E15: 9F       .byte $9F
PRG:01E16: 70 9F    BVS $9F
PRG:01E18: 04 9F    NOP $9F
PRG:01E1A: A9 9E    LDA $9E
PRG:01E1C: 16 9F    ASL $9F
PRG:01E1E: 79 9F 08 ADC $089F
PRG:01E21: F8       SED
PRG:01E22: F0 B0    BEQ $B0
PRG:01E24: 08       PHP
PRG:01E25: F8       SED
PRG:01E26: F0 B1    BEQ $B1
PRG:01E28: 81 08    STA $08
PRG:01E2A: F8       SED
PRG:01E2B: F0 D8    BEQ $D8
PRG:01E2D: 08       PHP
PRG:01E2E: F8       SED
PRG:01E2F: F0 D9    BEQ $D9
PRG:01E31: 81 04    STA $04
PRG:01E33: F8       SED
PRG:01E34: F0 B4    BEQ $B4
PRG:01E36: 04 F8    NOP $F8
PRG:01E38: F0 B5    BEQ $B5
PRG:01E3A: 04 F8    NOP $F8
PRG:01E3C: F0 B6    BEQ $B6
PRG:01E3E: 04 F8    NOP $F8
PRG:01E40: F0 B7    BEQ $B7
PRG:01E42: 81 04    STA $04
PRG:01E44: F8       SED
PRG:01E45: F0 DC    BEQ $DC
PRG:01E47: 04 F0    NOP $F0
PRG:01E49: F0 DD    BEQ $DD
PRG:01E4B: 04 F8    NOP $F8
PRG:01E4D: F0 DE    BEQ $DE
PRG:01E4F: 04 F0    NOP $F0
PRG:01E51: F0 DF    BEQ $DF
PRG:01E53: 81 01    STA $01
PRG:01E55: F8       SED
PRG:01E56: F0 B4    BEQ $B4
PRG:01E58: 01 F8    ORA $F8
PRG:01E5A: F0 B5    BEQ $B5
PRG:01E5C: 01 F8    ORA $F8
PRG:01E5E: F0 B6    BEQ $B6
PRG:01E60: 01 F8    ORA $F8
PRG:01E62: F0 B7    BEQ $B7
PRG:01E64: 81 01    STA $01
PRG:01E66: F8       SED
PRG:01E67: F0 DC    BEQ $DC
PRG:01E69: 01 F0    ORA $F0
PRG:01E6B: F0 DD    BEQ $DD
PRG:01E6D: 01 F8    ORA $F8
PRG:01E6F: F0 DE    BEQ $DE
PRG:01E71: 01 F0    ORA $F0
PRG:01E73: F0 DF    BEQ $DF
PRG:01E75: 81 80    STA $80
PRG:01E77: F8       SED
PRG:01E78: F0 D0    BEQ $D0
PRG:01E7A: 80 F0    NOP $F0
PRG:01E7C: F0 F8    BEQ $F8
PRG:01E7E: 80 F0    NOP $F0
PRG:01E80: F0 B2    BEQ $B2
PRG:01E82: 80 F8    NOP $F8
PRG:01E84: F0 DA    BEQ $DA
PRG:01E86: 06 F4    ASL $F4
PRG:01E88: F0 B8    BEQ $B8
PRG:01E8A: 06 F4    ASL $F4
PRG:01E8C: F0 B9    BEQ $B9
PRG:01E8E: 81 06    STA $06
PRG:01E90: F4 F0    NOP $F0
PRG:01E92: BB       .byte $BB
PRG:01E93: 06 F4    ASL $F4
PRG:01E95: F0 BC    BEQ $BC
PRG:01E97: 81 80    STA $80
PRG:01E99: F4 F0    NOP $F0
PRG:01E9B: BA       TSX
PRG:01E9C: 06 F0    ASL $F0
PRG:01E9E: F4 BD    NOP $BD
PRG:01EA0: 06 F0    ASL $F0
PRG:01EA2: F4 E5    NOP $E5
PRG:01EA4: 81 80    STA $80
PRG:01EA6: F0 F0    BEQ $F0
PRG:01EA8: A0 80    LDY $80
PRG:01EAA: F0 F0    BEQ $F0
PRG:01EAC: A3       .byte $A3
PRG:01EAD: 80 F4    NOP $F4
PRG:01EAF: F0 B3    BEQ $B3
PRG:01EB1: 80 F4    NOP $F4
PRG:01EB3: F0 DB    BEQ $DB
PRG:01EB5: 02       .byte $02
PRG:01EB6: F8       SED
PRG:01EB7: F8       SED
PRG:01EB8: 66 02    ROR $02
PRG:01EBA: F8       SED
PRG:01EBB: F8       SED
PRG:01EBC: 67       .byte $67
PRG:01EBD: 02       .byte $02
PRG:01EBE: F8       SED
PRG:01EBF: F8       SED
PRG:01EC0: 68       PLA
PRG:01EC1: 02       .byte $02
PRG:01EC2: F8       SED
PRG:01EC3: F8       SED
PRG:01EC4: 69 81    ADC $81
PRG:01EC6: 02       .byte $02
PRG:01EC7: F8       SED
PRG:01EC8: F8       SED
PRG:01EC9: 67       .byte $67
PRG:01ECA: 02       .byte $02
PRG:01ECB: F8       SED
PRG:01ECC: F8       SED
PRG:01ECD: 66 02    ROR $02
PRG:01ECF: F8       SED
PRG:01ED0: F8       SED
PRG:01ED1: 69 02    ADC $02
PRG:01ED3: F8       SED
PRG:01ED4: F8       SED
PRG:01ED5: 68       PLA
PRG:01ED6: 81 02    STA $02
PRG:01ED8: F8       SED
PRG:01ED9: F4 90    NOP $90
PRG:01EDB: 02       .byte $02
PRG:01EDC: F8       SED
PRG:01EDD: F4 91    NOP $91
PRG:01EDF: 81 20    STA $20
PRG:01EE1: F4 F0    NOP $F0
PRG:01EE3: 40       RTI
PRG:01EE4: 20 F4 F8 JSR $F8F4
PRG:01EE7: 41 81    EOR $81
PRG:01EE9: 02       .byte $02
PRG:01EEA: F8       SED
PRG:01EEB: F8       SED
PRG:01EEC: 54 02    NOP $02
PRG:01EEE: F8       SED
PRG:01EEF: F8       SED
PRG:01EF0: 55 81    EOR $81
PRG:01EF2: 10 F8    BPL $F8
PRG:01EF4: F8       SED
PRG:01EF5: 56 10    LSR $10
PRG:01EF7: F8       SED
PRG:01EF8: F8       SED
PRG:01EF9: 57       .byte $57
PRG:01EFA: 81 10    STA $10
PRG:01EFC: F8       SED
PRG:01EFD: F8       SED
PRG:01EFE: CD 10 F8 CMP $F810
PRG:01F01: F8       SED
PRG:01F02: CE 81 10 DEC $1081
PRG:01F05: F8       SED
PRG:01F06: F8       SED
PRG:01F07: F5 10    SBC $10
PRG:01F09: F8       SED
PRG:01F0A: F8       SED
PRG:01F0B: F6 81    INC $81
PRG:01F0D: 06 F8    ASL $F8
PRG:01F0F: F4 97    NOP $97
PRG:01F11: 06 F8    ASL $F8
PRG:01F13: F4 98    NOP $98
PRG:01F15: 81 06    STA $06
PRG:01F17: F8       SED
PRG:01F18: F4 A4    NOP $A4
PRG:01F1A: 06 F8    ASL $F8
PRG:01F1C: F4 A5    NOP $A5
PRG:01F1E: 81 0A    STA $0A
PRG:01F20: F8       SED
PRG:01F21: F4 92    NOP $92
PRG:01F23: 0A       ASL
PRG:01F24: F8       SED
PRG:01F25: F4 49    NOP $49
PRG:01F27: 0A       ASL
PRG:01F28: F8       SED
PRG:01F29: F4 4A    NOP $4A
PRG:01F2B: 0A       ASL
PRG:01F2C: F8       SED
PRG:01F2D: F4 49    NOP $49
PRG:01F2F: 81 32    STA $32
PRG:01F31: 00 00    BRK $00
PRG:01F33: 17       .byte $17
PRG:01F34: 02       .byte $02
PRG:01F35: 00 00    BRK $00
PRG:01F37: 2D 02 00 AND $0002
PRG:01F3A: 00 17    BRK $17
PRG:01F3C: 80 00    NOP $00
PRG:01F3E: 00 2D    BRK $2D
PRG:01F40: 80 00    NOP $00
PRG:01F42: 00 43    BRK $43
PRG:01F44: 04 F8    NOP $F8
PRG:01F46: F8       SED
PRG:01F47: 9C       .byte $9C
PRG:01F48: 04 F0    NOP $F0
PRG:01F4A: F8       SED
PRG:01F4B: 9D 81 0A STA $0A81
PRG:01F4E: F8       SED
PRG:01F4F: F4 42    NOP $42
PRG:01F51: 0A       ASL
PRG:01F52: F8       SED
PRG:01F53: F4 43    NOP $43
PRG:01F55: 81 0A    STA $0A
PRG:01F57: F8       SED
PRG:01F58: F4 44    NOP $44
PRG:01F5A: 0A       ASL
PRG:01F5B: F8       SED
PRG:01F5C: F4 45    NOP $45
PRG:01F5E: 81 01    STA $01
PRG:01F60: 00 00    BRK $00
PRG:01F62: 96 01    STX $01
PRG:01F64: 00 00    BRK $00
PRG:01F66: A0 01    LDY $01
PRG:01F68: 00 00    BRK $00
PRG:01F6A: AA       TAX
PRG:01F6B: 01 00    ORA $00
PRG:01F6D: 00 B4    BRK $B4
PRG:01F6F: 81 0C    STA $0C
PRG:01F71: F8       SED
PRG:01F72: F0 C6    BEQ $C6
PRG:01F74: 0C F8 F0 NOP $F0F8
PRG:01F77: C7       .byte $C7
PRG:01F78: 81 02    STA $02
PRG:01F7A: 00 00    BRK $00
PRG:01F7C: BE 02 00 LDX $0002
PRG:01F7F: 00 C5    BRK $C5
PRG:01F81: 02       .byte $02
PRG:01F82: 00 00    BRK $00
PRG:01F84: CC 02 00 CPY $0002
PRG:01F87: 00 D3    BRK $D3
PRG:01F89: 81 02    STA $02
PRG:01F8B: F8       SED
PRG:01F8C: FC 82 02 NOP $0282
PRG:01F8F: F8       SED
PRG:01F90: FC 83 81 NOP $8183
PRG:01F93: 6C 00 F7 JMP $F700
PRG:01F96: 00 F8    BRK $F8
PRG:01F98: 00 F9    BRK $F9
PRG:01F9A: 00 7C    BRK $7C
PRG:01F9C: 00 8D    BRK $8D
PRG:01F9E: 03       .byte $03
PRG:01F9F: 9F       .byte $9F
PRG:01FA0: 03       .byte $03
PRG:01FA1: 72       .byte $72
PRG:01FA2: 01 BD    ORA $BD
PRG:01FA4: 01 8D    ORA $8D
PRG:01FA6: 83       .byte $83
PRG:01FA7: 9F       .byte $9F
PRG:01FA8: 83       .byte $83
PRG:01FA9: D6 00    DEC $00
PRG:01FAB: F1 01    SBC $01
PRG:01FAD: F0 01    BEQ $01
PRG:01FAF: F5 00    SBC $00
PRG:01FB1: F6 00    INC $00
PRG:01FB3: F7       .byte $F7
PRG:01FB4: 00 F8    BRK $F8
PRG:01FB6: 00 F9    BRK $F9
PRG:01FB8: 00 FA    BRK $FA
PRG:01FBA: 00 FB    BRK $FB
PRG:01FBC: 00 FC    BRK $FC
PRG:01FBE: 00 FD    BRK $FD
PRG:01FC0: 00 FE    BRK $FE
PRG:01FC2: 00 F3    BRK $F3
PRG:01FC4: 00 01    BRK $01
PRG:01FC6: A1 1B    LDA $1B
PRG:01FC8: A1 35    LDA $35
PRG:01FCA: A1 54    LDA $54
PRG:01FCC: A1 73    LDA $73
PRG:01FCE: A1 7D    LDA $7D
PRG:01FD0: A1 87    LDA $87
PRG:01FD2: A1 91    LDA $91
PRG:01FD4: A1 9B    LDA $9B
PRG:01FD6: A1 A5    LDA $A5
PRG:01FD8: A1 AF    LDA $AF
PRG:01FDA: A1 B9    LDA $B9
PRG:01FDC: A1 9A    LDA $9A
PRG:01FDE: 06 A3    ASL $A3
PRG:01FE0: 06 C3    ASL $C3
PRG:01FE2: A1 C6    LDA $C6
PRG:01FE4: A1 C9    LDA $C9
PRG:01FE6: A1 CC    LDA $CC
PRG:01FE8: A1 D0    LDA $D0
PRG:01FEA: A1 D4    LDA $D4
PRG:01FEC: A1 D8    LDA $D8
PRG:01FEE: A1 DC    LDA $DC
PRG:01FF0: A1 E0    LDA $E0
PRG:01FF2: A1 E5    LDA $E5
PRG:01FF4: A1 EA    LDA $EA
PRG:01FF6: A1 EF    LDA $EF
PRG:01FF8: A1 F4    LDA $F4
PRG:01FFA: A1 F9    LDA $F9
PRG:01FFC: A1 FF    LDA $FF
PRG:01FFE: A1 05    LDA $05
PRG:02000: A2 0B    LDX $0B
PRG:02002: A2 12    LDX $12
PRG:02004: A2 19    LDX $19
PRG:02006: A2 23    LDX $23
PRG:02008: A2 2A    LDX $2A
PRG:0200A: A2 31    LDX $31
PRG:0200C: A2 38    LDX $38
PRG:0200E: A2 3F    LDX $3F
PRG:02010: A2 46    LDX $46
PRG:02012: A2 4B    LDX $4B
PRG:02014: A2 5C    LDX $5C
PRG:02016: A2 6D    LDX $6D
PRG:02018: A2 74    LDX $74
PRG:0201A: A2 7B    LDX $7B
PRG:0201C: A2 80    LDX $80
PRG:0201E: A2 85    LDX $85
PRG:02020: A2 88    LDX $88
PRG:02022: A2 8B    LDX $8B
PRG:02024: A2 8E    LDX $8E
PRG:02026: A2 91    LDX $91
PRG:02028: A2 95    LDX $95
PRG:0202A: A2 A6    LDX $A6
PRG:0202C: A2 B7    LDX $B7
PRG:0202E: A2 BC    LDX $BC
PRG:02030: A2 C1    LDX $C1
PRG:02032: A2 C6    LDX $C6
PRG:02034: A2 CB    LDX $CB
PRG:02036: A2 DC    LDX $DC
PRG:02038: A2 AC    LDX $AC
PRG:0203A: 06 DF    ASL $DF
PRG:0203C: A2 E4    LDX $E4
PRG:0203E: A2 E7    LDX $E7
PRG:02040: A2 EA    LDX $EA
PRG:02042: A2 B5    LDX $B5
PRG:02044: 06 EF    ASL $EF
PRG:02046: A2 FA    LDX $FA
PRG:02048: A2 02    LDX $02
PRG:0204A: A3       .byte $A3
PRG:0204B: 0A       ASL
PRG:0204C: A3       .byte $A3
PRG:0204D: 12       .byte $12
PRG:0204E: A3       .byte $A3
PRG:0204F: 1A       NOP
PRG:02050: A3       .byte $A3
PRG:02051: 1F       .byte $1F
PRG:02052: A3       .byte $A3
PRG:02053: 25 A3    AND $A3
PRG:02055: 2B       .byte $2B
PRG:02056: A3       .byte $A3
PRG:02057: 31 A3    AND $A3
PRG:02059: 37       .byte $37
PRG:0205A: A3       .byte $A3
PRG:0205B: 3D A3 43 AND $43A3
PRG:0205E: A3       .byte $A3
PRG:0205F: 49 A3    EOR $A3
PRG:02061: 4F       .byte $4F
PRG:02062: A3       .byte $A3
PRG:02063: 55 A3    EOR $A3
PRG:02065: 5B       .byte $5B
PRG:02066: A3       .byte $A3
PRG:02067: 61 A3    ADC $A3
PRG:02069: 67       .byte $67
PRG:0206A: A3       .byte $A3
PRG:0206B: 6F       .byte $6F
PRG:0206C: A3       .byte $A3
PRG:0206D: 77       .byte $77
PRG:0206E: A3       .byte $A3
PRG:0206F: 7B       .byte $7B
PRG:02070: A3       .byte $A3
PRG:02071: 7F       .byte $7F
PRG:02072: A3       .byte $A3
PRG:02073: 83       .byte $83
PRG:02074: A3       .byte $A3
PRG:02075: 00 00    BRK $00
PRG:02077: 89       .byte $89
PRG:02078: A3       .byte $A3
PRG:02079: 8F       .byte $8F
PRG:0207A: A3       .byte $A3
PRG:0207B: 95 A3    STA $A3
PRG:0207D: 9B       .byte $9B
PRG:0207E: A3       .byte $A3
PRG:0207F: AD A3 BF LDA $BFA3
PRG:02082: A3       .byte $A3
PRG:02083: D1 A3    CMP $A3
PRG:02085: D7       .byte $D7
PRG:02086: A3       .byte $A3
PRG:02087: DD A3 E3 CMP $E3A3
PRG:0208A: A3       .byte $A3
PRG:0208B: E7       .byte $E7
PRG:0208C: A3       .byte $A3
PRG:0208D: EB       .byte $EB
PRG:0208E: A3       .byte $A3
PRG:0208F: EF       .byte $EF
PRG:02090: A3       .byte $A3
PRG:02091: F3       .byte $F3
PRG:02092: A3       .byte $A3
PRG:02093: F7       .byte $F7
PRG:02094: A3       .byte $A3
PRG:02095: FA       NOP
PRG:02096: A3       .byte $A3
PRG:02097: FD A3 00 SBC $00A3
PRG:0209A: A4 03    LDY $03
PRG:0209C: A4 07    LDY $07
PRG:0209E: A4 0B    LDY $0B
PRG:020A0: A4 0F    LDY $0F
PRG:020A2: A4 12    LDY $12
PRG:020A4: A4 15    LDY $15
PRG:020A6: A4 18    LDY $18
PRG:020A8: A4 1D    LDY $1D
PRG:020AA: A4 20    LDY $20
PRG:020AC: A4 23    LDY $23
PRG:020AE: A4 2C    LDY $2C
PRG:020B0: A4 2F    LDY $2F
PRG:020B2: A4 33    LDY $33
PRG:020B4: A4 3C    LDY $3C
PRG:020B6: A4 40    LDY $40
PRG:020B8: A4 44    LDY $44
PRG:020BA: A4 47    LDY $47
PRG:020BC: A4 4B    LDY $4B
PRG:020BE: A4 4E    LDY $4E
PRG:020C0: A4 5C    LDY $5C
PRG:020C2: A4 6A    LDY $6A
PRG:020C4: A4 7C    LDY $7C
PRG:020C6: A4 8E    LDY $8E
PRG:020C8: A4 9C    LDY $9C
PRG:020CA: A4 AE    LDY $AE
PRG:020CC: A4 BC    LDY $BC
PRG:020CE: A4 CE    LDY $CE
PRG:020D0: A4 E0    LDY $E0
PRG:020D2: A4 F2    LDY $F2
PRG:020D4: A4 04    LDY $04
PRG:020D6: A5 16    LDA $16
PRG:020D8: A5 28    LDA $28
PRG:020DA: A5 39    LDA $39
PRG:020DC: A5 41    LDA $41
PRG:020DE: A5 49    LDA $49
PRG:020E0: A5 51    LDA $51
PRG:020E2: A5 59    LDA $59
PRG:020E4: A5 61    LDA $61
PRG:020E6: A5 69    LDA $69
PRG:020E8: A5 6E    LDA $6E
PRG:020EA: A5 76    LDA $76
PRG:020EC: A5 84    LDA $84
PRG:020EE: A5 92    LDA $92
PRG:020F0: A5 A0    LDA $A0
PRG:020F2: A5 AE    LDA $AE
PRG:020F4: A5 BC    LDA $BC
PRG:020F6: A5 CA    LDA $CA
PRG:020F8: A5 D8    LDA $D8
PRG:020FA: A5 E0    LDA $E0
PRG:020FC: A5 E8    LDA $E8
PRG:020FE: A5 F2    LDA $F2
PRG:02100: A5 94    LDA $94
PRG:02102: 22       .byte $22
PRG:02103: 65 66    ADC $66
PRG:02105: 67       .byte $67
PRG:02106: 68       PLA
PRG:02107: 32       .byte $32
PRG:02108: 75 76    ADC $76
PRG:0210A: 77       .byte $77
PRG:0210B: 78       SEI
PRG:0210C: C2       .byte $C2
PRG:0210D: 85 86    STA $86
PRG:0210F: 87       .byte $87
PRG:02110: 88       DEY
PRG:02111: D2       .byte $D2
PRG:02112: 95 96    STA $96
PRG:02114: 97       .byte $97
PRG:02115: 98       TYA
PRG:02116: FF       .byte $FF
PRG:02117: FF       .byte $FF
PRG:02118: 82       .byte $82
PRG:02119: FF       .byte $FF
PRG:0211A: FF       .byte $FF
PRG:0211B: 94 22    STY $22
PRG:0211D: 65 66    ADC $66
PRG:0211F: 67       .byte $67
PRG:02120: 68       PLA
PRG:02121: 32       .byte $32
PRG:02122: 75 76    ADC $76
PRG:02124: 6E 6F 6A ROR $6A6F
PRG:02127: 85 7D    STA $7D
PRG:02129: 7E 7F 20 ROR $207F
PRG:0212C: 95 8D    STA $8D
PRG:0212E: 8E 8F FF STX $FF8F
PRG:02131: FF       .byte $FF
PRG:02132: 82       .byte $82
PRG:02133: FF       .byte $FF
PRG:02134: FF       .byte $FF
PRG:02135: B4 22    LDY $22
PRG:02137: 65 66    ADC $66
PRG:02139: DA       NOP
PRG:0213A: DC A2 32 NOP $32A2
PRG:0213D: 75 76    ADC $76
PRG:0213F: DB       .byte $DB
PRG:02140: B1 B2    LDA $B2
PRG:02142: 6A       ROR
PRG:02143: 85 86    STA $86
PRG:02145: C0 C1    CPY $C1
PRG:02147: FF       .byte $FF
PRG:02148: 79 7A 96 ADC $967A
PRG:0214B: D0 D1    BNE $D1
PRG:0214D: FF       .byte $FF
PRG:0214E: 89       .byte $89
PRG:0214F: 8A       TXA
PRG:02150: 82       .byte $82
PRG:02151: FF       .byte $FF
PRG:02152: FF       .byte $FF
PRG:02153: FF       .byte $FF
PRG:02154: B4 22    LDY $22
PRG:02156: 65 66    ADC $66
PRG:02158: A4 A5    LDY $A5
PRG:0215A: A6 32    LDX $32
PRG:0215C: 75 B3    ADC $B3
PRG:0215E: B4 B5    LDY $B5
PRG:02160: B6 C2    LDX $C2
PRG:02162: 85 C3    STA $C3
PRG:02164: C4 C5    CPY $C5
PRG:02166: FF       .byte $FF
PRG:02167: D2       .byte $D2
PRG:02168: 95 D3    STA $D3
PRG:0216A: D4 D5    NOP $D5
PRG:0216C: FF       .byte $FF
PRG:0216D: FF       .byte $FF
PRG:0216E: FF       .byte $FF
PRG:0216F: 82       .byte $82
PRG:02170: FF       .byte $FF
PRG:02171: FF       .byte $FF
PRG:02172: FF       .byte $FF
PRG:02173: 4F       .byte $4F
PRG:02174: EC ED EE CPX $EEED
PRG:02177: EF       .byte $EF
PRG:02178: EA       NOP
PRG:02179: EB       .byte $EB
PRG:0217A: F2       .byte $F2
PRG:0217B: E3       .byte $E3
PRG:0217C: F4 4F    NOP $4F
PRG:0217E: AD AE AF LDA $AFAE
PRG:02181: 5B       .byte $5B
PRG:02182: 5C 5D F2 NOP $F25D
PRG:02185: E3       .byte $E3
PRG:02186: F4 4F    NOP $4F
PRG:02188: A7       .byte $A7
PRG:02189: A8       TAY
PRG:0218A: A9 B7    LDA $B7
PRG:0218C: B8       CLV
PRG:0218D: B9 DF C8 LDA $C8DF
PRG:02190: C9 4F    CMP $4F
PRG:02192: 60       RTS
PRG:02193: 61 62    ADC $62
PRG:02195: 70 71    BVS $71
PRG:02197: 72       .byte $72
PRG:02198: CA       DEX
PRG:02199: CB       .byte $CB
PRG:0219A: CC 4F AD CPY $AD4F
PRG:0219D: AE AF DD LDX $DDAF
PRG:021A0: BE BF CD LDX $CDBF
PRG:021A3: CE CF 4F DEC $4FCF
PRG:021A6: AA       TAX
PRG:021A7: AB       .byte $AB
PRG:021A8: AC BA BB LDY $BBBA
PRG:021AB: BC CA CB LDY $CBCA
PRG:021AE: CC 4F 4B CPY $4B4F
PRG:021B1: 4C 4D 5B JMP $5B4D
PRG:021B4: 5C 5D 4E NOP $4E5D
PRG:021B7: 4F       .byte $4F
PRG:021B8: 5E 4F 60 LSR $604F
PRG:021BB: 61 62    ADC $62
PRG:021BD: 70 71    BVS $71
PRG:021BF: 72       .byte $72
PRG:021C0: 23       .byte $23
PRG:021C1: 24 33    BIT $33
PRG:021C3: 24 F6    BIT $F6
PRG:021C5: F5 24    SBC $24
PRG:021C7: F7       .byte $F7
PRG:021C8: F5 24    SBC $24
PRG:021CA: FA       NOP
PRG:021CB: F5 44    SBC $44
PRG:021CD: F6 F5    INC $F5
PRG:021CF: F5 44    SBC $44
PRG:021D1: F7       .byte $F7
PRG:021D2: F5 F5    SBC $F5
PRG:021D4: 44 F8    NOP $F8
PRG:021D6: F5 F5    SBC $F5
PRG:021D8: 44 F9    NOP $F9
PRG:021DA: F5 F5    SBC $F5
PRG:021DC: 44 FA    NOP $FA
PRG:021DE: F5 F5    SBC $F5
PRG:021E0: 64 F6    NOP $F6
PRG:021E2: F5 F5    SBC $F5
PRG:021E4: F5 64    SBC $64
PRG:021E6: F7       .byte $F7
PRG:021E7: F5 F5    SBC $F5
PRG:021E9: F5 64    SBC $64
PRG:021EB: F8       SED
PRG:021EC: F5 F5    SBC $F5
PRG:021EE: F5 64    SBC $64
PRG:021F0: F9 F5 F5 SBC $F5F5
PRG:021F3: F5 64    SBC $64
PRG:021F5: FA       NOP
PRG:021F6: F5 F5    SBC $F5
PRG:021F8: F5 84    SBC $84
PRG:021FA: F6 F5    INC $F5
PRG:021FC: F5 F5    SBC $F5
PRG:021FE: F5 84    SBC $84
PRG:02200: F7       .byte $F7
PRG:02201: F5 F5    SBC $F5
PRG:02203: F5 F5    SBC $F5
PRG:02205: 84 FA    STY $FA
PRG:02207: F5 F5    SBC $F5
PRG:02209: F5 F5    SBC $F5
PRG:0220B: 2D C3 C4 AND $C4C3
PRG:0220E: D3       .byte $D3
PRG:0220F: D4 E3    NOP $E3
PRG:02211: E4 2D    CPX $2D
PRG:02213: C3       .byte $C3
PRG:02214: C4 D3    CPY $D3
PRG:02216: D4 E3    NOP $E3
PRG:02218: C6 4D    DEC $4D
PRG:0221A: B1 FF    LDA $FF
PRG:0221C: FF       .byte $FF
PRG:0221D: A2 A3    LDX $A3
PRG:0221F: A4 B2    LDY $B2
PRG:02221: B3       .byte $B3
PRG:02222: B4 49    LDY $49
PRG:02224: A5 A3    LDA $A3
PRG:02226: A4 B2    LDY $B2
PRG:02228: B3       .byte $B3
PRG:02229: B4 2D    LDY $2D
PRG:0222B: 6D 6E 7D ADC $7D6E
PRG:0222E: 7E 6F 7F ROR $7F6F
PRG:02231: 2D EA EB AND $EBEA
PRG:02234: B6 EC    LDX $EC
PRG:02236: ED EE 2F SBC $2FEE
PRG:02239: 6D 6E 7D ADC $7D6E
PRG:0223C: 7E 6F 7F ROR $7F6F
PRG:0223F: 2F       .byte $2F
PRG:02240: EA       NOP
PRG:02241: EB       .byte $EB
PRG:02242: B6 EC    LDX $EC
PRG:02244: ED EE 29 SBC $29EE
PRG:02247: E0 E1    CPX $E1
PRG:02249: E2       .byte $E2
PRG:0224A: E8       INX
PRG:0224B: EB       .byte $EB
PRG:0224C: 4A       LSR
PRG:0224D: 6B       .byte $6B
PRG:0224E: 6B       .byte $6B
PRG:0224F: 6B       .byte $6B
PRG:02250: 6B       .byte $6B
PRG:02251: 6B       .byte $6B
PRG:02252: 6B       .byte $6B
PRG:02253: 56 48    LSR $48
PRG:02255: 49 48    EOR $48
PRG:02257: 49 48    EOR $48
PRG:02259: 49 48    EOR $48
PRG:0225B: 49 E8    EOR $E8
PRG:0225D: 8F       .byte $8F
PRG:0225E: 8F       .byte $8F
PRG:0225F: 8F       .byte $8F
PRG:02260: 8F       .byte $8F
PRG:02261: 8F       .byte $8F
PRG:02262: 8F       .byte $8F
PRG:02263: 8F       .byte $8F
PRG:02264: 8F       .byte $8F
PRG:02265: 9F       .byte $9F
PRG:02266: 9F       .byte $9F
PRG:02267: 9F       .byte $9F
PRG:02268: 9F       .byte $9F
PRG:02269: 9F       .byte $9F
PRG:0226A: 9F       .byte $9F
PRG:0226B: 9F       .byte $9F
PRG:0226C: 9F       .byte $9F
PRG:0226D: 2C 83 84 BIT $8483
PRG:02270: 85 86    STA $86
PRG:02272: 92       .byte $92
PRG:02273: 93       .byte $93
PRG:02274: 2C 94 95 BIT $9594
PRG:02277: 96 87    STX $87
PRG:02279: 97       .byte $97
PRG:0227A: 8A       TXA
PRG:0227B: 28       PLP
PRG:0227C: 88       DEY
PRG:0227D: 89       .byte $89
PRG:0227E: 98       TYA
PRG:0227F: 99 28 65 STA $6528
PRG:02282: 66 75    ROR $75
PRG:02284: 76 08    ROR $08
PRG:02286: F3       .byte $F3
PRG:02287: F4 0B    NOP $0B
PRG:02289: 8E 8F 0B STX $0B8F
PRG:0228C: 80 9D    NOP $9D
PRG:0228E: 27       .byte $27
PRG:0228F: 90 9E    BCC $9E
PRG:02291: 45 71    EOR $71
PRG:02293: 71 71    ADC $71
PRG:02295: E8       INX
PRG:02296: A9 A9    LDA $A9
PRG:02298: A9 A9    LDA $A9
PRG:0229A: A9 A9    LDA $A9
PRG:0229C: A9 A9    LDA $A9
PRG:0229E: B9 B9 B9 LDA $B9B9
PRG:022A1: B9 B9 B9 LDA $B9B9
PRG:022A4: B9 B9 E8 LDA $E8B9
PRG:022A7: D6 D6    DEC $D6
PRG:022A9: D6 D6    DEC $D6
PRG:022AB: D6 D6    DEC $D6
PRG:022AD: D6 D6    DEC $D6
PRG:022AF: D6 D6    DEC $D6
PRG:022B1: D6 D6    DEC $D6
PRG:022B3: D6 D6    DEC $D6
PRG:022B5: D6 D6    DEC $D6
PRG:022B7: 28       PLP
PRG:022B8: 2E 2F 3E ROL $3E2F
PRG:022BB: 3F       .byte $3F
PRG:022BC: 28       PLP
PRG:022BD: 2E 2D 3E ROL $3E2D
PRG:022C0: 3B       .byte $3B
PRG:022C1: 2A       ROL
PRG:022C2: C8       INY
PRG:022C3: C9 D8    CMP $D8
PRG:022C5: D9 2A CA CMP $CA2A
PRG:022C8: C9 D8    CMP $D8
PRG:022CA: D9 EB 80 CMP $80EB
PRG:022CD: 90 90    BCC $90
PRG:022CF: 90 90    BCC $90
PRG:022D1: 90 90    BCC $90
PRG:022D3: B0 A0    BCS $A0
PRG:022D5: A1 A0    LDA $A0
PRG:022D7: A1 A0    LDA $A0
PRG:022D9: A1 A0    LDA $A0
PRG:022DB: A1 24    LDA $24
PRG:022DD: C0 C1    CPY $C1
PRG:022DF: 28       PLP
PRG:022E0: 67       .byte $67
PRG:022E1: 68       PLA
PRG:022E2: 77       .byte $77
PRG:022E3: 78       SEI
PRG:022E4: 25 9A    AND $9A
PRG:022E6: 7B       .byte $7B
PRG:022E7: 25 6A    AND $6A
PRG:022E9: 6B       .byte $6B
PRG:022EA: 29 BD    AND $BD
PRG:022EC: BD BD BD LDA $BDBD
PRG:022EF: 4C AA 00 JMP $00AA
PRG:022F2: 01 40    ORA $40
PRG:022F4: 10 11    BPL $11
PRG:022F6: 50 02    BVC $02
PRG:022F8: 03       .byte $03
PRG:022F9: 42       .byte $42
PRG:022FA: 2C 81 81 BIT $8181
PRG:022FD: C1 90    CMP $90
PRG:022FF: D0 80    BNE $80
PRG:02301: C0 48    CPY $48
PRG:02303: 60       RTS
PRG:02304: 00 01    BRK $01
PRG:02306: 02       .byte $02
PRG:02307: 80 81    NOP $81
PRG:02309: 82       .byte $82
PRG:0230A: 48       PHA
PRG:0230B: 60       RTS
PRG:0230C: 00 10    BRK $10
PRG:0230E: 02       .byte $02
PRG:0230F: 80 90    NOP $90
PRG:02311: 82       .byte $82
PRG:02312: 2D B5 AD AND $ADB5
PRG:02315: ED 8D CD SBC $CD8D
PRG:02318: 80 C0    NOP $C0
PRG:0231A: 44 55    NOP $55
PRG:0231C: 01 00    ORA $00
PRG:0231E: 41 28    EOR $28
PRG:02320: 63       .byte $63
PRG:02321: 00 01    BRK $01
PRG:02323: 10 11    BPL $11
PRG:02325: 28       PLP
PRG:02326: 63       .byte $63
PRG:02327: 41 40    EOR $40
PRG:02329: 51 50    EOR $50
PRG:0232B: 28       PLP
PRG:0232C: 63       .byte $63
PRG:0232D: D1 D0    CMP $D0
PRG:0232F: C1 C0    CMP $C0
PRG:02331: 28       PLP
PRG:02332: 63       .byte $63
PRG:02333: 90 91    BCC $91
PRG:02335: 80 81    NOP $81
PRG:02337: 2A       ROL
PRG:02338: 63       .byte $63
PRG:02339: 00 01    BRK $01
PRG:0233B: 10 11    BPL $11
PRG:0233D: 2A       ROL
PRG:0233E: 63       .byte $63
PRG:0233F: 41 40    EOR $40
PRG:02341: 51 50    EOR $50
PRG:02343: 2A       ROL
PRG:02344: 63       .byte $63
PRG:02345: D1 D0    CMP $D0
PRG:02347: C1 C0    CMP $C0
PRG:02349: 2A       ROL
PRG:0234A: 63       .byte $63
PRG:0234B: 90 91    BCC $91
PRG:0234D: 80 81    NOP $81
PRG:0234F: 29 63    AND $63
PRG:02351: 00 01    BRK $01
PRG:02353: 10 11    BPL $11
PRG:02355: 29 63    AND $63
PRG:02357: 41 40    EOR $40
PRG:02359: 51 50    EOR $50
PRG:0235B: 29 63    AND $63
PRG:0235D: D1 D0    CMP $D0
PRG:0235F: C1 C0    CMP $C0
PRG:02361: 29 63    AND $63
PRG:02363: 90 91    BCC $91
PRG:02365: 80 81    NOP $81
PRG:02367: 49 A3    EOR $A3
PRG:02369: D1 D0    CMP $D0
PRG:0236B: CF       .byte $CF
PRG:0236C: C1 C0    CMP $C0
PRG:0236E: C2       .byte $C2
PRG:0236F: 2F       .byte $2F
PRG:02370: 6D D2 C2 ADC $C2D2
PRG:02373: D1 D0    CMP $D0
PRG:02375: C1 C0    CMP $C0
PRG:02377: 0B       .byte $0B
PRG:02378: 8E 81 80 STX $8081
PRG:0237B: 0B       .byte $0B
PRG:0237C: 80 9D    NOP $9D
PRG:0237E: 80 27    NOP $27
PRG:02380: 90 80    BCC $80
PRG:02382: 8E 29 CF STX $CF29
PRG:02385: 90 D0    BCC $D0
PRG:02387: 80 C0    NOP $C0
PRG:02389: 29 9B    AND $9B
PRG:0238B: 00 40    BRK $40
PRG:0238D: 80 C0    NOP $C0
PRG:0238F: 29 A3    AND $A3
PRG:02391: 00 40    BRK $40
PRG:02393: 80 C0    NOP $C0
PRG:02395: 28       PLP
PRG:02396: DE 00 40 DEC $4000
PRG:02399: 80 C0    NOP $C0
PRG:0239B: E9 8D    SBC $8D
PRG:0239D: 1C 00 00 NOP $0000
PRG:023A0: 00 00    BRK $00
PRG:023A2: 00 00    BRK $00
PRG:023A4: 5C 2C 6C NOP $6C2C
PRG:023A7: 2C 6C 2C BIT $2C6C
PRG:023AA: 6C 2C 6C JMP $6C2C
PRG:023AD: EB       .byte $EB
PRG:023AE: A0 00    LDY $00
PRG:023B0: 01 41    ORA $41
PRG:023B2: 01 41    ORA $41
PRG:023B4: 01 41    ORA $41
PRG:023B6: 40       RTI
PRG:023B7: 10 50    BPL $50
PRG:023B9: 10 50    BPL $50
PRG:023BB: 10 50    BPL $50
PRG:023BD: 10 50    BPL $50
PRG:023BF: EB       .byte $EB
PRG:023C0: D2       .byte $D2
PRG:023C1: 00 40    BRK $40
PRG:023C3: 00 40    BRK $40
PRG:023C5: 00 40    BRK $40
PRG:023C7: 00 40    BRK $40
PRG:023C9: 80 C0    NOP $C0
PRG:023CB: 80 C0    NOP $C0
PRG:023CD: 80 C0    NOP $C0
PRG:023CF: 80 C0    NOP $C0
PRG:023D1: 28       PLP
PRG:023D2: C7       .byte $C7
PRG:023D3: 00 40    BRK $40
PRG:023D5: 80 C0    NOP $C0
PRG:023D7: 28       PLP
PRG:023D8: D7       .byte $D7
PRG:023D9: 00 40    BRK $40
PRG:023DB: 80 C0    NOP $C0
PRG:023DD: 28       PLP
PRG:023DE: 2E D1 D0 ROL $D0D1
PRG:023E1: C1 C0    CMP $C0
PRG:023E3: 25 7B    AND $7B
PRG:023E5: 1F       .byte $1F
PRG:023E6: 00 25    BRK $25
PRG:023E8: 7B       .byte $7B
PRG:023E9: 1F       .byte $1F
PRG:023EA: 80 0D    NOP $0D
PRG:023EC: AE BE A6 LDX $A6BE
PRG:023EF: 0D AF BF ORA $BFAF
PRG:023F2: A6 0C    LDX $0C
PRG:023F4: 81 91    STA $91
PRG:023F6: 82       .byte $82
PRG:023F7: 09 BC    ORA $BC
PRG:023F9: E9 09    SBC $09
PRG:023FB: E8       INX
PRG:023FC: E9 0A    SBC $0A
PRG:023FE: 8C 9C 08 STY $089C
PRG:02401: EF       .byte $EF
PRG:02402: F2       .byte $F2
PRG:02403: 0D B5 C2 ORA $C2B5
PRG:02406: E2       .byte $E2
PRG:02407: 0D B5 C2 ORA $C2B5
PRG:0240A: D2       .byte $D2
PRG:0240B: 0F       .byte $0F
PRG:0240C: 80 90    NOP $90
PRG:0240E: A0 0B    LDY $0B
PRG:02410: B0 A1    BCS $A1
PRG:02412: 09 CF    ORA $CF
PRG:02414: DF       .byte $DF
PRG:02415: 0B       .byte $0B
PRG:02416: A7       .byte $A7
PRG:02417: B7       .byte $B7
PRG:02418: 2B       .byte $2B
PRG:02419: 67       .byte $67
PRG:0241A: 68       PLA
PRG:0241B: 77       .byte $77
PRG:0241C: 78       SEI
PRG:0241D: 09 C5    ORA $C5
PRG:0241F: D5 0B    CMP $0B
PRG:02421: A8       TAY
PRG:02422: B8       CLV
PRG:02423: 31 29    AND $29
PRG:02425: 2A       ROL
PRG:02426: 29 38    AND $38
PRG:02428: 39 3A 2B AND $2B3A
PRG:0242B: 2C 08 D1 BIT $D108
PRG:0242E: E1 0C    SBC $0C
PRG:02430: CB       .byte $CB
PRG:02431: DB       .byte $DB
PRG:02432: DA       NOP
PRG:02433: 33       .byte $33
PRG:02434: 29 2A    AND $2A
PRG:02436: 29 38    AND $38
PRG:02438: 39 3A 2B AND $2B3A
PRG:0243B: 2C 0F B5 BIT $B50F
PRG:0243E: C2       .byte $C2
PRG:0243F: E2       .byte $E2
PRG:02440: 0F       .byte $0F
PRG:02441: B5 C2    LDA $C2
PRG:02443: D2       .byte $D2
PRG:02444: 09 EF    ORA $EF
PRG:02446: F2       .byte $F2
PRG:02447: 0C E5 E6 NOP $E6E5
PRG:0244A: E7       .byte $E7
PRG:0244B: 09 40    ORA $40
PRG:0244D: 50 30    BVC $30
PRG:0244F: 00 00    BRK $00
PRG:02451: 00 01    BRK $01
PRG:02453: 00 10    BRK $10
PRG:02455: 11 02    ORA $02
PRG:02457: 02       .byte $02
PRG:02458: 03       .byte $03
PRG:02459: 02       .byte $02
PRG:0245A: 12       .byte $12
PRG:0245B: 13       .byte $13
PRG:0245C: 30 00    BMI $00
PRG:0245E: 00 00    BRK $00
PRG:02460: 01 00    ORA $00
PRG:02462: 10 11    BPL $11
PRG:02464: 02       .byte $02
PRG:02465: 04 05    NOP $05
PRG:02467: 02       .byte $02
PRG:02468: 14 15    NOP $15
PRG:0246A: 50 0D    BVC $0D
PRG:0246C: 00 FF    BRK $FF
PRG:0246E: 01 02    ORA $02
PRG:02470: 00 FF    BRK $FF
PRG:02472: 11 12    ORA $12
PRG:02474: 02       .byte $02
PRG:02475: 0E 0F 10 ASL $100F
PRG:02478: 00 FF    BRK $FF
PRG:0247A: FF       .byte $FF
PRG:0247B: 00 50    BRK $50
PRG:0247D: 20 00 00 JSR $0000
PRG:02480: 01 02    ORA $02
PRG:02482: 00 10    BRK $10
PRG:02484: 11 12    ORA $12
PRG:02486: 02       .byte $02
PRG:02487: 03       .byte $03
PRG:02488: 04 FF    NOP $FF
PRG:0248A: 02       .byte $02
PRG:0248B: 13       .byte $13
PRG:0248C: 14 FF    NOP $FF
PRG:0248E: 30 00    BMI $00
PRG:02490: 00 00    BRK $00
PRG:02492: 01 00    ORA $00
PRG:02494: 10 11    BPL $11
PRG:02496: 02       .byte $02
PRG:02497: 06 07    ASL $07
PRG:02499: 02       .byte $02
PRG:0249A: 16 17    ASL $17
PRG:0249C: 50 00    BVC $00
PRG:0249E: 00 00    BRK $00
PRG:024A0: 01 FF    ORA $FF
PRG:024A2: 00 10    BRK $10
PRG:024A4: 11 FF    ORA $FF
PRG:024A6: 02       .byte $02
PRG:024A7: 08       PHP
PRG:024A8: 09 FF    ORA $FF
PRG:024AA: 02       .byte $02
PRG:024AB: 18       CLC
PRG:024AC: 19 1A 30 ORA $301A
PRG:024AF: 00 00    BRK $00
PRG:024B1: 00 01    BRK $01
PRG:024B3: 00 10    BRK $10
PRG:024B5: 11 02    ORA $02
PRG:024B7: 06 3D    ASL $3D
PRG:024B9: 02       .byte $02
PRG:024BA: 16 17    ASL $17
PRG:024BC: 50 00    BVC $00
PRG:024BE: 00 00    BRK $00
PRG:024C0: 01 FF    ORA $FF
PRG:024C2: 00 10    BRK $10
PRG:024C4: 11 FF    ORA $FF
PRG:024C6: 02       .byte $02
PRG:024C7: 06 3D    ASL $3D
PRG:024C9: FF       .byte $FF
PRG:024CA: 02       .byte $02
PRG:024CB: 0A       ASL
PRG:024CC: 0B       .byte $0B
PRG:024CD: 0C 50 41 NOP $4150
PRG:024D0: 00 FF    BRK $FF
PRG:024D2: 01 02    ORA $02
PRG:024D4: 00 10    BRK $10
PRG:024D6: 11 12    ORA $12
PRG:024D8: 02       .byte $02
PRG:024D9: 03       .byte $03
PRG:024DA: 04 05    NOP $05
PRG:024DC: 00 13    BRK $13
PRG:024DE: 14 53    NOP $53
PRG:024E0: 50 41    BVC $41
PRG:024E2: 00 FF    BRK $FF
PRG:024E4: 01 02    ORA $02
PRG:024E6: 00 00    BRK $00
PRG:024E8: 11 06    ORA $06
PRG:024EA: 02       .byte $02
PRG:024EB: 03       .byte $03
PRG:024EC: 04 05    NOP $05
PRG:024EE: 00 13    BRK $13
PRG:024F0: 14 53    NOP $53
PRG:024F2: 50 41    BVC $41
PRG:024F4: 00 FF    BRK $FF
PRG:024F6: 01 02    ORA $02
PRG:024F8: 00 16    BRK $16
PRG:024FA: 11 07    ORA $07
PRG:024FC: 02       .byte $02
PRG:024FD: 03       .byte $03
PRG:024FE: 04 05    NOP $05
PRG:02500: 00 13    BRK $13
PRG:02502: 14 53    NOP $53
PRG:02504: 50 41    BVC $41
PRG:02506: 00 08    BRK $08
PRG:02508: 09 FF    ORA $FF
PRG:0250A: 00 18    BRK $18
PRG:0250C: 19 1A 02 ORA $021A
PRG:0250F: 0B       .byte $0B
PRG:02510: 0C 0D 00 NOP $000D
PRG:02513: 1B       .byte $1B
PRG:02514: 1C 1D 50 NOP $501D
PRG:02517: 41 00    EOR $00
PRG:02519: 08       PHP
PRG:0251A: 09 FF    ORA $FF
PRG:0251C: 00 18    BRK $18
PRG:0251E: 19 0A 02 ORA $020A
PRG:02521: 17       .byte $17
PRG:02522: 0C 0D 00 NOP $000D
PRG:02525: 1B       .byte $1B
PRG:02526: 1C 1D 6C NOP $6C1D
PRG:02529: 25 00    AND $00
PRG:0252B: FF       .byte $FF
PRG:0252C: 00 40    BRK $40
PRG:0252E: FF       .byte $FF
PRG:0252F: 00 01    BRK $01
PRG:02531: 10 50    BPL $50
PRG:02533: 11 02    ORA $02
PRG:02535: 02       .byte $02
PRG:02536: 03       .byte $03
PRG:02537: 12       .byte $12
PRG:02538: FF       .byte $FF
PRG:02539: 28       PLP
PRG:0253A: 4F       .byte $4F
PRG:0253B: 01 00    ORA $00
PRG:0253D: 40       RTI
PRG:0253E: 02       .byte $02
PRG:0253F: 10 50    BPL $50
PRG:02541: 28       PLP
PRG:02542: 4F       .byte $4F
PRG:02543: 01 00    ORA $00
PRG:02545: 40       RTI
PRG:02546: 00 10    BRK $10
PRG:02548: 50 28    BVC $28
PRG:0254A: D0 02    BNE $02
PRG:0254C: 00 40    BRK $40
PRG:0254E: 01 10    ORA $10
PRG:02550: 50 2B    BVC $2B
PRG:02552: 69 02    ADC $02
PRG:02554: 00 FF    BRK $FF
PRG:02556: 03       .byte $03
PRG:02557: 10 11    BPL $11
PRG:02559: 28       PLP
PRG:0255A: 69 00    ADC $00
PRG:0255C: 00 18    BRK $18
PRG:0255E: 00 12    BRK $12
PRG:02560: 28       PLP
PRG:02561: 28       PLP
PRG:02562: 6C 00 5F JMP $5F00
PRG:02565: 15 00    ORA $00
PRG:02567: 41 40    EOR $40
PRG:02569: 24 9C    BIT $9C
PRG:0256B: 00 00    BRK $00
PRG:0256D: 01 28    ORA $28
PRG:0256F: 8B       .byte $8B
PRG:02570: 01 00    ORA $00
PRG:02572: 40       RTI
PRG:02573: 02       .byte $02
PRG:02574: 10 50    BPL $50
PRG:02576: 30 21    BMI $21
PRG:02578: 00 0D    BRK $0D
PRG:0257A: 0E 00 1D ASL $1D00
PRG:0257D: 1E 00 1A ASL $1A00
PRG:02580: 13       .byte $13
PRG:02581: 00 0C    BRK $0C
PRG:02583: 34 30    NOP $30
PRG:02585: 21 00    AND $00
PRG:02587: 0D 0E 00 ORA $000E
PRG:0258A: 1D 1E 00 ORA $001E
PRG:0258D: 1A       NOP
PRG:0258E: 13       .byte $13
PRG:0258F: 00 00    BRK $00
PRG:02591: 1F       .byte $1F
PRG:02592: 30 21    BMI $21
PRG:02594: 00 0D    BRK $0D
PRG:02596: 0E 00 1D ASL $1D00
PRG:02599: 1E 00 25 ASL $2500
PRG:0259C: 26 00    ROL $00
PRG:0259E: 31 32    AND $32
PRG:025A0: 30 21    BMI $21
PRG:025A2: 00 0D    BRK $0D
PRG:025A4: 0E 00 21 ASL $2100
PRG:025A7: 22       .byte $22
PRG:025A8: 00 23    BRK $23
PRG:025AA: 24 00    BIT $00
PRG:025AC: 31 32    AND $32
PRG:025AE: 30 21    BMI $21
PRG:025B0: 00 0D    BRK $0D
PRG:025B2: 0E 00 2F ASL $2F00
PRG:025B5: 30 00    BMI $00
PRG:025B7: 25 26    AND $26
PRG:025B9: 00 00    BRK $00
PRG:025BB: 33       .byte $33
PRG:025BC: 30 21    BMI $21
PRG:025BE: 00 0D    BRK $0D
PRG:025C0: 0E 00 20 ASL $2000
PRG:025C3: 30 00    BMI $00
PRG:025C5: 25 26    AND $26
PRG:025C7: 00 00    BRK $00
PRG:025C9: 33       .byte $33
PRG:025CA: 30 83    BMI $83
PRG:025CC: 00 00    BRK $00
PRG:025CE: 01 00    ORA $00
PRG:025D0: 10 11    BPL $11
PRG:025D2: 02       .byte $02
PRG:025D3: 0F       .byte $0F
PRG:025D4: 16 02    ASL $02
PRG:025D6: 17       .byte $17
PRG:025D7: 1B       .byte $1B
PRG:025D8: 28       PLP
PRG:025D9: C8       INY
PRG:025DA: 00 00    BRK $00
PRG:025DC: 01 00    ORA $00
PRG:025DE: 10 11    BPL $11
PRG:025E0: 28       PLP
PRG:025E1: C8       INY
PRG:025E2: 00 02    BRK $02
PRG:025E4: 01 00    ORA $00
PRG:025E6: 10 11    BPL $11
PRG:025E8: 48       PHA
PRG:025E9: C8       INY
PRG:025EA: 00 04    BRK $04
PRG:025EC: 05 06    ORA $06
PRG:025EE: 00 14    BRK $14
PRG:025F0: 15 37    ORA $37
PRG:025F2: 50 00    BVC $00
PRG:025F4: 00 00    BRK $00
PRG:025F6: 01 FF    ORA $FF
PRG:025F8: 00 10    BRK $10
PRG:025FA: 3C FF 02 NOP $02FF
PRG:025FD: 08       PHP
PRG:025FE: 09 FF    ORA $FF
PRG:02600: 02       .byte $02
PRG:02601: 18       CLC
PRG:02602: 19 1A 00 ORA $001A
PRG:02605: 08       PHP
PRG:02606: F8       SED
PRG:02607: A9 09    LDA $09
PRG:02609: 85 00    STA $00
PRG:0260B: A9 01    LDA $01
PRG:0260D: 85 01    STA $01
PRG:0260F: 20 AD C1 JSR $C1AD
PRG:02612: 38       SEC
PRG:02613: E9 10    SBC $10
PRG:02615: A6 2B    LDX $2B
PRG:02617: 18       CLC
PRG:02618: 7D 04 A6 ADC $A604
PRG:0261B: AA       TAX
PRG:0261C: 29 07    AND $07
PRG:0261E: C9 04    CMP $04
PRG:02620: 90 03    BCC $03
PRG:02622: E8       INX
PRG:02623: E8       INX
PRG:02624: E8       INX
PRG:02625: 8A       TXA
PRG:02626: 29 F8    AND $F8
PRG:02628: 60       RTS
PRG:02629: AD 2A 05 LDA $052A
PRG:0262C: F0 1C    BEQ $1C
PRG:0262E: A5 30    LDA $30
PRG:02630: C9 40    CMP $40
PRG:02632: D0 16    BNE $16
PRG:02634: A5 35    LDA $35
PRG:02636: 29 0F    AND $0F
PRG:02638: C9 08    CMP $08
PRG:0263A: D0 0E    BNE $0E
PRG:0263C: A9 14    LDA $14
PRG:0263E: 85 8D    STA $8D
PRG:02640: 4A       LSR
PRG:02641: 8D 30 05 STA $0530
PRG:02644: A9 06    LDA $06
PRG:02646: 85 8E    STA $8E
PRG:02648: D0 33    BNE $33
PRG:0264A: AD 2E 05 LDA $052E
PRG:0264D: F0 40    BEQ $40
PRG:0264F: CE 2E 05 DEC $052E
PRG:02652: D0 3B    BNE $3B
PRG:02654: 20 07 A6 JSR $A607
PRG:02657: 48       PHA
PRG:02658: AD 2F 05 LDA $052F
PRG:0265B: 0A       ASL
PRG:0265C: 29 F0    AND $F0
PRG:0265E: 85 00    STA $00
PRG:02660: 68       PLA
PRG:02661: 38       SEC
PRG:02662: E5 00    SBC $00
PRG:02664: 4A       LSR
PRG:02665: 4A       LSR
PRG:02666: 4A       LSR
PRG:02667: A6 8E    LDX $8E
PRG:02669: D0 03    BNE $03
PRG:0266B: 18       CLC
PRG:0266C: 69 01    ADC $01
PRG:0266E: 85 8D    STA $8D
PRG:02670: A6 2B    LDX $2B
PRG:02672: E0 02    CPX $02
PRG:02674: D0 03    BNE $03
PRG:02676: 18       CLC
PRG:02677: 69 01    ADC $01
PRG:02679: 4A       LSR
PRG:0267A: 8D 30 05 STA $0530
PRG:0267D: A5 8E    LDA $8E
PRG:0267F: 0A       ASL
PRG:02680: A8       TAY
PRG:02681: B9 0F A8 LDA $A80F
PRG:02684: 85 89    STA $89
PRG:02686: B9 10 A8 LDA $A810
PRG:02689: 85 8A    STA $8A
PRG:0268B: A9 08    LDA $08
PRG:0268D: 85 88    STA $88
PRG:0268F: A5 88    LDA $88
PRG:02691: F0 20    BEQ $20
PRG:02693: A9 08    LDA $08
PRG:02695: 38       SEC
PRG:02696: E5 88    SBC $88
PRG:02698: A8       TAY
PRG:02699: A5 32    LDA $32
PRG:0269B: 38       SEC
PRG:0269C: E5 31    SBC $31
PRG:0269E: 18       CLC
PRG:0269F: 65 8D    ADC $8D
PRG:026A1: AA       TAX
PRG:026A2: B1 89    LDA $89
PRG:026A4: 9D 60 04 STA $0460
PRG:026A7: 98       TYA
PRG:026A8: 18       CLC
PRG:026A9: 69 08    ADC $08
PRG:026AB: A8       TAY
PRG:026AC: B1 89    LDA $89
PRG:026AE: 9D 61 04 STA $0461
PRG:026B1: C6 88    DEC $88
PRG:026B3: 60       RTS
PRG:026B4: A5 88    LDA $88
PRG:026B6: F0 16    BEQ $16
PRG:026B8: AD 30 05 LDA $0530
PRG:026BB: 85 00    STA $00
PRG:026BD: A5 34    LDA $34
PRG:026BF: 38       SEC
PRG:026C0: E5 33    SBC $33
PRG:026C2: 18       CLC
PRG:026C3: 65 00    ADC $00
PRG:026C5: AA       TAX
PRG:026C6: A4 8E    LDY $8E
PRG:026C8: B9 1F A8 LDA $A81F
PRG:026CB: 9D 98 04 STA $0498
PRG:026CE: 60       RTS
PRG:026CF: AD D4 05 LDA $05D4
PRG:026D2: 30 FA    BMI $FA
PRG:026D4: 20 E8 BF JSR $BFE8
PRG:026D7: 90 F5    BCC $F5
PRG:026D9: BD C4 05 LDA $05C4
PRG:026DC: 38       SEC
PRG:026DD: ED C4 05 SBC $05C4
PRG:026E0: 90 EC    BCC $EC
PRG:026E2: C9 08    CMP $08
PRG:026E4: 90 E8    BCC $E8
PRG:026E6: BD 64 06 LDA $0664
PRG:026E9: F0 0A    BEQ $0A
PRG:026EB: A9 00    LDA $00
PRG:026ED: 9D 44 06 STA $0644
PRG:026F0: 20 4A AD JSR $AD4A
PRG:026F3: F0 07    BEQ $07
PRG:026F5: AD D4 05 LDA $05D4
PRG:026F8: C9 05    CMP $05
PRG:026FA: B0 09    BCS $09
PRG:026FC: BD C4 05 LDA $05C4
PRG:026FF: 38       SEC
PRG:02700: E9 13    SBC $13
PRG:02702: 4C 8E 83 JMP $838E
PRG:02705: A9 0A    LDA $0A
PRG:02707: 9D 44 06 STA $0644
PRG:0270A: 20 3E AD JSR $AD3E
PRG:0270D: A9 08    LDA $08
PRG:0270F: 85 A0    STA $A0
PRG:02711: A0 88    LDY $88
PRG:02713: 4C 03 85 JMP $8503
PRG:02716: B9 35 A7 LDA $A735
PRG:02719: C9 80    CMP $80
PRG:0271B: F0 B1    BEQ $B1
PRG:0271D: 20 76 9D JSR $9D76
PRG:02720: B9 36 A7 LDA $A736
PRG:02723: 20 8B 9D JSR $9D8B
PRG:02726: 98       TYA
PRG:02727: 48       PHA
PRG:02728: B9 37 A7 LDA $A737
PRG:0272B: 20 01 C3 JSR $C301
PRG:0272E: 68       PLA
PRG:0272F: A8       TAY
PRG:02730: C8       INY
PRG:02731: C8       INY
PRG:02732: C8       INY
PRG:02733: D0 E1    BNE $E1
PRG:02735: F4 F8    NOP $F8
PRG:02737: 51 FC    EOR $FC
PRG:02739: 00 07    BRK $07
PRG:0273B: F4 03    NOP $03
PRG:0273D: 51 80    EOR $80
PRG:0273F: F4 F0    NOP $F0
PRG:02741: 51 FC    EOR $FC
PRG:02743: F8       SED
PRG:02744: 07       .byte $07
PRG:02745: FC 00 07 NOP $0700
PRG:02748: F4 03    NOP $03
PRG:0274A: 51 80    EOR $80
PRG:0274C: E0 FC    CPX $FC
PRG:0274E: 05 E8    ORA $E8
PRG:02750: FA       NOP
PRG:02751: 4E F0 FA LSR $FAF0
PRG:02754: 4F       .byte $4F
PRG:02755: F8       SED
PRG:02756: FA       NOP
PRG:02757: 4F       .byte $4F
PRG:02758: 00 FA    BRK $FA
PRG:0275A: 4F       .byte $4F
PRG:0275B: 08       PHP
PRG:0275C: FC 06 10 NOP $1006
PRG:0275F: FD 50 80 SBC $8050
PRG:02762: E0 FC    CPX $FC
PRG:02764: 05 E8    ORA $E8
PRG:02766: FA       NOP
PRG:02767: 4E F0 FA LSR $FAF0
PRG:0276A: 4F       .byte $4F
PRG:0276B: F8       SED
PRG:0276C: FB       .byte $FB
PRG:0276D: 4F       .byte $4F
PRG:0276E: 00 FC    BRK $FC
PRG:02770: 4F       .byte $4F
PRG:02771: 08       PHP
PRG:02772: FF       .byte $FF
PRG:02773: 06 10    ASL $10
PRG:02775: FF       .byte $FF
PRG:02776: 50 80    BVC $80
PRG:02778: E0 01    CPX $01
PRG:0277A: 09 E8    ORA $E8
PRG:0277C: FC 74 F0 NOP $F074
PRG:0277F: FC 75 F8 NOP $F875
PRG:02782: FC 75 00 NOP $0075
PRG:02785: FC 75 08 NOP $0875
PRG:02788: 01 0A    ORA $0A
PRG:0278A: 10 01    BPL $01
PRG:0278C: 76 80    ROR $80
PRG:0278E: EC E4 20 CPX $20E4
PRG:02791: EC 04 C2 CPX $C204
PRG:02794: 04 04    NOP $04
PRG:02796: EA       NOP
PRG:02797: EC 14 C4 CPX $C414
PRG:0279A: 04 14    NOP $14
PRG:0279C: EC 80 EC CPX $EC80
PRG:0279F: E4 21    CPX $21
PRG:027A1: EC 04 C3 CPX $C304
PRG:027A4: 04 04    NOP $04
PRG:027A6: EB       .byte $EB
PRG:027A7: EF       .byte $EF
PRG:027A8: 14 C4    NOP $C4
PRG:027AA: 01 14    ORA $14
PRG:027AC: EC 80 EC CPX $EC80
PRG:027AF: E4 22    CPX $22
PRG:027B1: 04 04    NOP $04
PRG:027B3: EB       .byte $EB
PRG:027B4: EA       NOP
PRG:027B5: 0C C4 01 NOP $01C4
PRG:027B8: 14 EC    NOP $EC
PRG:027BA: 80 EC    NOP $EC
PRG:027BC: E4 23    CPX $23
PRG:027BE: EC 04 C2 CPX $C204
PRG:027C1: 04 04    NOP $04
PRG:027C3: EA       NOP
PRG:027C4: EC 14 C4 CPX $C414
PRG:027C7: 04 14    NOP $14
PRG:027C9: EC 80 F8 CPX $F880
PRG:027CC: F8       SED
PRG:027CD: 9F       .byte $9F
PRG:027CE: F4 FC    NOP $FC
PRG:027D0: 08       PHP
PRG:027D1: 04 FC    NOP $FC
PRG:027D3: 08       PHP
PRG:027D4: 80 F8    NOP $F8
PRG:027D6: F8       SED
PRG:027D7: 9F       .byte $9F
PRG:027D8: F6 02    INC $02
PRG:027DA: 08       PHP
PRG:027DB: 02       .byte $02
PRG:027DC: F6 08    INC $08
PRG:027DE: 80 F8    NOP $F8
PRG:027E0: F8       SED
PRG:027E1: 9F       .byte $9F
PRG:027E2: FC 04 08 NOP $0804
PRG:027E5: FC F4 08 NOP $08F4
PRG:027E8: 80 F8    NOP $F8
PRG:027EA: F8       SED
PRG:027EB: 9F       .byte $9F
PRG:027EC: 02       .byte $02
PRG:027ED: 02       .byte $02
PRG:027EE: 08       PHP
PRG:027EF: F6 F6    INC $F6
PRG:027F1: 08       PHP
PRG:027F2: 80 F8    NOP $F8
PRG:027F4: F8       SED
PRG:027F5: 08       PHP
PRG:027F6: 00 00    BRK $00
PRG:027F8: 08       PHP
PRG:027F9: 80 F8    NOP $F8
PRG:027FB: FC 08 00 NOP $0008
PRG:027FE: FC 08 80 NOP $8008
PRG:02801: F8       SED
PRG:02802: 00 08    BRK $08
PRG:02804: 00 F8    BRK $F8
PRG:02806: 08       PHP
PRG:02807: 80 FC    NOP $FC
PRG:02809: 00 08    BRK $08
PRG:0280B: FC F8 08 NOP $08F8
PRG:0280E: 80 27    NOP $27
PRG:02810: A8       TAY
PRG:02811: 37       .byte $37
PRG:02812: A8       TAY
PRG:02813: 47       .byte $47
PRG:02814: A8       TAY
PRG:02815: 57       .byte $57
PRG:02816: A8       TAY
PRG:02817: 67       .byte $67
PRG:02818: A8       TAY
PRG:02819: 77       .byte $77
PRG:0281A: A8       TAY
PRG:0281B: 87       .byte $87
PRG:0281C: A8       TAY
PRG:0281D: 47       .byte $47
PRG:0281E: A8       TAY
PRG:0281F: 00 00    BRK $00
PRG:02821: 03       .byte $03
PRG:02822: 02       .byte $02
PRG:02823: 00 01    BRK $01
PRG:02825: 02       .byte $02
PRG:02826: 02       .byte $02
PRG:02827: 2C 2C 2C BIT $2C2C
PRG:0282A: 2C 2C 2C BIT $2C2C
PRG:0282D: 2C 2C 3C BIT $3C2C
PRG:02830: 3C 3C 3C NOP $3C3C
PRG:02833: 3C 3C 3C NOP $3C3C
PRG:02836: 3C E6 E7 NOP $E7E6
PRG:02839: E8       INX
PRG:0283A: E9 EA    SBC $EA
PRG:0283C: EB       .byte $EB
PRG:0283D: EC ED F6 CPX $F6ED
PRG:02840: F7       .byte $F7
PRG:02841: F8       SED
PRG:02842: F9 FA FB SBC $FBFA
PRG:02845: FC FD 88 NOP $88FD
PRG:02848: 88       DEY
PRG:02849: 88       DEY
PRG:0284A: 88       DEY
PRG:0284B: 88       DEY
PRG:0284C: 88       DEY
PRG:0284D: 88       DEY
PRG:0284E: 88       DEY
PRG:0284F: 6D 6D 6D ADC $6D6D
PRG:02852: 6D 6D 6D ADC $6D6D
PRG:02855: 6D 6D D8 ADC $D86D
PRG:02858: D9 D9 D9 CMP $D9D9
PRG:0285B: D9 D9 D9 CMP $D9D9
PRG:0285E: DA       NOP
PRG:0285F: E8       INX
PRG:02860: E9 E8    SBC $E8
PRG:02862: E9 E8    SBC $E8
PRG:02864: E9 E8    SBC $E8
PRG:02866: E9 B7    SBC $B7
PRG:02868: B8       CLV
PRG:02869: B7       .byte $B7
PRG:0286A: B8       CLV
PRG:0286B: B7       .byte $B7
PRG:0286C: B8       CLV
PRG:0286D: B7       .byte $B7
PRG:0286E: B8       CLV
PRG:0286F: C7       .byte $C7
PRG:02870: C8       INY
PRG:02871: C7       .byte $C7
PRG:02872: C8       INY
PRG:02873: C7       .byte $C7
PRG:02874: C8       INY
PRG:02875: C7       .byte $C7
PRG:02876: C8       INY
PRG:02877: D8       CLD
PRG:02878: D9 D9 D9 CMP $D9D9
PRG:0287B: D9 D9 D9 CMP $D9D9
PRG:0287E: DA       NOP
PRG:0287F: C2       .byte $C2
PRG:02880: C3       .byte $C3
PRG:02881: C2       .byte $C2
PRG:02882: C3       .byte $C3
PRG:02883: C2       .byte $C2
PRG:02884: C3       .byte $C3
PRG:02885: C2       .byte $C2
PRG:02886: C3       .byte $C3
PRG:02887: 22       .byte $22
PRG:02888: A8       TAY
PRG:02889: A8       TAY
PRG:0288A: A8       TAY
PRG:0288B: A8       TAY
PRG:0288C: A8       TAY
PRG:0288D: A8       TAY
PRG:0288E: C9 CA    CMP $CA
PRG:02890: CB       .byte $CB
PRG:02891: CA       DEX
PRG:02892: CB       .byte $CB
PRG:02893: CA       DEX
PRG:02894: CB       .byte $CB
PRG:02895: CA       DEX
PRG:02896: CB       .byte $CB
PRG:02897: 52       .byte $52
PRG:02898: 7D 48 7C ADC $7C48
PRG:0289B: 7E 58 47 ROR $4758
PRG:0289E: 48       PHA
PRG:0289F: 53       .byte $53
PRG:028A0: D5 A9    CMP $A9
PRG:028A2: 5C AA 5C NOP $5CAA
PRG:028A5: AA       TAX
PRG:028A6: 08       PHP
PRG:028A7: AA       TAX
PRG:028A8: FA       NOP
PRG:028A9: A9 40    LDA $40
PRG:028AB: AA       TAX
PRG:028AC: 4A       LSR
PRG:028AD: AA       TAX
PRG:028AE: 7D AA 7D ADC $7DAA
PRG:028B1: AA       TAX
PRG:028B2: 97       .byte $97
PRG:028B3: AA       TAX
PRG:028B4: 97       .byte $97
PRG:028B5: AA       TAX
PRG:028B6: A4 8E    LDY $8E
PRG:028B8: B9 97 A8 LDA $A897
PRG:028BB: 20 6D 9D JSR $9D6D
PRG:028BE: AD 4E 05 LDA $054E
PRG:028C1: 29 F8    AND $F8
PRG:028C3: 0A       ASL
PRG:028C4: 85 01    STA $01
PRG:028C6: BD C4 05 LDA $05C4
PRG:028C9: 38       SEC
PRG:028CA: E5 01    SBC $01
PRG:028CC: 4C D2 91 JMP $91D2
PRG:028CF: 20 B6 A8 JSR $A8B6
PRG:028D2: AD 4E 05 LDA $054E
PRG:028D5: 29 07    AND $07
PRG:028D7: A8       TAY
PRG:028D8: 9D 64 06 STA $0664
PRG:028DB: D0 37    BNE $37
PRG:028DD: 9D 84 06 STA $0684
PRG:028E0: A5 8E    LDA $8E
PRG:028E2: D0 05    BNE $05
PRG:028E4: A9 08    LDA $08
PRG:028E6: 20 CE 91 JSR $91CE
PRG:028E9: AD 4E 05 LDA $054E
PRG:028EC: 8D 2F 05 STA $052F
PRG:028EF: A9 04    LDA $04
PRG:028F1: 8D 2E 05 STA $052E
PRG:028F4: 60       RTS
PRG:028F5: 20 B6 A8 JSR $A8B6
PRG:028F8: A5 3B    LDA $3B
PRG:028FA: C9 40    CMP $40
PRG:028FC: 90 05    BCC $05
PRG:028FE: A9 00    LDA $00
PRG:02900: 9D 94 05 STA $0594
PRG:02903: AD 4F 05 LDA $054F
PRG:02906: 9D 74 06 STA $0674
PRG:02909: AD 4E 05 LDA $054E
PRG:0290C: 29 07    AND $07
PRG:0290E: A8       TAY
PRG:0290F: 09 80    ORA $80
PRG:02911: 9D 64 06 STA $0664
PRG:02914: 88       DEY
PRG:02915: F0 0F    BEQ $0F
PRG:02917: 88       DEY
PRG:02918: F0 11    BEQ $11
PRG:0291A: 88       DEY
PRG:0291B: F0 0A    BEQ $0A
PRG:0291D: 88       DEY
PRG:0291E: 88       DEY
PRG:0291F: 88       DEY
PRG:02920: F0 0C    BEQ $0C
PRG:02922: 88       DEY
PRG:02923: F0 0C    BEQ $0C
PRG:02925: 60       RTS
PRG:02926: 60       RTS
PRG:02927: FE A4 05 INC $05A4
PRG:0292A: 60       RTS
PRG:0292B: 4C F0 95 JMP $95F0
PRG:0292E: A9 FD    LDA $FD
PRG:02930: CD A9 03 CMP $03A9
PRG:02933: 9D D4 05 STA $05D4
PRG:02936: 60       RTS
PRG:02937: 20 B6 A8 JSR $A8B6
PRG:0293A: AD 4F 05 LDA $054F
PRG:0293D: 9D 74 06 STA $0674
PRG:02940: AD 4E 05 LDA $054E
PRG:02943: 29 03    AND $03
PRG:02945: A8       TAY
PRG:02946: 09 88    ORA $88
PRG:02948: D0 0B    BNE $0B
PRG:0294A: 20 B6 A8 JSR $A8B6
PRG:0294D: AD 4E 05 LDA $054E
PRG:02950: 29 03    AND $03
PRG:02952: A8       TAY
PRG:02953: 09 08    ORA $08
PRG:02955: 9D 64 06 STA $0664
PRG:02958: B9 62 A9 LDA $A962
PRG:0295B: 9D A4 05 STA $05A4
PRG:0295E: A9 00    LDA $00
PRG:02960: F0 D1    BEQ $D1
PRG:02962: FD 03 FC SBC $FC03
PRG:02965: 04 20    NOP $20
PRG:02967: AD AA BD LDA $BDAA
PRG:0296A: 94 05    STY $05
PRG:0296C: 48       PHA
PRG:0296D: BD 84 05 LDA $0584
PRG:02970: 48       PHA
PRG:02971: 20 AB A9 JSR $A9AB
PRG:02974: 68       PLA
PRG:02975: 38       SEC
PRG:02976: FD 84 05 SBC $0584
PRG:02979: 85 00    STA $00
PRG:0297B: 68       PLA
PRG:0297C: FD 94 05 SBC $0594
PRG:0297F: 85 01    STA $01
PRG:02981: A5 8B    LDA $8B
PRG:02983: F0 37    BEQ $37
PRG:02985: AD 84 05 LDA $0584
PRG:02988: 38       SEC
PRG:02989: E5 00    SBC $00
PRG:0298B: 8D 84 05 STA $0584
PRG:0298E: AD 94 05 LDA $0594
PRG:02991: E5 01    SBC $01
PRG:02993: 8D 94 05 STA $0594
PRG:02996: BD C4 05 LDA $05C4
PRG:02999: 38       SEC
PRG:0299A: E9 17    SBC $17
PRG:0299C: 90 03    BCC $03
PRG:0299E: 4C 8E 83 JMP $838E
PRG:029A1: BD 64 06 LDA $0664
PRG:029A4: C9 01    CMP $01
PRG:029A6: D0 14    BNE $14
PRG:029A8: 4C 1C 83 JMP $831C
PRG:029AB: BD 64 06 LDA $0664
PRG:029AE: F0 0C    BEQ $0C
PRG:029B0: 30 0B    BMI $0B
PRG:029B2: 0A       ASL
PRG:029B3: A8       TAY
PRG:029B4: B9 9F A8 LDA $A89F
PRG:029B7: 48       PHA
PRG:029B8: B9 9E A8 LDA $A89E
PRG:029BB: 48       PHA
PRG:029BC: 60       RTS
PRG:029BD: BD 94 05 LDA $0594
PRG:029C0: D0 FA    BNE $FA
PRG:029C2: BD 84 05 LDA $0584
PRG:029C5: 38       SEC
PRG:029C6: FD 74 06 SBC $0674
PRG:029C9: CD 84 05 CMP $0584
PRG:029CC: B0 EE    BCS $EE
PRG:029CE: BD 64 06 LDA $0664
PRG:029D1: 29 7F    AND $7F
PRG:029D3: 4C 4C AD JMP $AD4C
PRG:029D6: BD A4 05 LDA $05A4
PRG:029D9: D0 07    BNE $07
PRG:029DB: A5 8B    LDA $8B
PRG:029DD: F0 DD    BEQ $DD
PRG:029DF: FE A4 05 INC $05A4
PRG:029E2: A5 7B    LDA $7B
PRG:029E4: F0 12    BEQ $12
PRG:029E6: DE D4 05 DEC $05D4
PRG:029E9: 20 E4 83 JSR $83E4
PRG:029EC: BD C4 05 LDA $05C4
PRG:029EF: C9 F0    CMP $F0
PRG:029F1: 90 C9    BCC $C9
PRG:029F3: A9 00    LDA $00
PRG:029F5: 85 7B    STA $7B
PRG:029F7: 60       RTS
PRG:029F8: 4C 0D 92 JMP $920D
PRG:029FB: FE C4 05 INC $05C4
PRG:029FE: BD C4 05 LDA $05C4
PRG:02A01: C9 F0    CMP $F0
PRG:02A03: 90 B7    BCC $B7
PRG:02A05: A9 00    LDA $00
PRG:02A07: F0 3F    BEQ $3F
PRG:02A09: A5 3B    LDA $3B
PRG:02A0B: C9 40    CMP $40
PRG:02A0D: 90 07    BCC $07
PRG:02A0F: BD C4 05 LDA $05C4
PRG:02A12: C9 67    CMP $67
PRG:02A14: F0 2A    BEQ $2A
PRG:02A16: A5 4C    LDA $4C
PRG:02A18: F0 1E    BEQ $1E
PRG:02A1A: 8A       TXA
PRG:02A1B: 48       PHA
PRG:02A1C: A2 00    LDX $00
PRG:02A1E: 20 5F C2 JSR $C25F
PRG:02A21: 38       SEC
PRG:02A22: E9 10    SBC $10
PRG:02A24: 85 00    STA $00
PRG:02A26: 68       PLA
PRG:02A27: AA       TAX
PRG:02A28: A5 00    LDA $00
PRG:02A2A: CD C4 05 CMP $05C4
PRG:02A2D: 90 09    BCC $09
PRG:02A2F: A9 00    LDA $00
PRG:02A31: 85 4C    STA $4C
PRG:02A33: 85 4A    STA $4A
PRG:02A35: 4C 32 95 JMP $9532
PRG:02A38: BD C4 05 LDA $05C4
PRG:02A3B: F0 09    BEQ $09
PRG:02A3D: DE C4 05 DEC $05C4
PRG:02A40: 60       RTS
PRG:02A41: 20 54 AA JSR $AA54
PRG:02A44: 90 FA    BCC $FA
PRG:02A46: A9 EF    LDA $EF
PRG:02A48: 4C D2 91 JMP $91D2
PRG:02A4B: 20 54 AA JSR $AA54
PRG:02A4E: 90 F0    BCC $F0
PRG:02A50: A9 00    LDA $00
PRG:02A52: F0 F4    BEQ $F4
PRG:02A54: 20 EA 83 JSR $83EA
PRG:02A57: BD C4 05 LDA $05C4
PRG:02A5A: C9 F0    CMP $F0
PRG:02A5C: 60       RTS
PRG:02A5D: 20 E1 83 JSR $83E1
PRG:02A60: BD D4 05 LDA $05D4
PRG:02A63: 18       CLC
PRG:02A64: 7D A4 05 ADC $05A4
PRG:02A67: C9 20    CMP $20
PRG:02A69: F0 07    BEQ $07
PRG:02A6B: C9 E0    CMP $E0
PRG:02A6D: F0 03    BEQ $03
PRG:02A6F: 4C 33 A9 JMP $A933
PRG:02A72: BD A4 05 LDA $05A4
PRG:02A75: 49 FF    EOR $FF
PRG:02A77: 9D A4 05 STA $05A4
PRG:02A7A: FE A4 05 INC $05A4
PRG:02A7D: 60       RTS
PRG:02A7E: BD D4 05 LDA $05D4
PRG:02A81: C9 55    CMP $55
PRG:02A83: B0 03    BCS $03
PRG:02A85: 20 9B 84 JSR $849B
PRG:02A88: FE D4 05 INC $05D4
PRG:02A8B: BD D4 05 LDA $05D4
PRG:02A8E: C9 5C    CMP $5C
PRG:02A90: 90 1A    BCC $1A
PRG:02A92: 20 72 AA JSR $AA72
PRG:02A95: 4C 5E A9 JMP $A95E
PRG:02A98: BD D4 05 LDA $05D4
PRG:02A9B: C9 41    CMP $41
PRG:02A9D: B0 03    BCS $03
PRG:02A9F: 20 9B 84 JSR $849B
PRG:02AA2: FE D4 05 INC $05D4
PRG:02AA5: BD D4 05 LDA $05D4
PRG:02AA8: C9 4B    CMP $4B
PRG:02AAA: B0 E6    BCS $E6
PRG:02AAC: 60       RTS
PRG:02AAD: A9 00    LDA $00
PRG:02AAF: 85 8B    STA $8B
PRG:02AB1: AD D4 05 LDA $05D4
PRG:02AB4: 30 13    BMI $13
PRG:02AB6: 20 E8 BF JSR $BFE8
PRG:02AB9: 90 0E    BCC $0E
PRG:02ABB: BD C4 05 LDA $05C4
PRG:02ABE: ED C4 05 SBC $05C4
PRG:02AC1: 90 06    BCC $06
PRG:02AC3: C9 10    CMP $10
PRG:02AC5: 90 02    BCC $02
PRG:02AC7: E6 8B    INC $8B
PRG:02AC9: 60       RTS
PRG:02ACA: 9D 64 06 STA $0664
PRG:02ACD: A8       TAY
PRG:02ACE: 20 2C 95 JSR $952C
PRG:02AD1: A9 2C    LDA $2C
PRG:02AD3: 9D 64 05 STA $0564
PRG:02AD6: B9 FE AA LDA $AAFE
PRG:02AD9: 9D E4 05 STA $05E4
PRG:02ADC: B9 FF AA LDA $AAFF
PRG:02ADF: 9D F4 05 STA $05F4
PRG:02AE2: B9 FD AA LDA $AAFD
PRG:02AE5: 4C 6D 9D JMP $9D6D
PRG:02AE8: 20 E8 BF JSR $BFE8
PRG:02AEB: 90 26    BCC $26
PRG:02AED: A9 0A    LDA $0A
PRG:02AEF: 85 A0    STA $A0
PRG:02AF1: BC 64 06 LDY $0664
PRG:02AF4: B9 00 AB LDA $AB00
PRG:02AF7: 9D 64 06 STA $0664
PRG:02AFA: 4C B1 99 JMP $99B1
PRG:02AFD: 5D F8 FC EOR $FCF8
PRG:02B00: 08       PHP
PRG:02B01: 20 28 C1 JSR $C128
PRG:02B04: 20 E8 BF JSR $BFE8
PRG:02B07: 90 0B    BCC $0B
PRG:02B09: AD D4 05 LDA $05D4
PRG:02B0C: 10 05    BPL $05
PRG:02B0E: A9 01    LDA $01
PRG:02B10: 9D 74 06 STA $0674
PRG:02B13: 60       RTS
PRG:02B14: BD 74 06 LDA $0674
PRG:02B17: F0 FA    BEQ $FA
PRG:02B19: BC 64 05 LDY $0564
PRG:02B1C: C0 1A    CPY $1A
PRG:02B1E: F0 07    BEQ $07
PRG:02B20: C0 1B    CPY $1B
PRG:02B22: F0 06    BEQ $06
PRG:02B24: A9 01    LDA $01
PRG:02B26: CD A9 02 CMP $02A9
PRG:02B29: CD A9 03 CMP $03A9
PRG:02B2C: 9D 64 06 STA $0664
PRG:02B2F: A9 1C    LDA $1C
PRG:02B31: 9D 64 05 STA $0564
PRG:02B34: A9 62    LDA $62
PRG:02B36: 4C 6D 9D JMP $9D6D
PRG:02B39: 20 28 C1 JSR $C128
PRG:02B3C: 20 E8 BF JSR $BFE8
PRG:02B3F: 90 D2    BCC $D2
PRG:02B41: FE 64 06 INC $0664
PRG:02B44: 10 CD    BPL $CD
PRG:02B46: A9 00    LDA $00
PRG:02B48: 8D A4 05 STA $05A4
PRG:02B4B: 8D D4 05 STA $05D4
PRG:02B4E: A9 EF    LDA $EF
PRG:02B50: 9D C4 05 STA $05C4
PRG:02B53: A9 E0    LDA $E0
PRG:02B55: 9D E4 05 STA $05E4
PRG:02B58: A9 F8    LDA $F8
PRG:02B5A: 9D F4 05 STA $05F4
PRG:02B5D: A9 3B    LDA $3B
PRG:02B5F: 9D 64 05 STA $0564
PRG:02B62: A9 04    LDA $04
PRG:02B64: 9D 64 06 STA $0664
PRG:02B67: A9 07    LDA $07
PRG:02B69: 85 AB    STA $AB
PRG:02B6B: A9 01    LDA $01
PRG:02B6D: 85 4A    STA $4A
PRG:02B6F: A9 53    LDA $53
PRG:02B71: 4C 6D 9D JMP $9D6D
PRG:02B74: A5 6D    LDA $6D
PRG:02B76: F0 03    BEQ $03
PRG:02B78: 4C 32 95 JMP $9532
PRG:02B7B: A9 E0    LDA $E0
PRG:02B7D: 4C CE 91 JMP $91CE
PRG:02B80: 20 E8 BF JSR $BFE8
PRG:02B83: 90 8E    BCC $8E
PRG:02B85: A0 01    LDY $01
PRG:02B87: 84 6D    STY $6D
PRG:02B89: A9 0A    LDA $0A
PRG:02B8B: 85 A0    STA $A0
PRG:02B8D: 4C 32 95 JMP $9532
PRG:02B90: 4C 0A 92 JMP $920A
PRG:02B93: 20 91 C2 JSR $C291
PRG:02B96: 90 03    BCC $03
PRG:02B98: 20 72 AA JSR $AA72
PRG:02B9B: 20 92 84 JSR $8492
PRG:02B9E: 20 5F C2 JSR $C25F
PRG:02BA1: B0 ED    BCS $ED
PRG:02BA3: 48       PHA
PRG:02BA4: 20 90 AB JSR $AB90
PRG:02BA7: 68       PLA
PRG:02BA8: 18       CLC
PRG:02BA9: 7D F4 05 ADC $05F4
PRG:02BAC: DD C4 05 CMP $05C4
PRG:02BAF: 90 33    BCC $33
PRG:02BB1: 60       RTS
PRG:02BB2: 88       DEY
PRG:02BB3: F0 0A    BEQ $0A
PRG:02BB5: A9 08    LDA $08
PRG:02BB7: 88       DEY
PRG:02BB8: F0 20    BEQ $20
PRG:02BBA: A9 09    LDA $09
PRG:02BBC: 88       DEY
PRG:02BBD: F0 1B    BEQ $1B
PRG:02BBF: AC 34 05 LDY $0534
PRG:02BC2: D0 0C    BNE $0C
PRG:02BC4: A5 6D    LDA $6D
PRG:02BC6: F0 04    BEQ $04
PRG:02BC8: C9 02    CMP $02
PRG:02BCA: D0 08    BNE $08
PRG:02BCC: C8       INY
PRG:02BCD: EE 34 05 INC $0534
PRG:02BD0: C0 02    CPY $02
PRG:02BD2: B0 03    BCS $03
PRG:02BD4: EE 34 05 INC $0534
PRG:02BD7: B9 60 AD LDA $AD60
PRG:02BDA: 9D 64 06 STA $0664
PRG:02BDD: A8       TAY
PRG:02BDE: B9 50 AD LDA $AD50
PRG:02BE1: 4C 6D 9D JMP $9D6D
PRG:02BE4: 9D C4 05 STA $05C4
PRG:02BE7: 20 23 95 JSR $9523
PRG:02BEA: BD 64 05 LDA $0564
PRG:02BED: C9 1D    CMP $1D
PRG:02BEF: F0 4E    BEQ $4E
PRG:02BF1: BC 64 06 LDY $0664
PRG:02BF4: D0 BC    BNE $BC
PRG:02BF6: C9 17    CMP $17
PRG:02BF8: F0 04    BEQ $04
PRG:02BFA: A5 6D    LDA $6D
PRG:02BFC: F0 DC    BEQ $DC
PRG:02BFE: BD 84 05 LDA $0584
PRG:02C01: 85 00    STA $00
PRG:02C03: BD 94 05 LDA $0594
PRG:02C06: 85 01    STA $01
PRG:02C08: 20 D0 C1 JSR $C1D0
PRG:02C0B: 4A       LSR
PRG:02C0C: 4A       LSR
PRG:02C0D: 4A       LSR
PRG:02C0E: 29 06    AND $06
PRG:02C10: 85 00    STA $00
PRG:02C12: A9 06    LDA $06
PRG:02C14: 38       SEC
PRG:02C15: E5 00    SBC $00
PRG:02C17: AC 33 05 LDY $0533
PRG:02C1A: 84 01    STY $01
PRG:02C1C: A8       TAY
PRG:02C1D: F0 05    BEQ $05
PRG:02C1F: 46 01    LSR $01
PRG:02C21: 88       DEY
PRG:02C22: D0 FB    BNE $FB
PRG:02C24: A5 01    LDA $01
PRG:02C26: 29 03    AND $03
PRG:02C28: F0 0A    BEQ $0A
PRG:02C2A: C9 03    CMP $03
PRG:02C2C: F0 0E    BEQ $0E
PRG:02C2E: A8       TAY
PRG:02C2F: B9 66 AD LDA $AD66
PRG:02C32: 10 A6    BPL $A6
PRG:02C34: A4 6E    LDY $6E
PRG:02C36: F0 F6    BEQ $F6
PRG:02C38: A0 01    LDY $01
PRG:02C3A: D0 F3    BNE $F3
PRG:02C3C: A0 00    LDY $00
PRG:02C3E: CD A0 01 CMP $01A0
PRG:02C41: 4C DF AC JMP $ACDF
PRG:02C44: 20 E8 BF JSR $BFE8
PRG:02C47: B0 14    BCS $14
PRG:02C49: 20 2B C1 JSR $C12B
PRG:02C4C: 90 69    BCC $69
PRG:02C4E: FE 54 05 INC $0554
PRG:02C51: BD 54 05 LDA $0554
PRG:02C54: C9 03    CMP $03
PRG:02C56: B0 8F    BCS $8F
PRG:02C58: A9 63    LDA $63
PRG:02C5A: 4C 6D 9D JMP $9D6D
PRG:02C5D: 20 26 95 JSR $9526
PRG:02C60: AD A4 05 LDA $05A4
PRG:02C63: 9D A4 05 STA $05A4
PRG:02C66: A9 EC    LDA $EC
PRG:02C68: 4C 33 A9 JMP $A933
PRG:02C6B: BC 54 05 LDY $0554
PRG:02C6E: 88       DEY
PRG:02C6F: F0 D3    BEQ $D3
PRG:02C71: 88       DEY
PRG:02C72: F0 D0    BEQ $D0
PRG:02C74: 88       DEY
PRG:02C75: D0 13    BNE $13
PRG:02C77: 4C 93 AB JMP $AB93
PRG:02C7A: A9 00    LDA $00
PRG:02C7C: 8D 34 05 STA $0534
PRG:02C7F: 4C E2 89 JMP $89E2
PRG:02C82: EE 34 05 INC $0534
PRG:02C85: A9 09    LDA $09
PRG:02C87: 4C 38 99 JMP $9938
PRG:02C8A: 20 E8 BF JSR $BFE8
PRG:02C8D: 90 28    BCC $28
PRG:02C8F: A9 0A    LDA $0A
PRG:02C91: 85 A0    STA $A0
PRG:02C93: 20 32 95 JSR $9532
PRG:02C96: BD 64 06 LDA $0664
PRG:02C99: C9 02    CMP $02
PRG:02C9B: 90 36    BCC $36
PRG:02C9D: C9 04    CMP $04
PRG:02C9F: 90 22    BCC $22
PRG:02CA1: 38       SEC
PRG:02CA2: E9 04    SBC $04
PRG:02CA4: F0 34    BEQ $34
PRG:02CA6: A8       TAY
PRG:02CA7: 88       DEY
PRG:02CA8: F0 14    BEQ $14
PRG:02CAA: 88       DEY
PRG:02CAB: F0 D5    BEQ $D5
PRG:02CAD: 88       DEY
PRG:02CAE: F0 CA    BEQ $CA
PRG:02CB0: 88       DEY
PRG:02CB1: F0 05    BEQ $05
PRG:02CB3: A9 01    LDA $01
PRG:02CB5: 85 7B    STA $7B
PRG:02CB7: 60       RTS
PRG:02CB8: A9 FF    LDA $FF
PRG:02CBA: 8D 3D 05 STA $053D
PRG:02CBD: 60       RTS
PRG:02CBE: A9 01    LDA $01
PRG:02CC0: 85 8F    STA $8F
PRG:02CC2: 60       RTS
PRG:02CC3: A4 78    LDY $78
PRG:02CC5: D0 17    BNE $17
PRG:02CC7: C9 02    CMP $02
PRG:02CC9: F0 05    BEQ $05
PRG:02CCB: A9 0F    LDA $0F
PRG:02CCD: 8D 28 05 STA $0528
PRG:02CD0: 4C 98 88 JMP $8898
PRG:02CD3: A8       TAY
PRG:02CD4: C8       INY
PRG:02CD5: 84 6D    STY $6D
PRG:02CD7: 84 73    STY $73
PRG:02CD9: 60       RTS
PRG:02CDA: A9 01    LDA $01
PRG:02CDC: 85 6E    STA $6E
PRG:02CDE: 60       RTS
PRG:02CDF: A5 72    LDA $72
PRG:02CE1: D0 4D    BNE $4D
PRG:02CE3: A5 75    LDA $75
PRG:02CE5: F0 10    BEQ $10
PRG:02CE7: 98       TYA
PRG:02CE8: 48       PHA
PRG:02CE9: 8A       TXA
PRG:02CEA: 48       PHA
PRG:02CEB: AE 3A 05 LDX $053A
PRG:02CEE: A9 80    LDA $80
PRG:02CF0: 20 38 99 JSR $9938
PRG:02CF3: 68       PLA
PRG:02CF4: AA       TAX
PRG:02CF5: 68       PLA
PRG:02CF6: A8       TAY
PRG:02CF7: 98       TYA
PRG:02CF8: 29 01    AND $01
PRG:02CFA: A8       TAY
PRG:02CFB: 8E 3A 05 STX $053A
PRG:02CFE: 20 2C 95 JSR $952C
PRG:02D01: 20 4A AD JSR $AD4A
PRG:02D04: A9 C7    LDA $C7
PRG:02D06: 9D 64 05 STA $0564
PRG:02D09: A9 F8    LDA $F8
PRG:02D0B: 9D E4 05 STA $05E4
PRG:02D0E: 9D F4 05 STA $05F4
PRG:02D11: A9 02    LDA $02
PRG:02D13: C5 76    CMP $76
PRG:02D15: A9 00    LDA $00
PRG:02D17: 2A       ROL
PRG:02D18: 9D 24 06 STA $0624
PRG:02D1B: A9 00    LDA $00
PRG:02D1D: 8D 3B 05 STA $053B
PRG:02D20: B9 5A AD LDA $AD5A
PRG:02D23: 85 75    STA $75
PRG:02D25: B9 5C AD LDA $AD5C
PRG:02D28: 85 AB    STA $AB
PRG:02D2A: B9 5E AD LDA $AD5E
PRG:02D2D: 4C 6D 9D JMP $9D6D
PRG:02D30: 4C 32 95 JMP $9532
PRG:02D33: AD 3D 05 LDA $053D
PRG:02D36: D0 F8    BNE $F8
PRG:02D38: 60       RTS
PRG:02D39: A5 7B    LDA $7B
PRG:02D3B: D0 F3    BNE $F3
PRG:02D3D: 60       RTS
PRG:02D3E: A9 01    LDA $01
PRG:02D40: CD A9 06 CMP $06A9
PRG:02D43: CD A9 81 CMP $81A9
PRG:02D46: CD A9 05 CMP $05A9
PRG:02D49: CD A9 00 CMP $00A9
PRG:02D4C: 9D 64 06 STA $0664
PRG:02D4F: 60       RTS
PRG:02D50: 66 5E    ROR $5E
PRG:02D52: 96 A6    STX $A6
PRG:02D54: 65 C5    ADC $C5
PRG:02D56: A8       TAY
PRG:02D57: 4D 5B 59 EOR $595B
PRG:02D5A: 01 FF    ORA $FF
PRG:02D5C: 07       .byte $07
PRG:02D5D: 08       PHP
PRG:02D5E: 4C C1 01 JMP $01C1
PRG:02D61: 03       .byte $03
PRG:02D62: 06 06    ASL $06
PRG:02D64: 06 07    ASL $07
PRG:02D66: 04 02    NOP $02
PRG:02D68: 05 0C    ORA $0C
PRG:02D6A: 0C 38 9E NOP $9E38
PRG:02D6D: BD 8D 80 LDA $808D
PRG:02D70: 9E       .byte $9E
PRG:02D71: 25 23    AND $23
PRG:02D73: 8D 9E C9 STA $C99E
PRG:02D76: 85 9A    STA $9A
PRG:02D78: 9E       .byte $9E
PRG:02D79: 8D 80 05 STA $0580
PRG:02D7C: 9E       .byte $9E
PRG:02D7D: 81 08    STA $08
PRG:02D7F: 8D 9E 8D STA $8D9E
PRG:02D82: 8D 80 9E STA $9E80
PRG:02D85: 85 8D    STA $8D
PRG:02D87: 05 9E    ORA $9E
PRG:02D89: 00 00    BRK $00
PRG:02D8B: 00 00    BRK $00
PRG:02D8D: A5 37    LDA $37
PRG:02D8F: 85 4E    STA $4E
PRG:02D91: A5 38    LDA $38
PRG:02D93: 85 4F    STA $4F
PRG:02D95: A5 39    LDA $39
PRG:02D97: 85 50    STA $50
PRG:02D99: 60       RTS
PRG:02D9A: A5 4E    LDA $4E
PRG:02D9C: 85 37    STA $37
PRG:02D9E: A5 4F    LDA $4F
PRG:02DA0: 85 38    STA $38
PRG:02DA2: A5 50    LDA $50
PRG:02DA4: 85 39    STA $39
PRG:02DA6: 60       RTS
PRG:02DA7: 20 70 60 JSR $6070
PRG:02DAA: 00 00    BRK $00
PRG:02DAC: 00 4F    BRK $4F
PRG:02DAE: 7F       .byte $7F
PRG:02DAF: 9F       .byte $9F
PRG:02DB0: B9 A7 AD LDA $ADA7
PRG:02DB3: 9D 84 05 STA $0584
PRG:02DB6: B9 AA AD LDA $ADAA
PRG:02DB9: 9D 94 05 STA $0594
PRG:02DBC: B9 AD AD LDA $ADAD
PRG:02DBF: 9D C4 05 STA $05C4
PRG:02DC2: 60       RTS
PRG:02DC3: 04 55    NOP $55
PRG:02DC5: A5 A5    LDA $A5
PRG:02DC7: A5 A5    LDA $A5
PRG:02DC9: A5 2F    LDA $2F
PRG:02DCB: CC BB AA CPY $AABB
PRG:02DCE: AA       TAX
PRG:02DCF: AA       TAX
PRG:02DD0: AA       TAX
PRG:02DD1: AA       TAX
PRG:02DD2: 22       .byte $22
PRG:02DD3: A9 00    LDA $00
PRG:02DD5: 85 47    STA $47
PRG:02DD7: 20 5F B1 JSR $B15F
PRG:02DDA: A9 23    LDA $23
PRG:02DDC: 8D 06 20 STA $2006
PRG:02DDF: A9 C8    LDA $C8
PRG:02DE1: 8D 06 20 STA $2006
PRG:02DE4: A2 00    LDX $00
PRG:02DE6: BD C3 AD LDA $ADC3
PRG:02DE9: 8D 07 20 STA $2007
PRG:02DEC: E8       INX
PRG:02DED: E0 10    CPX $10
PRG:02DEF: D0 F5    BNE $F5
PRG:02DF1: 20 35 8C JSR $8C35
PRG:02DF4: A9 01    LDA $01
PRG:02DF6: 8D 54 05 STA $0554
PRG:02DF9: 8D 55 05 STA $0555
PRG:02DFC: A2 00    LDX $00
PRG:02DFE: 8E E5 05 STX $05E5
PRG:02E01: 8E F5 05 STX $05F5
PRG:02E04: 20 87 B1 JSR $B187
PRG:02E07: A2 00    LDX $00
PRG:02E09: A9 03    LDA $03
PRG:02E0B: 20 4A 9D JSR $9D4A
PRG:02E0E: E8       INX
PRG:02E0F: 86 48    STX $48
PRG:02E11: A9 2D    LDA $2D
PRG:02E13: 20 6D 9D JSR $9D6D
PRG:02E16: A5 04    LDA $04
PRG:02E18: 29 FC    AND $FC
PRG:02E1A: 09 01    ORA $01
PRG:02E1C: 85 04    STA $04
PRG:02E1E: A9 01    LDA $01
PRG:02E20: 85 AB    STA $AB
PRG:02E22: 20 D4 C4 JSR $C4D4
PRG:02E25: 4C 34 AE JMP $AE34
PRG:02E28: A2 00    LDX $00
PRG:02E2A: 20 99 AE JSR $AE99
PRG:02E2D: E8       INX
PRG:02E2E: 20 99 AE JSR $AE99
PRG:02E31: 20 C9 8E JSR $8EC9
PRG:02E34: 20 55 B7 JSR $B755
PRG:02E37: A5 04    LDA $04
PRG:02E39: 4A       LSR
PRG:02E3A: B0 36    BCS $36
PRG:02E3C: 20 0C 89 JSR $890C
PRG:02E3F: A5 0F    LDA $0F
PRG:02E41: 29 30    AND $30
PRG:02E43: D0 0C    BNE $0C
PRG:02E45: C6 10    DEC $10
PRG:02E47: D0 DF    BNE $DF
PRG:02E49: C6 11    DEC $11
PRG:02E4B: D0 DB    BNE $DB
PRG:02E4D: A9 01    LDA $01
PRG:02E4F: D0 06    BNE $06
PRG:02E51: C9 10    CMP $10
PRG:02E53: D0 3A    BNE $3A
PRG:02E55: A9 00    LDA $00
PRG:02E57: 85 40    STA $40
PRG:02E59: A9 00    LDA $00
PRG:02E5B: 85 AB    STA $AB
PRG:02E5D: A2 1C    LDX $1C
PRG:02E5F: A9 0F    LDA $0F
PRG:02E61: 9D 40 01 STA $0140
PRG:02E64: CA       DEX
PRG:02E65: CA       DEX
PRG:02E66: CA       DEX
PRG:02E67: CA       DEX
PRG:02E68: 10 F7    BPL $F7
PRG:02E6A: 86 13    STX $13
PRG:02E6C: 20 55 B7 JSR $B755
PRG:02E6F: 4C 23 B0 JMP $B023
PRG:02E72: A5 0F    LDA $0F
PRG:02E74: 29 30    AND $30
PRG:02E76: D0 06    BNE $06
PRG:02E78: E6 06    INC $06
PRG:02E7A: D0 AC    BNE $AC
PRG:02E7C: F0 04    BEQ $04
PRG:02E7E: A9 00    LDA $00
PRG:02E80: 85 06    STA $06
PRG:02E82: A5 04    LDA $04
PRG:02E84: 29 FC    AND $FC
PRG:02E86: 85 04    STA $04
PRG:02E88: A2 00    LDX $00
PRG:02E8A: A9 02    LDA $02
PRG:02E8C: 20 4A 9D JSR $9D4A
PRG:02E8F: A9 00    LDA $00
PRG:02E91: 85 10    STA $10
PRG:02E93: A9 08    LDA $08
PRG:02E95: 85 11    STA $11
PRG:02E97: D0 8F    BNE $8F
PRG:02E99: BD A7 AD LDA $ADA7
PRG:02E9C: 38       SEC
PRG:02E9D: E5 06    SBC $06
PRG:02E9F: 9D 84 05 STA $0584
PRG:02EA2: BD AA AD LDA $ADAA
PRG:02EA5: E5 04    SBC $04
PRG:02EA7: 29 01    AND $01
PRG:02EA9: 9D 94 05 STA $0594
PRG:02EAC: BD AD AD LDA $ADAD
PRG:02EAF: 9D C4 05 STA $05C4
PRG:02EB2: 60       RTS
PRG:02EB3: A5 40    LDA $40
PRG:02EB5: D0 38    BNE $38
PRG:02EB7: 85 48    STA $48
PRG:02EB9: 20 57 B1 JSR $B157
PRG:02EBC: A2 02    LDX $02
PRG:02EBE: 20 87 B1 JSR $B187
PRG:02EC1: A2 00    LDX $00
PRG:02EC3: A0 02    LDY $02
PRG:02EC5: 20 B0 AD JSR $ADB0
PRG:02EC8: A9 02    LDA $02
PRG:02ECA: 20 4A 9D JSR $9D4A
PRG:02ECD: 20 70 88 JSR $8870
PRG:02ED0: A9 78    LDA $78
PRG:02ED2: 85 10    STA $10
PRG:02ED4: 20 D4 C4 JSR $C4D4
PRG:02ED7: 20 55 B7 JSR $B755
PRG:02EDA: 20 A2 88 JSR $88A2
PRG:02EDD: 20 1D 89 JSR $891D
PRG:02EE0: 20 F0 AE JSR $AEF0
PRG:02EE3: 20 FD AE JSR $AEFD
PRG:02EE6: A2 00    LDX $00
PRG:02EE8: 20 01 92 JSR $9201
PRG:02EEB: C6 10    DEC $10
PRG:02EED: D0 E8    BNE $E8
PRG:02EEF: 60       RTS
PRG:02EF0: A9 00    LDA $00
PRG:02EF2: 85 59    STA $59
PRG:02EF4: A2 01    LDX $01
PRG:02EF6: 20 FF AE JSR $AEFF
PRG:02EF9: CA       DEX
PRG:02EFA: 10 FA    BPL $FA
PRG:02EFC: 60       RTS
PRG:02EFD: A2 02    LDX $02
PRG:02EFF: BD CB B1 LDA $B1CB
PRG:02F02: 85 5A    STA $5A
PRG:02F04: BD CE B1 LDA $B1CE
PRG:02F07: 85 5D    STA $5D
PRG:02F09: BC D1 B1 LDY $B1D1
PRG:02F0C: B9 00 00 LDA $0000
PRG:02F0F: 18       CLC
PRG:02F10: 7D D4 B1 ADC $B1D4
PRG:02F13: 4C 01 C3 JMP $C301
PRG:02F16: A9 00    LDA $00
PRG:02F18: 85 48    STA $48
PRG:02F1A: 20 57 B1 JSR $B157
PRG:02F1D: A2 03    LDX $03
PRG:02F1F: 20 87 B1 JSR $B187
PRG:02F22: A0 12    LDY $12
PRG:02F24: 20 77 89 JSR $8977
PRG:02F27: A0 1B    LDY $1B
PRG:02F29: 20 77 89 JSR $8977
PRG:02F2C: 20 D4 C4 JSR $C4D4
PRG:02F2F: A5 78    LDA $78
PRG:02F31: D0 41    BNE $41
PRG:02F33: 20 74 AF JSR $AF74
PRG:02F36: 20 8D AF JSR $AF8D
PRG:02F39: A5 77    LDA $77
PRG:02F3B: 38       SEC
PRG:02F3C: E9 20    SBC $20
PRG:02F3E: 85 77    STA $77
PRG:02F40: B0 02    BCS $02
PRG:02F42: C6 76    DEC $76
PRG:02F44: A5 76    LDA $76
PRG:02F46: 30 0A    BMI $0A
PRG:02F48: A0 01    LDY $01
PRG:02F4A: A9 12    LDA $12
PRG:02F4C: 20 01 8A JSR $8A01
PRG:02F4F: 4C 36 AF JMP $AF36
PRG:02F52: AD 3E 05 LDA $053E
PRG:02F55: F0 0B    BEQ $0B
PRG:02F57: A9 0A    LDA $0A
PRG:02F59: 85 A0    STA $A0
PRG:02F5B: A2 12    LDX $12
PRG:02F5D: A0 1B    LDY $1B
PRG:02F5F: 20 DF AF JSR $AFDF
PRG:02F62: 20 74 AF JSR $AF74
PRG:02F65: A9 12    LDA $12
PRG:02F67: 20 BE AF JSR $AFBE
PRG:02F6A: AD 3E 05 LDA $053E
PRG:02F6D: F0 05    BEQ $05
PRG:02F6F: A9 1B    LDA $1B
PRG:02F71: 20 BE AF JSR $AFBE
PRG:02F74: A9 3C    LDA $3C
PRG:02F76: 85 10    STA $10
PRG:02F78: 20 8D AF JSR $AF8D
PRG:02F7B: C6 10    DEC $10
PRG:02F7D: D0 F9    BNE $F9
PRG:02F7F: 60       RTS
PRG:02F80: E6 10    INC $10
PRG:02F82: A5 10    LDA $10
PRG:02F84: 29 03    AND $03
PRG:02F86: D0 F7    BNE $F7
PRG:02F88: A9 12    LDA $12
PRG:02F8A: 85 A0    STA $A0
PRG:02F8C: 60       RTS
PRG:02F8D: 20 55 B7 JSR $B755
PRG:02F90: 20 A2 88 JSR $88A2
PRG:02F93: 20 1D 89 JSR $891D
PRG:02F96: A9 60    LDA $60
PRG:02F98: 85 5A    STA $5A
PRG:02F9A: A9 67    LDA $67
PRG:02F9C: 85 5D    STA $5D
PRG:02F9E: A9 5A    LDA $5A
PRG:02FA0: 20 01 C3 JSR $C301
PRG:02FA3: A9 9F    LDA $9F
PRG:02FA5: 85 5D    STA $5D
PRG:02FA7: A9 5F    LDA $5F
PRG:02FA9: 20 01 C3 JSR $C301
PRG:02FAC: AD 3E 05 LDA $053E
PRG:02FAF: F0 CE    BEQ $CE
PRG:02FB1: A9 70    LDA $70
PRG:02FB3: 85 5A    STA $5A
PRG:02FB5: A9 B7    LDA $B7
PRG:02FB7: 85 5D    STA $5D
PRG:02FB9: A9 A7    LDA $A7
PRG:02FBB: 4C 01 C3 JMP $C301
PRG:02FBE: 8D 3F 05 STA $053F
PRG:02FC1: 20 8D AF JSR $AF8D
PRG:02FC4: AD 3F 05 LDA $053F
PRG:02FC7: 20 AB 8A JSR $8AAB
PRG:02FCA: F0 A8    BEQ $A8
PRG:02FCC: A0 01    LDY $01
PRG:02FCE: AD 3F 05 LDA $053F
PRG:02FD1: 20 6A 8A JSR $8A6A
PRG:02FD4: A9 01    LDA $01
PRG:02FD6: 20 B8 89 JSR $89B8
PRG:02FD9: 20 80 AF JSR $AF80
PRG:02FDC: 4C C1 AF JMP $AFC1
PRG:02FDF: E8       INX
PRG:02FE0: C8       INY
PRG:02FE1: A9 07    LDA $07
PRG:02FE3: 85 00    STA $00
PRG:02FE5: BD 9A 06 LDA $069A
PRG:02FE8: 99 9A 06 STA $069A
PRG:02FEB: E8       INX
PRG:02FEC: C8       INY
PRG:02FED: C6 00    DEC $00
PRG:02FEF: D0 F4    BNE $F4
PRG:02FF1: 60       RTS
PRG:02FF2: A9 00    LDA $00
PRG:02FF4: 85 47    STA $47
PRG:02FF6: 85 48    STA $48
PRG:02FF8: 85 59    STA $59
PRG:02FFA: 20 57 B1 JSR $B157
PRG:02FFD: A2 01    LDX $01
PRG:02FFF: 86 3F    STX $3F
PRG:03001: 20 87 B1 JSR $B187
PRG:03004: A9 0A    LDA $0A
PRG:03006: 85 AB    STA $AB
PRG:03008: 20 D4 C4 JSR $C4D4
PRG:0300B: 20 55 B7 JSR $B755
PRG:0300E: 20 1D 89 JSR $891D
PRG:03011: A5 0F    LDA $0F
PRG:03013: 29 10    AND $10
PRG:03015: D0 08    BNE $08
PRG:03017: 20 F0 AE JSR $AEF0
PRG:0301A: A5 AB    LDA $AB
PRG:0301C: D0 ED    BNE $ED
PRG:0301E: 60       RTS
PRG:0301F: A9 00    LDA $00
PRG:03021: 85 AB    STA $AB
PRG:03023: A5 08    LDA $08
PRG:03025: 29 0F    AND $0F
PRG:03027: 2D 3D 05 AND $053D
PRG:0302A: 85 47    STA $47
PRG:0302C: 60       RTS
PRG:0302D: C0 88    CPY $88
PRG:0302F: 80 FF    NOP $FF
PRG:03031: 00 00    BRK $00
PRG:03033: 9F       .byte $9F
PRG:03034: 9F       .byte $9F
PRG:03035: 87       .byte $87
PRG:03036: F8       SED
PRG:03037: F8       SED
PRG:03038: F8       SED
PRG:03039: F0 F0    BEQ $F0
PRG:0303B: F8       SED
PRG:0303C: 02       .byte $02
PRG:0303D: 1B       .byte $1B
PRG:0303E: 46 00    LSR $00
PRG:03040: 00 01    BRK $01
PRG:03042: 20 5F B1 JSR $B15F
PRG:03045: A2 04    LDX $04
PRG:03047: 20 87 B1 JSR $B187
PRG:0304A: 20 35 8C JSR $8C35
PRG:0304D: A2 02    LDX $02
PRG:0304F: A9 01    LDA $01
PRG:03051: 9D 54 05 STA $0554
PRG:03054: BD 2D B0 LDA $B02D
PRG:03057: 9D 84 05 STA $0584
PRG:0305A: BD 30 B0 LDA $B030
PRG:0305D: 9D 94 05 STA $0594
PRG:03060: BD 33 B0 LDA $B033
PRG:03063: 9D C4 05 STA $05C4
PRG:03066: BD 36 B0 LDA $B036
PRG:03069: 9D E4 05 STA $05E4
PRG:0306C: BD 39 B0 LDA $B039
PRG:0306F: 9D F4 05 STA $05F4
PRG:03072: BD 3C B0 LDA $B03C
PRG:03075: 85 00    STA $00
PRG:03077: BD 3F B0 LDA $B03F
PRG:0307A: 20 31 B1 JSR $B131
PRG:0307D: CA       DEX
PRG:0307E: 10 CF    BPL $CF
PRG:03080: 86 48    STX $48
PRG:03082: E8       INX
PRG:03083: 8E 86 06 STX $0686
PRG:03086: A9 02    LDA $02
PRG:03088: 8D A4 05 STA $05A4
PRG:0308B: A9 FD    LDA $FD
PRG:0308D: 8D D6 05 STA $05D6
PRG:03090: A9 0B    LDA $0B
PRG:03092: 85 AB    STA $AB
PRG:03094: 20 D4 C4 JSR $C4D4
PRG:03097: 20 55 B7 JSR $B755
PRG:0309A: 20 C2 B0 JSR $B0C2
PRG:0309D: 20 C9 8E JSR $8EC9
PRG:030A0: A5 AB    LDA $AB
PRG:030A2: D0 F3    BNE $F3
PRG:030A4: AD 54 05 LDA $0554
PRG:030A7: C9 08    CMP $08
PRG:030A9: D0 EC    BNE $EC
PRG:030AB: A9 00    LDA $00
PRG:030AD: 85 10    STA $10
PRG:030AF: A9 03    LDA $03
PRG:030B1: 85 11    STA $11
PRG:030B3: 20 55 B7 JSR $B755
PRG:030B6: 20 C9 8E JSR $8EC9
PRG:030B9: C6 10    DEC $10
PRG:030BB: D0 F6    BNE $F6
PRG:030BD: C6 11    DEC $11
PRG:030BF: D0 F2    BNE $F2
PRG:030C1: 60       RTS
PRG:030C2: A2 00    LDX $00
PRG:030C4: BD 54 05 LDA $0554
PRG:030C7: C9 01    CMP $01
PRG:030C9: F0 24    BEQ $24
PRG:030CB: C9 08    CMP $08
PRG:030CD: F0 F2    BEQ $F2
PRG:030CF: DE 64 06 DEC $0664
PRG:030D2: F0 25    BEQ $25
PRG:030D4: C9 06    CMP $06
PRG:030D6: 90 E9    BCC $E9
PRG:030D8: A2 02    LDX $02
PRG:030DA: 20 E7 83 JSR $83E7
PRG:030DD: BD C4 05 LDA $05C4
PRG:030E0: C9 F0    CMP $F0
PRG:030E2: 90 DD    BCC $DD
PRG:030E4: A9 00    LDA $00
PRG:030E6: 9D 84 06 STA $0684
PRG:030E9: A9 08    LDA $08
PRG:030EB: 8D 54 05 STA $0554
PRG:030EE: 60       RTS
PRG:030EF: 20 9B 84 JSR $849B
PRG:030F2: BD 84 05 LDA $0584
PRG:030F5: C9 78    CMP $78
PRG:030F7: D0 C8    BNE $C8
PRG:030F9: FE 54 05 INC $0554
PRG:030FC: BD 54 05 LDA $0554
PRG:030FF: C9 06    CMP $06
PRG:03101: D0 05    BNE $05
PRG:03103: A9 01    LDA $01
PRG:03105: 8D 86 06 STA $0686
PRG:03108: BC 54 05 LDY $0554
PRG:0310B: A9 60    LDA $60
PRG:0310D: 9D 64 06 STA $0664
PRG:03110: 20 27 B1 JSR $B127
PRG:03113: BC 54 05 LDY $0554
PRG:03116: E8       INX
PRG:03117: B9 4F B1 LDA $B14F
PRG:0311A: 85 00    STA $00
PRG:0311C: B9 49 B1 LDA $B149
PRG:0311F: F0 A0    BEQ $A0
PRG:03121: C9 01    CMP $01
PRG:03123: F0 15    BEQ $15
PRG:03125: D0 0E    BNE $0E
PRG:03127: B9 43 B1 LDA $B143
PRG:0312A: 85 00    STA $00
PRG:0312C: B9 3D B1 LDA $B13D
PRG:0312F: F0 90    BEQ $90
PRG:03131: C9 01    CMP $01
PRG:03133: F0 05    BEQ $05
PRG:03135: A5 00    LDA $00
PRG:03137: 4C 4A 9D JMP $9D4A
PRG:0313A: A5 00    LDA $00
PRG:0313C: 4C 6D 9D JMP $9D6D
PRG:0313F: 02       .byte $02
PRG:03140: 00 00    BRK $00
PRG:03142: 01 00    ORA $00
PRG:03144: 00 00    BRK $00
PRG:03146: 00 00    BRK $00
PRG:03148: CC 00 00 CPY $0000
PRG:0314B: 00 01    BRK $01
PRG:0314D: 01 01    ORA $01
PRG:0314F: 01 01    ORA $01
PRG:03151: 00 C8    BRK $C8
PRG:03153: C9 CA    CMP $CA
PRG:03155: CB       .byte $CB
PRG:03156: CA       DEX
PRG:03157: 20 5F B1 JSR $B15F
PRG:0315A: A0 00    LDY $00
PRG:0315C: 4C A5 BA JMP $BAA5
PRG:0315F: 20 EF C4 JSR $C4EF
PRG:03162: A9 83    LDA $83
PRG:03164: 85 0A    STA $0A
PRG:03166: A2 00    LDX $00
PRG:03168: A0 30    LDY $30
PRG:0316A: A9 20    LDA $20
PRG:0316C: 20 A8 BA JSR $BAA8
PRG:0316F: A9 20    LDA $20
PRG:03171: 8D 06 20 STA $2006
PRG:03174: A2 00    LDX $00
PRG:03176: 8E 06 20 STX $2006
PRG:03179: 86 07    STX $07
PRG:0317B: 86 06    STX $06
PRG:0317D: A0 08    LDY $08
PRG:0317F: A9 FF    LDA $FF
PRG:03181: 20 C1 B1 JSR $B1C1
PRG:03184: 4C E4 C4 JMP $C4E4
PRG:03187: BD E6 B1 LDA $B1E6
PRG:0318A: 85 00    STA $00
PRG:0318C: BD D7 B1 LDA $B1D7
PRG:0318F: 85 02    STA $02
PRG:03191: BD DC B1 LDA $B1DC
PRG:03194: 85 03    STA $03
PRG:03196: BD E1 B1 LDA $B1E1
PRG:03199: AA       TAX
PRG:0319A: A0 00    LDY $00
PRG:0319C: BD 01 B2 LDA $B201
PRG:0319F: 8D 06 20 STA $2006
PRG:031A2: BD 17 B2 LDA $B217
PRG:031A5: 8D 06 20 STA $2006
PRG:031A8: BD EB B1 LDA $B1EB
PRG:031AB: 85 01    STA $01
PRG:031AD: B1 02    LDA $02
PRG:031AF: 8D 07 20 STA $2007
PRG:031B2: C8       INY
PRG:031B3: D0 02    BNE $02
PRG:031B5: E6 03    INC $03
PRG:031B7: C6 01    DEC $01
PRG:031B9: D0 F2    BNE $F2
PRG:031BB: E8       INX
PRG:031BC: C6 00    DEC $00
PRG:031BE: D0 DC    BNE $DC
PRG:031C0: 60       RTS
PRG:031C1: 8D 07 20 STA $2007
PRG:031C4: CA       DEX
PRG:031C5: D0 FA    BNE $FA
PRG:031C7: 88       DEY
PRG:031C8: D0 F7    BNE $F7
PRG:031CA: 60       RTS
PRG:031CB: 90 90    BCC $90
PRG:031CD: 90 4F    BCC $4F
PRG:031CF: 67       .byte $67
PRG:031D0: 97       .byte $97
PRG:031D1: 37       .byte $37
PRG:031D2: 38       SEC
PRG:031D3: 3F       .byte $3F
PRG:031D4: 0F       .byte $0F
PRG:031D5: 0F       .byte $0F
PRG:031D6: 0E 2D 2E ASL $2E2D
PRG:031D9: 37       .byte $37
PRG:031DA: 41 57    EOR $57
PRG:031DC: B2       .byte $B2
PRG:031DD: B3       .byte $B3
PRG:031DE: B3       .byte $B3
PRG:031DF: B3       .byte $B3
PRG:031E0: B3       .byte $B3
PRG:031E1: 00 0D    BRK $0D
PRG:031E3: 0E 11 13 ASL $1311
PRG:031E6: 0D 03 03 ORA $0303
PRG:031E9: 02       .byte $02
PRG:031EA: 03       .byte $03
PRG:031EB: 16 19    ASL $19
PRG:031ED: 19 18 16 ORA $1618
PRG:031F0: 16 16    ASL $16
PRG:031F2: 16 03    ASL $03
PRG:031F4: 0A       ASL
PRG:031F5: 19 0B 18 ORA $180B
PRG:031F8: 09 04    ORA $04
PRG:031FA: 05 01    ORA $01
PRG:031FC: 0B       .byte $0B
PRG:031FD: 0B       .byte $0B
PRG:031FE: 10 0E    BPL $0E
PRG:03200: 11 20    ORA $20
PRG:03202: 20 20 20 JSR $2020
PRG:03205: 21 21    AND $21
PRG:03207: 21 21    AND $21
PRG:03209: 22       .byte $22
PRG:0320A: 22       .byte $22
PRG:0320B: 22       .byte $22
PRG:0320C: 23       .byte $23
PRG:0320D: 23       .byte $23
PRG:0320E: 22       .byte $22
PRG:0320F: 21 21    AND $21
PRG:03211: 22       .byte $22
PRG:03212: 21 22    AND $22
PRG:03214: 20 21 21 JSR $2121
PRG:03217: 85 A5    STA $A5
PRG:03219: C4 E5    CPY $E5
PRG:0321B: 07       .byte $07
PRG:0321C: 27       .byte $27
PRG:0321D: 47       .byte $47
PRG:0321E: 67       .byte $67
PRG:0321F: 0A       ASL
PRG:03220: 6B       .byte $6B
PRG:03221: E3       .byte $E3
PRG:03222: 2A       ROL
PRG:03223: 64 4A    NOP $4A
PRG:03225: 4B       .byte $4B
PRG:03226: AB       .byte $AB
PRG:03227: 6F       .byte $6F
PRG:03228: 4A       LSR
PRG:03229: 2A       ROL
PRG:0322A: A8       TAY
PRG:0322B: 09 48    ORA $48
PRG:0322D: E8       INX
PRG:0322E: F5 E4    SBC $E4
PRG:03230: F3       .byte $F3
PRG:03231: EF       .byte $EF
PRG:03232: EE BF F3 INC $F3BF
PRG:03235: 06 07    ASL $07
PRG:03237: 20 21 23 JSR $2321
PRG:0323A: 24 25    BIT $25
PRG:0323C: 26 27    ROL $27
PRG:0323E: 40       RTI
PRG:0323F: 41 42    EOR $42
PRG:03241: 02       .byte $02
PRG:03242: 03       .byte $03
PRG:03243: 8E 8A 8F STX $8F8A
PRG:03246: 8E 8A 8F STX $8F8A
PRG:03249: FF       .byte $FF
PRG:0324A: FF       .byte $FF
PRG:0324B: 16 17    ASL $17
PRG:0324D: 30 31    BMI $31
PRG:0324F: 32       .byte $32
PRG:03250: 33       .byte $33
PRG:03251: 34 35    NOP $35
PRG:03253: 43       .byte $43
PRG:03254: 44 45    NOP $45
PRG:03256: 50 12    BVC $12
PRG:03258: 13       .byte $13
PRG:03259: FF       .byte $FF
PRG:0325A: F4 ED    NOP $ED
PRG:0325C: 8E 8A 8B STX $8B8A
PRG:0325F: A9 AB    LDA $AB
PRG:03261: 70 60    BVS $60
PRG:03263: 60       RTS
PRG:03264: 53       .byte $53
PRG:03265: 52       .byte $52
PRG:03266: 53       .byte $53
PRG:03267: FF       .byte $FF
PRG:03268: FF       .byte $FF
PRG:03269: FF       .byte $FF
PRG:0326A: 52       .byte $52
PRG:0326B: 53       .byte $53
PRG:0326C: FF       .byte $FF
PRG:0326D: 52       .byte $52
PRG:0326E: 53       .byte $53
PRG:0326F: 52       .byte $52
PRG:03270: 53       .byte $53
PRG:03271: 52       .byte $52
PRG:03272: 60       RTS
PRG:03273: 60       RTS
PRG:03274: 4C 8E 8A JMP $8A8E
PRG:03277: 6A       ROR
PRG:03278: 5F       .byte $5F
PRG:03279: 71 4D    ADC $4D
PRG:0327B: 4E 65 62 LSR $6265
PRG:0327E: 63       .byte $63
PRG:0327F: FF       .byte $FF
PRG:03280: FF       .byte $FF
PRG:03281: FF       .byte $FF
PRG:03282: 72       .byte $72
PRG:03283: 73       .byte $73
PRG:03284: FF       .byte $FF
PRG:03285: 62       .byte $62
PRG:03286: 73       .byte $73
PRG:03287: 62       .byte $62
PRG:03288: 63       .byte $63
PRG:03289: 62       .byte $62
PRG:0328A: 4D BE 61 EOR $61BE
PRG:0328D: 72       .byte $72
PRG:0328E: 73       .byte $73
PRG:0328F: 75 6E    ADC $6E
PRG:03291: 6F       .byte $6F
PRG:03292: FF       .byte $FF
PRG:03293: 72       .byte $72
PRG:03294: 73       .byte $73
PRG:03295: FF       .byte $FF
PRG:03296: FF       .byte $FF
PRG:03297: 88       DEY
PRG:03298: 9E       .byte $9E
PRG:03299: 9F       .byte $9F
PRG:0329A: 99 72 BA STA $BA72
PRG:0329D: BB       .byte $BB
PRG:0329E: 73       .byte $73
PRG:0329F: 72       .byte $72
PRG:032A0: 73       .byte $73
PRG:032A1: CE 61 54 DEC $5461
PRG:032A4: 55 9B    EOR $9B
PRG:032A6: 7E 7F 4C ROR $4C7F
PRG:032A9: 54 55    NOP $55
PRG:032AB: FF       .byte $FF
PRG:032AC: FF       .byte $FF
PRG:032AD: 72       .byte $72
PRG:032AE: AE AF 73 LDX $73AF
PRG:032B1: 54 5E    NOP $5E
PRG:032B3: 4F       .byte $4F
PRG:032B4: 55 54    EOR $54
PRG:032B6: 55 CE    EOR $CE
PRG:032B8: 61 62    ADC $62
PRG:032BA: 63       .byte $63
PRG:032BB: 52       .byte $52
PRG:032BC: AA       TAX
PRG:032BD: 5D 61 62 EOR $6261
PRG:032C0: 5C 76 6C NOP $6C76
PRG:032C3: D0 D1    BNE $D1
PRG:032C5: D3       .byte $D3
PRG:032C6: B8       CLV
PRG:032C7: 62       .byte $62
PRG:032C8: 63       .byte $63
PRG:032C9: 54 63    NOP $63
PRG:032CB: 62       .byte $62
PRG:032CC: 5C 5D 61 NOP $615D
PRG:032CF: 64 65    NOP $65
PRG:032D1: 64 51    NOP $51
PRG:032D3: 51 74    EOR $74
PRG:032D5: 64 51    NOP $51
PRG:032D7: 51 65    EOR $65
PRG:032D9: D2       .byte $D2
PRG:032DA: FF       .byte $FF
PRG:032DB: FF       .byte $FF
PRG:032DC: B9 64 65 LDA $6564
PRG:032DF: 64 65    NOP $65
PRG:032E1: 64 51    NOP $51
PRG:032E3: 51 74    EOR $74
PRG:032E5: F4 EF    NOP $EF
PRG:032E7: F0 F0    BEQ $F0
PRG:032E9: F5 F3    SBC $F3
PRG:032EB: E8       INX
PRG:032EC: FF       .byte $FF
PRG:032ED: F3       .byte $F3
PRG:032EE: F4 E1    NOP $E1
PRG:032F0: F2       .byte $F2
PRG:032F1: F4 F4    NOP $F4
PRG:032F3: ED FF E1 SBC $E1FF
PRG:032F6: EE E4 FF INC $FFE4
PRG:032F9: CF       .byte $CF
PRG:032FA: FF       .byte $FF
PRG:032FB: DE DF FD DEC $FDDF
PRG:032FE: FE FF E8 INC $E8FF
PRG:03301: F5 E4    SBC $E4
PRG:03303: F3       .byte $F3
PRG:03304: EF       .byte $EF
PRG:03305: EE FF F3 INC $F3FF
PRG:03308: EF       .byte $EF
PRG:03309: E6 F4    INC $F4
PRG:0330B: EC E9 E3 CPX $E3E9
PRG:0330E: E5 EE    SBC $EE
PRG:03310: F3       .byte $F3
PRG:03311: E5 E4    SBC $E4
PRG:03313: FF       .byte $FF
PRG:03314: E2       .byte $E2
PRG:03315: F9 EE E9 SBC $E9EE
PRG:03318: EE F4 E5 INC $E5F4
PRG:0331B: EE E4 EF INC $EFE4
PRG:0331E: FF       .byte $FF
PRG:0331F: EF       .byte $EF
PRG:03320: E6 FF    INC $FF
PRG:03322: E1 ED    SBC $ED
PRG:03324: E5 F2    SBC $F2
PRG:03326: E9 E3    SBC $E3
PRG:03328: E1 FF    SBC $FF
PRG:0332A: E9 EE    SBC $EE
PRG:0332C: E3       .byte $E3
PRG:0332D: 69 E7    ADC $E7
PRG:0332F: E1 ED    SBC $ED
PRG:03331: E5 FF    SBC $FF
PRG:03333: EF       .byte $EF
PRG:03334: F6 E5    INC $E5
PRG:03336: F2       .byte $F2
PRG:03337: E1 F2    SBC $F2
PRG:03339: E5 E1    SBC $E1
PRG:0333B: F2       .byte $F2
PRG:0333C: EF       .byte $EF
PRG:0333D: F5 EE    SBC $EE
PRG:0333F: E4 F8    CPX $F8
PRG:03341: F2       .byte $F2
PRG:03342: EF       .byte $EF
PRG:03343: F5 EE    SBC $EE
PRG:03345: E4 FF    CPX $FF
PRG:03347: E2       .byte $E2
PRG:03348: EF       .byte $EF
PRG:03349: EE F5 F3 INC $F3F5
PRG:0334C: F0 EF    BEQ $EF
PRG:0334E: F4 FF    NOP $FF
PRG:03350: FF       .byte $FF
PRG:03351: FF       .byte $FF
PRG:03352: E2       .byte $E2
PRG:03353: EF       .byte $EF
PRG:03354: EE F5 F3 INC $F3F5
PRG:03357: E3       .byte $E3
PRG:03358: EF       .byte $EF
PRG:03359: EE E7 F2 INC $F2E7
PRG:0335C: E1 F4    SBC $F4
PRG:0335E: F5 EC    SBC $EC
PRG:03360: E1 F4    SBC $F4
PRG:03362: E9 EF    SBC $EF
PRG:03364: EE F3 C8 INC $C8F3
PRG:03367: F9 EF F5 SBC $F5EF
PRG:0336A: FF       .byte $FF
PRG:0336B: E8       INX
PRG:0336C: E1 F6    SBC $F6
PRG:0336E: E5 FF    SBC $FF
PRG:03370: F3       .byte $F3
PRG:03371: E1 F6    SBC $F6
PRG:03373: E5 E4    SBC $E4
PRG:03375: F9 EF F5 SBC $F5EF
PRG:03378: F2       .byte $F2
PRG:03379: FF       .byte $FF
PRG:0337A: EC EF F6 CPX $F6EF
PRG:0337D: E5 EC    SBC $EC
PRG:0337F: F9 FF F4 SBC $F4FF
PRG:03382: E9 EE    SBC $EE
PRG:03384: E1 69    SBC $69
PRG:03386: 29 07    AND $07
PRG:03388: 0A       ASL
PRG:03389: 0A       ASL
PRG:0338A: 0A       ASL
PRG:0338B: 0A       ASL
PRG:0338C: 0A       ASL
PRG:0338D: 60       RTS
PRG:0338E: A5 54    LDA $54
PRG:03390: 20 86 B3 JSR $B386
PRG:03393: 05 53    ORA $53
PRG:03395: AA       TAX
PRG:03396: 60       RTS
PRG:03397: 20 29 A6 JSR $A629
PRG:0339A: A5 35    LDA $35
PRG:0339C: 29 1F    AND $1F
PRG:0339E: 85 53    STA $53
PRG:033A0: 8D 1B 05 STA $051B
PRG:033A3: A5 32    LDA $32
PRG:033A5: 38       SEC
PRG:033A6: E9 08    SBC $08
PRG:033A8: 85 00    STA $00
PRG:033AA: A5 31    LDA $31
PRG:033AC: 85 54    STA $54
PRG:033AE: A0 00    LDY $00
PRG:033B0: A5 54    LDA $54
PRG:033B2: C5 32    CMP $32
PRG:033B4: B0 12    BCS $12
PRG:033B6: C5 00    CMP $00
PRG:033B8: 90 09    BCC $09
PRG:033BA: 20 8E B3 JSR $B38E
PRG:033BD: B9 60 04 LDA $0460
PRG:033C0: 9D E0 01 STA $01E0
PRG:033C3: E6 54    INC $54
PRG:033C5: C8       INY
PRG:033C6: D0 E8    BNE $E8
PRG:033C8: A5 32    LDA $32
PRG:033CA: 20 A9 BF JSR $BFA9
PRG:033CD: AA       TAX
PRG:033CE: 86 00    STX $00
PRG:033D0: B9 60 04 LDA $0460
PRG:033D3: 9D D4 04 STA $04D4
PRG:033D6: E8       INX
PRG:033D7: E0 1E    CPX $1E
PRG:033D9: 90 02    BCC $02
PRG:033DB: A2 00    LDX $00
PRG:033DD: E6 54    INC $54
PRG:033DF: C8       INY
PRG:033E0: E4 00    CPX $00
PRG:033E2: D0 EC    BNE $EC
PRG:033E4: A5 54    LDA $54
PRG:033E6: 18       CLC
PRG:033E7: 69 08    ADC $08
PRG:033E9: 85 00    STA $00
PRG:033EB: C0 38    CPY $38
PRG:033ED: B0 14    BCS $14
PRG:033EF: A5 54    LDA $54
PRG:033F1: C5 00    CMP $00
PRG:033F3: B0 0E    BCS $0E
PRG:033F5: 20 8E B3 JSR $B38E
PRG:033F8: B9 60 04 LDA $0460
PRG:033FB: 9D E0 02 STA $02E0
PRG:033FE: E6 54    INC $54
PRG:03400: C8       INY
PRG:03401: D0 E8    BNE $E8
PRG:03403: A5 35    LDA $35
PRG:03405: 29 20    AND $20
PRG:03407: 4A       LSR
PRG:03408: 4A       LSR
PRG:03409: 4A       LSR
PRG:0340A: 09 20    ORA $20
PRG:0340C: 8D 1A 05 STA $051A
PRG:0340F: 85 14    STA $14
PRG:03411: 60       RTS
PRG:03412: A5 54    LDA $54
PRG:03414: 29 03    AND $03
PRG:03416: 20 89 B3 JSR $B389
PRG:03419: 05 53    ORA $53
PRG:0341B: AA       TAX
PRG:0341C: 60       RTS
PRG:0341D: 20 B4 A6 JSR $A6B4
PRG:03420: A5 35    LDA $35
PRG:03422: 4A       LSR
PRG:03423: 85 55    STA $55
PRG:03425: 29 0F    AND $0F
PRG:03427: 85 53    STA $53
PRG:03429: A5 34    LDA $34
PRG:0342B: 38       SEC
PRG:0342C: E9 04    SBC $04
PRG:0342E: 85 00    STA $00
PRG:03430: A5 33    LDA $33
PRG:03432: 85 54    STA $54
PRG:03434: A0 00    LDY $00
PRG:03436: A5 54    LDA $54
PRG:03438: C5 34    CMP $34
PRG:0343A: B0 12    BCS $12
PRG:0343C: C5 00    CMP $00
PRG:0343E: 90 09    BCC $09
PRG:03440: 20 12 B4 JSR $B412
PRG:03443: B9 98 04 LDA $0498
PRG:03446: 9D E0 03 STA $03E0
PRG:03449: E6 54    INC $54
PRG:0344B: C8       INY
PRG:0344C: D0 E8    BNE $E8
PRG:0344E: A5 34    LDA $34
PRG:03450: 20 BE B4 JSR $B4BE
PRG:03453: 85 56    STA $56
PRG:03455: A2 0F    LDX $0F
PRG:03457: B9 98 04 LDA $0498
PRG:0345A: 85 57    STA $57
PRG:0345C: 20 AE BF JSR $BFAE
PRG:0345F: E6 56    INC $56
PRG:03461: A5 56    LDA $56
PRG:03463: C9 0F    CMP $0F
PRG:03465: 90 04    BCC $04
PRG:03467: A9 00    LDA $00
PRG:03469: 85 56    STA $56
PRG:0346B: E6 54    INC $54
PRG:0346D: C8       INY
PRG:0346E: CA       DEX
PRG:0346F: D0 E6    BNE $E6
PRG:03471: A5 54    LDA $54
PRG:03473: 18       CLC
PRG:03474: 69 04    ADC $04
PRG:03476: 85 00    STA $00
PRG:03478: C0 1C    CPY $1C
PRG:0347A: B0 14    BCS $14
PRG:0347C: A5 54    LDA $54
PRG:0347E: C5 00    CMP $00
PRG:03480: B0 0E    BCS $0E
PRG:03482: 20 12 B4 JSR $B412
PRG:03485: B9 98 04 LDA $0498
PRG:03488: 9D 20 04 STA $0420
PRG:0348B: E6 54    INC $54
PRG:0348D: C8       INY
PRG:0348E: D0 E8    BNE $E8
PRG:03490: A5 35    LDA $35
PRG:03492: 29 20    AND $20
PRG:03494: 4A       LSR
PRG:03495: 4A       LSR
PRG:03496: 4A       LSR
PRG:03497: 09 23    ORA $23
PRG:03499: 8D 21 05 STA $0521
PRG:0349C: A5 35    LDA $35
PRG:0349E: 4A       LSR
PRG:0349F: 4A       LSR
PRG:034A0: AA       TAX
PRG:034A1: 29 07    AND $07
PRG:034A3: 09 C0    ORA $C0
PRG:034A5: 8D 22 05 STA $0522
PRG:034A8: 85 16    STA $16
PRG:034AA: A0 F8    LDY $F8
PRG:034AC: BD 60 01 LDA $0160
PRG:034AF: 99 02 04 STA $0402
PRG:034B2: 8A       TXA
PRG:034B3: 18       CLC
PRG:034B4: 69 10    ADC $10
PRG:034B6: AA       TAX
PRG:034B7: C8       INY
PRG:034B8: D0 F2    BNE $F2
PRG:034BA: 60       RTS
PRG:034BB: 38       SEC
PRG:034BC: E9 0F    SBC $0F
PRG:034BE: C9 0F    CMP $0F
PRG:034C0: B0 F9    BCS $F9
PRG:034C2: 60       RTS
PRG:034C3: 20 A0 B5 JSR $B5A0
PRG:034C6: A5 35    LDA $35
PRG:034C8: 29 03    AND $03
PRG:034CA: 85 53    STA $53
PRG:034CC: A2 00    LDX $00
PRG:034CE: 86 54    STX $54
PRG:034D0: 20 0A B5 JSR $B50A
PRG:034D3: 20 28 B5 JSR $B528
PRG:034D6: 20 28 B5 JSR $B528
PRG:034D9: E6 54    INC $54
PRG:034DB: A9 05    LDA $05
PRG:034DD: 85 00    STA $00
PRG:034DF: 20 0A B5 JSR $B50A
PRG:034E2: E6 54    INC $54
PRG:034E4: C6 00    DEC $00
PRG:034E6: D0 F7    BNE $F7
PRG:034E8: 60       RTS
PRG:034E9: 20 B1 B5 JSR $B5B1
PRG:034EC: A5 35    LDA $35
PRG:034EE: 29 03    AND $03
PRG:034F0: 85 53    STA $53
PRG:034F2: A2 20    LDX $20
PRG:034F4: A9 00    LDA $00
PRG:034F6: 85 54    STA $54
PRG:034F8: A9 05    LDA $05
PRG:034FA: 85 00    STA $00
PRG:034FC: 20 0A B5 JSR $B50A
PRG:034FF: E6 54    INC $54
PRG:03501: C6 00    DEC $00
PRG:03503: D0 F7    BNE $F7
PRG:03505: C6 54    DEC $54
PRG:03507: 4C 28 B5 JMP $B528
PRG:0350A: A9 00    LDA $00
PRG:0350C: 85 03    STA $03
PRG:0350E: A4 54    LDY $54
PRG:03510: B1 28    LDA $28
PRG:03512: 0A       ASL
PRG:03513: 26 03    ROL $03
PRG:03515: 0A       ASL
PRG:03516: 26 03    ROL $03
PRG:03518: 0A       ASL
PRG:03519: 26 03    ROL $03
PRG:0351B: 0A       ASL
PRG:0351C: 26 03    ROL $03
PRG:0351E: 65 24    ADC $24
PRG:03520: 85 02    STA $02
PRG:03522: A5 03    LDA $03
PRG:03524: 65 25    ADC $25
PRG:03526: 85 03    STA $03
PRG:03528: A5 53    LDA $53
PRG:0352A: A8       TAY
PRG:0352B: B1 02    LDA $02
PRG:0352D: 9D 60 04 STA $0460
PRG:03530: E8       INX
PRG:03531: 98       TYA
PRG:03532: 18       CLC
PRG:03533: 69 04    ADC $04
PRG:03535: C9 10    CMP $10
PRG:03537: 90 F1    BCC $F1
PRG:03539: 60       RTS
PRG:0353A: 20 A0 B5 JSR $B5A0
PRG:0353D: A2 00    LDX $00
PRG:0353F: 86 54    STX $54
PRG:03541: 20 72 B5 JSR $B572
PRG:03544: 20 72 B5 JSR $B572
PRG:03547: 20 72 B5 JSR $B572
PRG:0354A: E6 54    INC $54
PRG:0354C: A9 05    LDA $05
PRG:0354E: 85 00    STA $00
PRG:03550: 20 72 B5 JSR $B572
PRG:03553: E6 54    INC $54
PRG:03555: C6 00    DEC $00
PRG:03557: D0 F7    BNE $F7
PRG:03559: 60       RTS
PRG:0355A: 20 B1 B5 JSR $B5B1
PRG:0355D: A2 10    LDX $10
PRG:0355F: A9 00    LDA $00
PRG:03561: 85 54    STA $54
PRG:03563: A9 05    LDA $05
PRG:03565: 85 00    STA $00
PRG:03567: 20 72 B5 JSR $B572
PRG:0356A: E6 54    INC $54
PRG:0356C: C6 00    DEC $00
PRG:0356E: D0 F7    BNE $F7
PRG:03570: C6 54    DEC $54
PRG:03572: A4 54    LDY $54
PRG:03574: B1 28    LDA $28
PRG:03576: A8       TAY
PRG:03577: A5 35    LDA $35
PRG:03579: 4A       LSR
PRG:0357A: 4A       LSR
PRG:0357B: B0 0C    BCS $0C
PRG:0357D: B1 26    LDA $26
PRG:0357F: 29 03    AND $03
PRG:03581: 9D 98 04 STA $0498
PRG:03584: B1 26    LDA $26
PRG:03586: E8       INX
PRG:03587: 10 0C    BPL $0C
PRG:03589: B1 26    LDA $26
PRG:0358B: 4A       LSR
PRG:0358C: 4A       LSR
PRG:0358D: 48       PHA
PRG:0358E: 29 03    AND $03
PRG:03590: 9D 98 04 STA $0498
PRG:03593: E8       INX
PRG:03594: 68       PLA
PRG:03595: 4A       LSR
PRG:03596: 4A       LSR
PRG:03597: 4A       LSR
PRG:03598: 4A       LSR
PRG:03599: 29 03    AND $03
PRG:0359B: 9D 98 04 STA $0498
PRG:0359E: E8       INX
PRG:0359F: 60       RTS
PRG:035A0: 20 C6 B5 JSR $B5C6
PRG:035A3: B1 1E    LDA $1E
PRG:035A5: 0A       ASL
PRG:035A6: 71 1E    ADC $1E
PRG:035A8: 0A       ASL
PRG:035A9: 65 20    ADC $20
PRG:035AB: 85 28    STA $28
PRG:035AD: A5 21    LDA $21
PRG:035AF: D0 10    BNE $10
PRG:035B1: 20 C6 B5 JSR $B5C6
PRG:035B4: C8       INY
PRG:035B5: B1 1E    LDA $1E
PRG:035B7: 0A       ASL
PRG:035B8: 0A       ASL
PRG:035B9: 71 1E    ADC $1E
PRG:035BB: 65 22    ADC $22
PRG:035BD: 85 28    STA $28
PRG:035BF: A5 23    LDA $23
PRG:035C1: 69 00    ADC $00
PRG:035C3: 85 29    STA $29
PRG:035C5: 60       RTS
PRG:035C6: A5 35    LDA $35
PRG:035C8: 29 0F    AND $0F
PRG:035CA: 4A       LSR
PRG:035CB: 4A       LSR
PRG:035CC: AA       TAX
PRG:035CD: BD 02 05 LDA $0502
PRG:035D0: 0A       ASL
PRG:035D1: A8       TAY
PRG:035D2: 60       RTS
PRG:035D3: E0 E0    CPX $E0
PRG:035D5: 01 02    ORA $02
PRG:035D7: A6 2B    LDX $2B
PRG:035D9: F0 7D    BEQ $7D
PRG:035DB: 86 15    STX $15
PRG:035DD: A5 35    LDA $35
PRG:035DF: 49 20    EOR $20
PRG:035E1: 85 53    STA $53
PRG:035E3: 29 1F    AND $1F
PRG:035E5: 8D 20 05 STA $0520
PRG:035E8: A8       TAY
PRG:035E9: A5 32    LDA $32
PRG:035EB: CA       DEX
PRG:035EC: F0 03    BEQ $03
PRG:035EE: 18       CLC
PRG:035EF: 69 1D    ADC $1D
PRG:035F1: 48       PHA
PRG:035F2: 20 86 B3 JSR $B386
PRG:035F5: 7D D3 B5 ADC $B5D3
PRG:035F8: 85 00    STA $00
PRG:035FA: A9 00    LDA $00
PRG:035FC: 7D D5 B5 ADC $B5D5
PRG:035FF: 85 01    STA $01
PRG:03601: A2 E0    LDX $E0
PRG:03603: B1 00    LDA $00
PRG:03605: 9D D4 03 STA $03D4
PRG:03608: C8       INY
PRG:03609: 98       TYA
PRG:0360A: 29 1F    AND $1F
PRG:0360C: A8       TAY
PRG:0360D: E8       INX
PRG:0360E: D0 F3    BNE $F3
PRG:03610: 68       PLA
PRG:03611: 20 A9 BF JSR $BFA9
PRG:03614: 85 54    STA $54
PRG:03616: 8D 1E 05 STA $051E
PRG:03619: A9 00    LDA $00
PRG:0361B: 4E 1E 05 LSR $051E
PRG:0361E: 6A       ROR
PRG:0361F: 4E 1E 05 LSR $051E
PRG:03622: 6A       ROR
PRG:03623: 4E 1E 05 LSR $051E
PRG:03626: 6A       ROR
PRG:03627: 8D 1F 05 STA $051F
PRG:0362A: A5 53    LDA $53
PRG:0362C: 29 20    AND $20
PRG:0362E: 4A       LSR
PRG:0362F: 4A       LSR
PRG:03630: 4A       LSR
PRG:03631: 09 20    ORA $20
PRG:03633: 0D 1E 05 ORA $051E
PRG:03636: 8D 1E 05 STA $051E
PRG:03639: AD 20 05 LDA $0520
PRG:0363C: F0 1A    BEQ $1A
PRG:0363E: 0D 1F 05 ORA $051F
PRG:03641: 8D 1D 05 STA $051D
PRG:03644: AD 1E 05 LDA $051E
PRG:03647: 8D 1C 05 STA $051C
PRG:0364A: 49 04    EOR $04
PRG:0364C: 8D 1E 05 STA $051E
PRG:0364F: A9 20    LDA $20
PRG:03651: 38       SEC
PRG:03652: ED 20 05 SBC $0520
PRG:03655: 8D 20 05 STA $0520
PRG:03658: 60       RTS
PRG:03659: A6 2B    LDX $2B
PRG:0365B: F0 FB    BEQ $FB
PRG:0365D: 86 17    STX $17
PRG:0365F: A5 35    LDA $35
PRG:03661: 49 20    EOR $20
PRG:03663: 4A       LSR
PRG:03664: 48       PHA
PRG:03665: 85 55    STA $55
PRG:03667: 29 0F    AND $0F
PRG:03669: A8       TAY
PRG:0366A: A5 34    LDA $34
PRG:0366C: CA       DEX
PRG:0366D: F0 03    BEQ $03
PRG:0366F: 18       CLC
PRG:03670: 69 0E    ADC $0E
PRG:03672: 48       PHA
PRG:03673: 20 BE B4 JSR $B4BE
PRG:03676: 85 56    STA $56
PRG:03678: 68       PLA
PRG:03679: 29 03    AND $03
PRG:0367B: 20 89 B3 JSR $B389
PRG:0367E: 7D 02 B7 ADC $B702
PRG:03681: 85 18    STA $18
PRG:03683: BD 04 B7 LDA $B704
PRG:03686: 69 00    ADC $00
PRG:03688: 85 19    STA $19
PRG:0368A: A2 10    LDX $10
PRG:0368C: B1 18    LDA $18
PRG:0368E: 85 57    STA $57
PRG:03690: 20 AE BF JSR $BFAE
PRG:03693: C8       INY
PRG:03694: 98       TYA
PRG:03695: 29 0F    AND $0F
PRG:03697: A8       TAY
PRG:03698: E6 55    INC $55
PRG:0369A: A5 55    LDA $55
PRG:0369C: 29 1F    AND $1F
PRG:0369E: 85 55    STA $55
PRG:036A0: CA       DEX
PRG:036A1: D0 E9    BNE $E9
PRG:036A3: 68       PLA
PRG:036A4: 4A       LSR
PRG:036A5: A8       TAY
PRG:036A6: A5 56    LDA $56
PRG:036A8: 0A       ASL
PRG:036A9: 0A       ASL
PRG:036AA: 48       PHA
PRG:036AB: 0A       ASL
PRG:036AC: 29 70    AND $70
PRG:036AE: 18       CLC
PRG:036AF: 69 60    ADC $60
PRG:036B1: 85 00    STA $00
PRG:036B3: A9 01    LDA $01
PRG:036B5: 69 00    ADC $00
PRG:036B7: 85 01    STA $01
PRG:036B9: A2 F8    LDX $F8
PRG:036BB: B1 00    LDA $00
PRG:036BD: 9D FA 03 STA $03FA
PRG:036C0: C8       INY
PRG:036C1: 98       TYA
PRG:036C2: 29 0F    AND $0F
PRG:036C4: A8       TAY
PRG:036C5: E8       INX
PRG:036C6: D0 F3    BNE $F3
PRG:036C8: 68       PLA
PRG:036C9: 29 38    AND $38
PRG:036CB: 09 C0    ORA $C0
PRG:036CD: 8D 26 05 STA $0526
PRG:036D0: A5 35    LDA $35
PRG:036D2: 29 20    AND $20
PRG:036D4: 4A       LSR
PRG:036D5: 4A       LSR
PRG:036D6: 4A       LSR
PRG:036D7: 49 27    EOR $27
PRG:036D9: 8D 25 05 STA $0525
PRG:036DC: A5 35    LDA $35
PRG:036DE: 4A       LSR
PRG:036DF: 4A       LSR
PRG:036E0: 29 07    AND $07
PRG:036E2: 8D 27 05 STA $0527
PRG:036E5: F0 1A    BEQ $1A
PRG:036E7: 0D 26 05 ORA $0526
PRG:036EA: 8D 24 05 STA $0524
PRG:036ED: AD 25 05 LDA $0525
PRG:036F0: 8D 23 05 STA $0523
PRG:036F3: 49 04    EOR $04
PRG:036F5: 8D 25 05 STA $0525
PRG:036F8: A9 08    LDA $08
PRG:036FA: 38       SEC
PRG:036FB: ED 27 05 SBC $0527
PRG:036FE: 8D 27 05 STA $0527
PRG:03701: 60       RTS
PRG:03702: E0 20    CPX $20
PRG:03704: 03       .byte $03
PRG:03705: 04 48    NOP $48
PRG:03707: A5 0C    LDA $0C
PRG:03709: D0 48    BNE $48
PRG:0370B: A9 01    LDA $01
PRG:0370D: 85 0C    STA $0C
PRG:0370F: 8A       TXA
PRG:03710: 48       PHA
PRG:03711: 98       TYA
PRG:03712: 48       PHA
PRG:03713: A5 0B    LDA $0B
PRG:03715: F0 2C    BEQ $2C
PRG:03717: A9 00    LDA $00
PRG:03719: 8D 03 20 STA $2003
PRG:0371C: A9 07    LDA $07
PRG:0371E: 8D 14 40 STA $4014
PRG:03721: 20 72 B8 JSR $B872
PRG:03724: 20 F2 B7 JSR $B7F2
PRG:03727: A9 00    LDA $00
PRG:03729: 8D 06 20 STA $2006
PRG:0372C: 8D 06 20 STA $2006
PRG:0372F: A5 04    LDA $04
PRG:03731: 8D 00 20 STA $2000
PRG:03734: A5 05    LDA $05
PRG:03736: 8D 01 20 STA $2001
PRG:03739: A5 06    LDA $06
PRG:0373B: 8D 05 20 STA $2005
PRG:0373E: A5 07    LDA $07
PRG:03740: 8D 05 20 STA $2005
PRG:03743: 20 81 C6 JSR $C681
PRG:03746: 20 BE C8 JSR $C8BE
PRG:03749: 68       PLA
PRG:0374A: A8       TAY
PRG:0374B: 68       PLA
PRG:0374C: AA       TAX
PRG:0374D: A9 00    LDA $00
PRG:0374F: 85 0B    STA $0B
PRG:03751: 85 0C    STA $0C
PRG:03753: 68       PLA
PRG:03754: 40       RTI
PRG:03755: A9 FF    LDA $FF
PRG:03757: 85 0B    STA $0B
PRG:03759: A5 0B    LDA $0B
PRG:0375B: D0 FC    BNE $FC
PRG:0375D: 20 C2 C2 JSR $C2C2
PRG:03760: 20 06 C5 JSR $C506
PRG:03763: 20 B2 B7 JSR $B7B2
PRG:03766: 20 82 B7 JSR $B782
PRG:03769: A5 0D    LDA $0D
PRG:0376B: F0 04    BEQ $04
PRG:0376D: A9 10    LDA $10
PRG:0376F: 85 A0    STA $A0
PRG:03771: E6 66    INC $66
PRG:03773: A5 66    LDA $66
PRG:03775: C9 10    CMP $10
PRG:03777: 90 04    BCC $04
PRG:03779: A9 00    LDA $00
PRG:0377B: 85 66    STA $66
PRG:0377D: A9 00    LDA $00
PRG:0377F: 85 0D    STA $0D
PRG:03781: 60       RTS
PRG:03782: A9 10    LDA $10
PRG:03784: 20 89 B7 JSR $B789
PRG:03787: A9 20    LDA $20
PRG:03789: 85 00    STA $00
PRG:0378B: 25 08    AND $08
PRG:0378D: F0 14    BEQ $14
PRG:0378F: A5 0E    LDA $0E
PRG:03791: 25 00    AND $00
PRG:03793: F0 14    BEQ $14
PRG:03795: A5 00    LDA $00
PRG:03797: 49 FF    EOR $FF
PRG:03799: 25 0E    AND $0E
PRG:0379B: 85 0E    STA $0E
PRG:0379D: A5 0F    LDA $0F
PRG:0379F: 05 00    ORA $00
PRG:037A1: D0 0C    BNE $0C
PRG:037A3: A5 00    LDA $00
PRG:037A5: 05 0E    ORA $0E
PRG:037A7: 85 0E    STA $0E
PRG:037A9: A5 00    LDA $00
PRG:037AB: 49 FF    EOR $FF
PRG:037AD: 25 0F    AND $0F
PRG:037AF: 85 0F    STA $0F
PRG:037B1: 60       RTS
PRG:037B2: A5 40    LDA $40
PRG:037B4: F0 31    BEQ $31
PRG:037B6: A5 43    LDA $43
PRG:037B8: 29 3F    AND $3F
PRG:037BA: 85 43    STA $43
PRG:037BC: C6 42    DEC $42
PRG:037BE: D0 27    BNE $27
PRG:037C0: A0 00    LDY $00
PRG:037C2: B1 9C    LDA $9C
PRG:037C4: 29 C0    AND $C0
PRG:037C6: 09 01    ORA $01
PRG:037C8: 85 43    STA $43
PRG:037CA: B1 9C    LDA $9C
PRG:037CC: 4A       LSR
PRG:037CD: 4A       LSR
PRG:037CE: 4A       LSR
PRG:037CF: 51 9C    EOR $9C
PRG:037D1: 29 07    AND $07
PRG:037D3: AA       TAX
PRG:037D4: E8       INX
PRG:037D5: 86 42    STX $42
PRG:037D7: E6 9C    INC $9C
PRG:037D9: D0 0C    BNE $0C
PRG:037DB: E6 9D    INC $9D
PRG:037DD: D0 08    BNE $08
PRG:037DF: A9 4B    LDA $4B
PRG:037E1: 85 9C    STA $9C
PRG:037E3: A9 D9    LDA $D9
PRG:037E5: 85 9D    STA $9D
PRG:037E7: 60       RTS
PRG:037E8: A5 40    LDA $40
PRG:037EA: F0 03    BEQ $03
PRG:037EC: A5 43    LDA $43
PRG:037EE: 60       RTS
PRG:037EF: A5 08    LDA $08
PRG:037F1: 60       RTS
PRG:037F2: A5 13    LDA $13
PRG:037F4: F0 1A    BEQ $1A
PRG:037F6: A9 3F    LDA $3F
PRG:037F8: 8D 06 20 STA $2006
PRG:037FB: A9 00    LDA $00
PRG:037FD: 8D 06 20 STA $2006
PRG:03800: A2 20    LDX $20
PRG:03802: A0 00    LDY $00
PRG:03804: B9 40 01 LDA $0140
PRG:03807: 8D 07 20 STA $2007
PRG:0380A: C8       INY
PRG:0380B: CA       DEX
PRG:0380C: D0 F6    BNE $F6
PRG:0380E: 86 13    STX $13
PRG:03810: A5 0A    LDA $0A
PRG:03812: 10 0D    BPL $0D
PRG:03814: 29 03    AND $03
PRG:03816: AA       TAX
PRG:03817: BD 65 B8 LDA $B865
PRG:0381A: 9D 65 B8 STA $B865
PRG:0381D: A9 00    LDA $00
PRG:0381F: 85 0A    STA $0A
PRG:03821: A5 12    LDA $12
PRG:03823: F0 3F    BEQ $3F
PRG:03825: A9 22    LDA $22
PRG:03827: 8D 06 20 STA $2006
PRG:0382A: A9 88    LDA $88
PRG:0382C: 8D 06 20 STA $2006
PRG:0382F: A2 F8    LDX $F8
PRG:03831: BD 71 B7 LDA $B771
PRG:03834: 8D 07 20 STA $2007
PRG:03837: E8       INX
PRG:03838: D0 F7    BNE $F7
PRG:0383A: A9 22    LDA $22
PRG:0383C: 8D 06 20 STA $2006
PRG:0383F: A9 A8    LDA $A8
PRG:03841: 8D 06 20 STA $2006
PRG:03844: A2 F8    LDX $F8
PRG:03846: BD 72 B7 LDA $B772
PRG:03849: 8D 07 20 STA $2007
PRG:0384C: E8       INX
PRG:0384D: D0 F7    BNE $F7
PRG:0384F: A9 23    LDA $23
PRG:03851: 8D 06 20 STA $2006
PRG:03854: A9 EA    LDA $EA
PRG:03856: 8D 06 20 STA $2006
PRG:03859: A2 FF    LDX $FF
PRG:0385B: 8E 07 20 STX $2007
PRG:0385E: 8E 07 20 STX $2007
PRG:03861: E8       INX
PRG:03862: 86 12    STX $12
PRG:03864: 60       RTS
PRG:03865: 30 31    BMI $31
PRG:03867: 32       .byte $32
PRG:03868: 33       .byte $33
PRG:03869: 04 05    NOP $05
PRG:0386B: 04 05    NOP $05
PRG:0386D: 04 05    NOP $05
PRG:0386F: 04 05    NOP $05
PRG:03871: 04 A4    NOP $A4
PRG:03873: 15 F0    ORA $F0
PRG:03875: 34 A0    NOP $A0
PRG:03877: E0 AE    CPX $AE
PRG:03879: 20 05 F0 JSR $F005
PRG:0387C: 16 AD    ASL $AD
PRG:0387E: 1C 05 8D NOP $8D05
PRG:03881: 06 20    ASL $20
PRG:03883: AD 1D 05 LDA $051D
PRG:03886: 8D 06 20 STA $2006
PRG:03889: B9 D4 03 LDA $03D4
PRG:0388C: 8D 07 20 STA $2007
PRG:0388F: C8       INY
PRG:03890: CA       DEX
PRG:03891: D0 F6    BNE $F6
PRG:03893: AD 1E 05 LDA $051E
PRG:03896: 8D 06 20 STA $2006
PRG:03899: AD 1F 05 LDA $051F
PRG:0389C: 8D 06 20 STA $2006
PRG:0389F: B9 D4 03 LDA $03D4
PRG:038A2: 8D 07 20 STA $2007
PRG:038A5: C8       INY
PRG:038A6: D0 F7    BNE $F7
PRG:038A8: 84 15    STY $15
PRG:038AA: A5 14    LDA $14
PRG:038AC: F0 25    BEQ $25
PRG:038AE: A5 04    LDA $04
PRG:038B0: 09 04    ORA $04
PRG:038B2: 8D 00 20 STA $2000
PRG:038B5: AD 1A 05 LDA $051A
PRG:038B8: 8D 06 20 STA $2006
PRG:038BB: AD 1B 05 LDA $051B
PRG:038BE: 8D 06 20 STA $2006
PRG:038C1: A2 E2    LDX $E2
PRG:038C3: BD F2 03 LDA $03F2
PRG:038C6: 8D 07 20 STA $2007
PRG:038C9: E8       INX
PRG:038CA: D0 F7    BNE $F7
PRG:038CC: 86 14    STX $14
PRG:038CE: A5 04    LDA $04
PRG:038D0: 8D 00 20 STA $2000
PRG:038D3: A6 17    LDX $17
PRG:038D5: F0 34    BEQ $34
PRG:038D7: A0 F8    LDY $F8
PRG:038D9: AE 27 05 LDX $0527
PRG:038DC: F0 16    BEQ $16
PRG:038DE: AD 23 05 LDA $0523
PRG:038E1: 8D 06 20 STA $2006
PRG:038E4: AD 24 05 LDA $0524
PRG:038E7: 8D 06 20 STA $2006
PRG:038EA: B9 FA 03 LDA $03FA
PRG:038ED: 8D 07 20 STA $2007
PRG:038F0: C8       INY
PRG:038F1: CA       DEX
PRG:038F2: D0 F6    BNE $F6
PRG:038F4: AD 25 05 LDA $0525
PRG:038F7: 8D 06 20 STA $2006
PRG:038FA: AD 26 05 LDA $0526
PRG:038FD: 8D 06 20 STA $2006
PRG:03900: B9 FA 03 LDA $03FA
PRG:03903: 8D 07 20 STA $2007
PRG:03906: C8       INY
PRG:03907: D0 F7    BNE $F7
PRG:03909: 84 17    STY $17
PRG:0390B: A5 16    LDA $16
PRG:0390D: F0 1C    BEQ $1C
PRG:0390F: A0 F8    LDY $F8
PRG:03911: AD 22 05 LDA $0522
PRG:03914: AE 21 05 LDX $0521
PRG:03917: 8E 06 20 STX $2006
PRG:0391A: 8D 06 20 STA $2006
PRG:0391D: BE 02 04 LDX $0402
PRG:03920: 8E 07 20 STX $2007
PRG:03923: 18       CLC
PRG:03924: 69 08    ADC $08
PRG:03926: C8       INY
PRG:03927: D0 EB    BNE $EB
PRG:03929: 84 16    STY $16
PRG:0392B: 60       RTS
PRG:0392C: 00 1F    BRK $1F
PRG:0392E: 21 4F    AND $4F
PRG:03930: 1F       .byte $1F
PRG:03931: BF       .byte $BF
PRG:03932: 2F       .byte $2F
PRG:03933: 4F       .byte $4F
PRG:03934: 6F       .byte $6F
PRG:03935: 0F       .byte $0F
PRG:03936: 1F       .byte $1F
PRG:03937: 4F       .byte $4F
PRG:03938: 00 3F    BRK $3F
PRG:0393A: CF       .byte $CF
PRG:0393B: 4F       .byte $4F
PRG:0393C: 1F       .byte $1F
PRG:0393D: 9F       .byte $9F
PRG:0393E: 7F       .byte $7F
PRG:0393F: 4F       .byte $4F
PRG:03940: 1F       .byte $1F
PRG:03941: 52       .byte $52
PRG:03942: 3F       .byte $3F
PRG:03943: 4F       .byte $4F
PRG:03944: DF       .byte $DF
PRG:03945: 1F       .byte $1F
PRG:03946: AF       .byte $AF
PRG:03947: 4F       .byte $4F
PRG:03948: 3F       .byte $3F
PRG:03949: 1F       .byte $1F
PRG:0394A: 8F       .byte $8F
PRG:0394B: 4F       .byte $4F
PRG:0394C: 2A       ROL
PRG:0394D: 1A       NOP
PRG:0394E: 2C 2C 17 BIT $172C
PRG:03951: 27       .byte $27
PRG:03952: 29 17    AND $17
PRG:03954: 27       .byte $27
PRG:03955: 29 17    AND $17
PRG:03957: 2C 20 11 BIT $1120
PRG:0395A: 21 18    AND $18
PRG:0395C: 28       PLP
PRG:0395D: 21 21    AND $21
PRG:0395F: 17       .byte $17
PRG:03960: 27       .byte $27
PRG:03961: 1A       NOP
PRG:03962: 29 21    AND $21
PRG:03964: 17       .byte $17
PRG:03965: 27       .byte $27
PRG:03966: 07       .byte $07
PRG:03967: 18       CLC
PRG:03968: 28       PLP
PRG:03969: 38       SEC
PRG:0396A: 30 3C    BMI $3C
PRG:0396C: 21 26    AND $26
PRG:0396E: 06 30    ASL $30
PRG:03970: 20 11 21 JSR $2111
PRG:03973: 20 21 10 JSR $1021
PRG:03976: 00 00    BRK $00
PRG:03978: 00 00    BRK $00
PRG:0397A: 00 00    BRK $00
PRG:0397C: 18       CLC
PRG:0397D: 08       PHP
PRG:0397E: 01 01    ORA $01
PRG:03980: 17       .byte $17
PRG:03981: 27       .byte $27
PRG:03982: 09 17    ORA $17
PRG:03984: 27       .byte $27
PRG:03985: 09 17    ORA $17
PRG:03987: 01 13    ORA $13
PRG:03989: 22       .byte $22
PRG:0398A: 04 17    NOP $17
PRG:0398C: 27       .byte $27
PRG:0398D: 37       .byte $37
PRG:0398E: 30 33    BMI $33
PRG:03990: 21 26    AND $26
PRG:03992: 06 30    ASL $30
PRG:03994: 27       .byte $27
PRG:03995: 37       .byte $37
PRG:03996: 17       .byte $17
PRG:03997: 0F       .byte $0F
PRG:03998: 0F       .byte $0F
PRG:03999: 0F       .byte $0F
PRG:0399A: 26 36    ROL $36
PRG:0399C: 15 21    ORA $21
PRG:0399E: 11 01    ORA $01
PRG:039A0: 2C 3C 11 BIT $113C
PRG:039A3: 0F       .byte $0F
PRG:039A4: 0F       .byte $0F
PRG:039A5: 0F       .byte $0F
PRG:039A6: 26 36    ROL $36
PRG:039A8: 15 23    ORA $23
PRG:039AA: 13       .byte $13
PRG:039AB: 04 26    NOP $26
PRG:039AD: 36 16    ROL $16
PRG:039AF: 0F       .byte $0F
PRG:039B0: 0F       .byte $0F
PRG:039B1: 0F       .byte $0F
PRG:039B2: 26 36    ROL $36
PRG:039B4: 15 29    ORA $29
PRG:039B6: 19 09 18 ORA $1809
PRG:039B9: 28       PLP
PRG:039BA: 08       PHP
PRG:039BB: 1A       NOP
PRG:039BC: 2A       ROL
PRG:039BD: 3A       NOP
PRG:039BE: 0F       .byte $0F
PRG:039BF: 0F       .byte $0F
PRG:039C0: 0F       .byte $0F
PRG:039C1: 26 06    ROL $06
PRG:039C3: 30 10    BMI $10
PRG:039C5: 20 00 00 JSR $0000
PRG:039C8: 10 30    BPL $30
PRG:039CA: 0F       .byte $0F
PRG:039CB: 0F       .byte $0F
PRG:039CC: 0F       .byte $0F
PRG:039CD: 26 06    ROL $06
PRG:039CF: 30 18    BMI $18
PRG:039D1: 28       PLP
PRG:039D2: 07       .byte $07
PRG:039D3: 1B       .byte $1B
PRG:039D4: 29 39    AND $39
PRG:039D6: 26 06    ROL $06
PRG:039D8: 30 2C    BMI $2C
PRG:039DA: 1C 0C 21 NOP $210C
PRG:039DD: 30 11    BMI $11
PRG:039DF: 18       CLC
PRG:039E0: 28       PLP
PRG:039E1: 38       SEC
PRG:039E2: 30 3C    BMI $3C
PRG:039E4: 21 3C    AND $3C
PRG:039E6: 21 11    AND $11
PRG:039E8: 21 30    AND $30
PRG:039EA: 11 0F    ORA $0F
PRG:039EC: 0F       .byte $0F
PRG:039ED: 0F       .byte $0F
PRG:039EE: 30 33    BMI $33
PRG:039F0: 21 23    AND $23
PRG:039F2: 13       .byte $13
PRG:039F3: 03       .byte $03
PRG:039F4: FA       NOP
PRG:039F5: 01 0E    ORA $0E
PRG:039F7: B9 BA BA LDA $BABA
PRG:039FA: 30 01    BMI $01
PRG:039FC: 00 26    BRK $26
PRG:039FE: 06 2C    ASL $2C
PRG:03A00: FF       .byte $FF
PRG:03A01: 20 01 03 JSR $0301
PRG:03A04: 3C 21 11 NOP $1121
PRG:03A07: 36 01    ROL $01
PRG:03A09: 03       .byte $03
PRG:03A0A: 26 06    ROL $06
PRG:03A0C: 30 FF    BMI $FF
PRG:03A0E: 20 01 03 JSR $0301
PRG:03A11: 30 23    BMI $23
PRG:03A13: 13       .byte $13
PRG:03A14: 36 01    ROL $01
PRG:03A16: 03       .byte $03
PRG:03A17: 26 06    ROL $06
PRG:03A19: 30 FF    BMI $FF
PRG:03A1B: 63       .byte $63
PRG:03A1C: 64 63    NOP $63
PRG:03A1E: 57       .byte $57
PRG:03A1F: 67       .byte $67
PRG:03A20: 68       PLA
PRG:03A21: 9C       .byte $9C
PRG:03A22: 9B       .byte $9B
PRG:03A23: AB       .byte $AB
PRG:03A24: 34 34    NOP $34
PRG:03A26: 34 67    NOP $67
PRG:03A28: 66 67    ROR $67
PRG:03A2A: 55 55    EOR $55
PRG:03A2C: 55 79    EOR $79
PRG:03A2E: 79 78 71 ADC $7178
PRG:03A31: 71 71    ADC $71
PRG:03A33: A5 37    LDA $37
PRG:03A35: 0A       ASL
PRG:03A36: 65 37    ADC $37
PRG:03A38: AA       TAX
PRG:03A39: A0 00    LDY $00
PRG:03A3B: BD 1B BA LDA $BA1B
PRG:03A3E: 4A       LSR
PRG:03A3F: 4A       LSR
PRG:03A40: 4A       LSR
PRG:03A41: 4A       LSR
PRG:03A42: 29 0F    AND $0F
PRG:03A44: 19 B9 BA ORA $BAB9
PRG:03A47: 99 49 01 STA $0149
PRG:03A4A: BD 1B BA LDA $BA1B
PRG:03A4D: 29 0F    AND $0F
PRG:03A4F: 19 BC BA ORA $BABC
PRG:03A52: 99 4D 01 STA $014D
PRG:03A55: E8       INX
PRG:03A56: C8       INY
PRG:03A57: C0 03    CPY $03
PRG:03A59: 90 E0    BCC $E0
PRG:03A5B: 84 13    STY $13
PRG:03A5D: 60       RTS
PRG:03A5E: AD 2A 05 LDA $052A
PRG:03A61: F0 55    BEQ $55
PRG:03A63: A5 3B    LDA $3B
PRG:03A65: C9 3E    CMP $3E
PRG:03A67: D0 03    BNE $03
PRG:03A69: 20 33 BA JSR $BA33
PRG:03A6C: A5 3B    LDA $3B
PRG:03A6E: C9 3A    CMP $3A
PRG:03A70: D0 1B    BNE $1B
PRG:03A72: A5 6E    LDA $6E
PRG:03A74: F0 17    BEQ $17
PRG:03A76: AD 84 05 LDA $0584
PRG:03A79: 85 84    STA $84
PRG:03A7B: AD 94 05 LDA $0594
PRG:03A7E: 85 85    STA $85
PRG:03A80: AD C4 05 LDA $05C4
PRG:03A83: 85 86    STA $86
PRG:03A85: A9 08    LDA $08
PRG:03A87: 20 2B 99 JSR $992B
PRG:03A8A: 20 F5 C0 JSR $C0F5
PRG:03A8D: A5 3B    LDA $3B
PRG:03A8F: C9 3B    CMP $3B
PRG:03A91: D0 25    BNE $25
PRG:03A93: A2 83    LDX $83
PRG:03A95: 86 0A    STX $0A
PRG:03A97: A2 01    LDX $01
PRG:03A99: 85 48    STA $48
PRG:03A9B: A9 08    LDA $08
PRG:03A9D: 85 10    STA $10
PRG:03A9F: A9 08    LDA $08
PRG:03AA1: 85 11    STA $11
PRG:03AA3: A0 20    LDY $20
PRG:03AA5: A2 10    LDX $10
PRG:03AA7: 8A       TXA
PRG:03AA8: 85 00    STA $00
PRG:03AAA: B9 BF BA LDA $BABF
PRG:03AAD: 9D 40 01 STA $0140
PRG:03AB0: C8       INY
PRG:03AB1: E8       INX
PRG:03AB2: C6 00    DEC $00
PRG:03AB4: D0 F4    BNE $F4
PRG:03AB6: 86 13    STX $13
PRG:03AB8: 60       RTS
PRG:03AB9: 10 20    BPL $20
PRG:03ABB: 30 20    BMI $20
PRG:03ABD: 00 10    BRK $10
PRG:03ABF: 0F       .byte $0F
PRG:03AC0: 26 06    ROL $06
PRG:03AC2: 30 0F    BMI $0F
PRG:03AC4: 26 36    ROL $36
PRG:03AC6: 15 0F    ORA $0F
PRG:03AC8: 26 19    ROL $19
PRG:03ACA: 30 0F    BMI $0F
PRG:03ACC: 21 30    AND $30
PRG:03ACE: 11 0F    ORA $0F
PRG:03AD0: 26 06    ROL $06
PRG:03AD2: 30 0F    BMI $0F
PRG:03AD4: 26 36    ROL $36
PRG:03AD6: 15 0F    ORA $0F
PRG:03AD8: 26 19    ROL $19
PRG:03ADA: 30 0F    BMI $0F
PRG:03ADC: 31 30    AND $30
PRG:03ADE: 01 0F    ORA $0F
PRG:03AE0: 26 06    ROL $06
PRG:03AE2: 30 0F    BMI $0F
PRG:03AE4: 26 15    ROL $15
PRG:03AE6: 35 0F    AND $0F
PRG:03AE8: 26 19    ROL $19
PRG:03AEA: 30 0F    BMI $0F
PRG:03AEC: 2C 17 27 BIT $2717
PRG:03AEF: 01 20    ORA $20
PRG:03AF1: 00 10    BRK $10
PRG:03AF3: 01 16    ORA $16
PRG:03AF5: 27       .byte $27
PRG:03AF6: 30 01    BMI $01
PRG:03AF8: 17       .byte $17
PRG:03AF9: 30 28    BMI $28
PRG:03AFB: 01 15    ORA $15
PRG:03AFD: 24 30    BIT $30
PRG:03AFF: 01 26    ORA $26
PRG:03B01: 06 30    ASL $30
PRG:03B03: 01 26    ORA $26
PRG:03B05: 15 35    ORA $35
PRG:03B07: 01 26    ORA $26
PRG:03B09: 19 38 01 ORA $0138
PRG:03B0C: 30 30    BMI $30
PRG:03B0E: 30 18    BMI $18
PRG:03B10: D8       CLD
PRG:03B11: F1 F1    SBC $F1
PRG:03B13: A5 37    LDA $37
PRG:03B15: 0A       ASL
PRG:03B16: 0A       ASL
PRG:03B17: 05 38    ORA $38
PRG:03B19: 85 51    STA $51
PRG:03B1B: A6 49    LDX $49
PRG:03B1D: F0 04    BEQ $04
PRG:03B1F: CA       DEX
PRG:03B20: 8A       TXA
PRG:03B21: A2 01    LDX $01
PRG:03B23: 85 00    STA $00
PRG:03B25: 0A       ASL
PRG:03B26: 65 00    ADC $00
PRG:03B28: 0A       ASL
PRG:03B29: A8       TAY
PRG:03B2A: BD 0F BB LDA $BB0F
PRG:03B2D: 85 00    STA $00
PRG:03B2F: BD 11 BB LDA $BB11
PRG:03B32: 85 01    STA $01
PRG:03B34: A2 00    LDX $00
PRG:03B36: B1 00    LDA $00
PRG:03B38: 95 7C    STA $7C
PRG:03B3A: E8       INX
PRG:03B3B: C8       INY
PRG:03B3C: E0 06    CPX $06
PRG:03B3E: 90 F6    BCC $F6
PRG:03B40: A4 51    LDY $51
PRG:03B42: B9 69 AD LDA $AD69
PRG:03B45: 8D 33 05 STA $0533
PRG:03B48: B9 4B D9 LDA $D94B
PRG:03B4B: 85 52    STA $52
PRG:03B4D: 0A       ASL
PRG:03B4E: AA       TAX
PRG:03B4F: BD 9C D9 LDA $D99C
PRG:03B52: 85 1A    STA $1A
PRG:03B54: BD 9D D9 LDA $D99D
PRG:03B57: 85 1B    STA $1B
PRG:03B59: BD B4 D9 LDA $D9B4
PRG:03B5C: 85 00    STA $00
PRG:03B5E: BD B5 D9 LDA $D9B5
PRG:03B61: 85 01    STA $01
PRG:03B63: A9 78    LDA $78
PRG:03B65: 85 32    STA $32
PRG:03B67: 4A       LSR
PRG:03B68: 85 34    STA $34
PRG:03B6A: A4 39    LDY $39
PRG:03B6C: B1 00    LDA $00
PRG:03B6E: 48       PHA
PRG:03B6F: 29 F0    AND $F0
PRG:03B71: 4A       LSR
PRG:03B72: 4A       LSR
PRG:03B73: 4A       LSR
PRG:03B74: 85 00    STA $00
PRG:03B76: A9 78    LDA $78
PRG:03B78: 38       SEC
PRG:03B79: E5 00    SBC $00
PRG:03B7B: 85 31    STA $31
PRG:03B7D: 4A       LSR
PRG:03B7E: 85 33    STA $33
PRG:03B80: 68       PLA
PRG:03B81: 29 0F    AND $0F
PRG:03B83: 0A       ASL
PRG:03B84: 0A       ASL
PRG:03B85: 0A       ASL
PRG:03B86: 69 60    ADC $60
PRG:03B88: 8D 0A 05 STA $050A
PRG:03B8B: A9 00    LDA $00
PRG:03B8D: 85 07    STA $07
PRG:03B8F: A6 52    LDX $52
PRG:03B91: BD 6C D9 LDA $D96C
PRG:03B94: 29 40    AND $40
PRG:03B96: 8D 2D 05 STA $052D
PRG:03B99: A2 03    LDX $03
PRG:03B9B: A0 00    LDY $00
PRG:03B9D: A5 37    LDA $37
PRG:03B9F: C9 08    CMP $08
PRG:03BA1: B0 11    BCS $11
PRG:03BA3: A2 2E    LDX $2E
PRG:03BA5: A5 49    LDA $49
PRG:03BA7: D0 0B    BNE $0B
PRG:03BA9: A2 40    LDX $40
PRG:03BAB: A5 38    LDA $38
PRG:03BAD: C9 03    CMP $03
PRG:03BAF: D0 03    BNE $03
PRG:03BB1: C8       INY
PRG:03BB2: E8       INX
PRG:03BB3: E8       INX
PRG:03BB4: 86 2F    STX $2F
PRG:03BB6: 8C 2A 05 STY $052A
PRG:03BB9: 84 90    STY $90
PRG:03BBB: A6 52    LDX $52
PRG:03BBD: BD 6C D9 LDA $D96C
PRG:03BC0: 4A       LSR
PRG:03BC1: 4A       LSR
PRG:03BC2: 4A       LSR
PRG:03BC3: 4A       LSR
PRG:03BC4: 29 03    AND $03
PRG:03BC6: 09 80    ORA $80
PRG:03BC8: 85 0A    STA $0A
PRG:03BCA: 29 7F    AND $7F
PRG:03BCC: 85 00    STA $00
PRG:03BCE: 0A       ASL
PRG:03BCF: 65 00    ADC $00
PRG:03BD1: 0A       ASL
PRG:03BD2: 0A       ASL
PRG:03BD3: A8       TAY
PRG:03BD4: A2 00    LDX $00
PRG:03BD6: B9 78 D9 LDA $D978
PRG:03BD9: 95 1C    STA $1C
PRG:03BDB: C8       INY
PRG:03BDC: E8       INX
PRG:03BDD: E0 0C    CPX $0C
PRG:03BDF: 90 F5    BCC $F5
PRG:03BE1: A6 52    LDX $52
PRG:03BE3: BD 6C D9 LDA $D96C
PRG:03BE6: 29 07    AND $07
PRG:03BE8: 85 8E    STA $8E
PRG:03BEA: BD 6C D9 LDA $D96C
PRG:03BED: 29 08    AND $08
PRG:03BEF: 0A       ASL
PRG:03BF0: A8       TAY
PRG:03BF1: 20 A5 BA JSR $BAA5
PRG:03BF4: A6 51    LDX $51
PRG:03BF6: BD 2C B9 LDA $B92C
PRG:03BF9: 48       PHA
PRG:03BFA: 4A       LSR
PRG:03BFB: 4A       LSR
PRG:03BFC: 4A       LSR
PRG:03BFD: 4A       LSR
PRG:03BFE: 85 00    STA $00
PRG:03C00: 0A       ASL
PRG:03C01: 65 00    ADC $00
PRG:03C03: 0A       ASL
PRG:03C04: 0A       ASL
PRG:03C05: A8       TAY
PRG:03C06: A2 00    LDX $00
PRG:03C08: A9 0F    LDA $0F
PRG:03C0A: 9D 40 01 STA $0140
PRG:03C0D: E8       INX
PRG:03C0E: B9 4C B9 LDA $B94C
PRG:03C11: 9D 40 01 STA $0140
PRG:03C14: E8       INX
PRG:03C15: C8       INY
PRG:03C16: 8A       TXA
PRG:03C17: 29 03    AND $03
PRG:03C19: D0 F3    BNE $F3
PRG:03C1B: E0 10    CPX $10
PRG:03C1D: 90 E9    BCC $E9
PRG:03C1F: 68       PLA
PRG:03C20: 29 0F    AND $0F
PRG:03C22: C9 0F    CMP $0F
PRG:03C24: D0 06    BNE $06
PRG:03C26: A9 FF    LDA $FF
PRG:03C28: 85 9B    STA $9B
PRG:03C2A: D0 0F    BNE $0F
PRG:03C2C: AA       TAX
PRG:03C2D: BD F4 B9 LDA $B9F4
PRG:03C30: 85 99    STA $99
PRG:03C32: BD F7 B9 LDA $B9F7
PRG:03C35: 85 9A    STA $9A
PRG:03C37: A9 00    LDA $00
PRG:03C39: 85 9B    STA $9B
PRG:03C3B: A5 39    LDA $39
PRG:03C3D: 0A       ASL
PRG:03C3E: 0A       ASL
PRG:03C3F: 0A       ASL
PRG:03C40: 0A       ASL
PRG:03C41: 85 3B    STA $3B
PRG:03C43: F0 02    BEQ $02
PRG:03C45: C6 3B    DEC $3B
PRG:03C47: A5 3B    LDA $3B
PRG:03C49: 20 75 BD JSR $BD75
PRG:03C4C: AD 50 05 LDA $0550
PRG:03C4F: 8D 0F 05 STA $050F
PRG:03C52: AD 51 05 LDA $0551
PRG:03C55: 8D 14 05 STA $0514
PRG:03C58: AD 52 05 LDA $0552
PRG:03C5B: 8D 19 05 STA $0519
PRG:03C5E: A5 3B    LDA $3B
PRG:03C60: 85 30    STA $30
PRG:03C62: C6 3B    DEC $3B
PRG:03C64: 10 10    BPL $10
PRG:03C66: A9 FF    LDA $FF
PRG:03C68: 85 3A    STA $3A
PRG:03C6A: 85 39    STA $39
PRG:03C6C: A9 F8    LDA $F8
PRG:03C6E: 85 06    STA $06
PRG:03C70: A9 00    LDA $00
PRG:03C72: 85 35    STA $35
PRG:03C74: F0 12    BEQ $12
PRG:03C76: A5 3B    LDA $3B
PRG:03C78: 4A       LSR
PRG:03C79: 85 3A    STA $3A
PRG:03C7B: 4A       LSR
PRG:03C7C: 4A       LSR
PRG:03C7D: 4A       LSR
PRG:03C7E: 85 39    STA $39
PRG:03C80: A9 78    LDA $78
PRG:03C82: 85 06    STA $06
PRG:03C84: A9 30    LDA $30
PRG:03C86: 85 35    STA $35
PRG:03C88: A5 04    LDA $04
PRG:03C8A: 29 FC    AND $FC
PRG:03C8C: 85 04    STA $04
PRG:03C8E: A9 00    LDA $00
PRG:03C90: 85 2A    STA $2A
PRG:03C92: 85 12    STA $12
PRG:03C94: 8D 2E 05 STA $052E
PRG:03C97: 85 88    STA $88
PRG:03C99: 85 2D    STA $2D
PRG:03C9B: 85 2E    STA $2E
PRG:03C9D: 85 48    STA $48
PRG:03C9F: 85 8F    STA $8F
PRG:03CA1: 85 4B    STA $4B
PRG:03CA3: 85 46    STA $46
PRG:03CA5: 8D 39 05 STA $0539
PRG:03CA8: 20 35 8C JSR $8C35
PRG:03CAB: 20 47 8D JSR $8D47
PRG:03CAE: 20 E4 C4 JSR $C4E4
PRG:03CB1: 20 C9 BD JSR $BDC9
PRG:03CB4: 20 3C BD JSR $BD3C
PRG:03CB7: 20 DC BC JSR $BCDC
PRG:03CBA: A5 06    LDA $06
PRG:03CBC: 29 7F    AND $7F
PRG:03CBE: D0 F7    BNE $F7
PRG:03CC0: A2 80    LDX $80
PRG:03CC2: 8A       TXA
PRG:03CC3: 48       PHA
PRG:03CC4: 20 DC BC JSR $BCDC
PRG:03CC7: 68       PLA
PRG:03CC8: AA       TAX
PRG:03CC9: CA       DEX
PRG:03CCA: D0 F6    BNE $F6
PRG:03CCC: A2 80    LDX $80
PRG:03CCE: 8A       TXA
PRG:03CCF: 48       PHA
PRG:03CD0: 20 DC BC JSR $BCDC
PRG:03CD3: 20 45 8C JSR $8C45
PRG:03CD6: 68       PLA
PRG:03CD7: AA       TAX
PRG:03CD8: CA       DEX
PRG:03CD9: D0 F3    BNE $F3
PRG:03CDB: 60       RTS
PRG:03CDC: A9 00    LDA $00
PRG:03CDE: 85 3C    STA $3C
PRG:03CE0: 85 3D    STA $3D
PRG:03CE2: 20 30 BD JSR $BD30
PRG:03CE5: 20 64 8E JSR $8E64
PRG:03CE8: 20 DD 8B JSR $8BDD
PRG:03CEB: 4C 72 B8 JMP $B872
PRG:03CEE: A9 00    LDA $00
PRG:03CF0: 85 3C    STA $3C
PRG:03CF2: 85 3D    STA $3D
PRG:03CF4: AD 84 05 LDA $0584
PRG:03CF7: C9 61    CMP $61
PRG:03CF9: 90 1F    BCC $1F
PRG:03CFB: A5 2E    LDA $2E
PRG:03CFD: D0 1B    BNE $1B
PRG:03CFF: 20 30 BD JSR $BD30
PRG:03D02: AD 2A 05 LDA $052A
PRG:03D05: F0 0E    BEQ $0E
PRG:03D07: A5 06    LDA $06
PRG:03D09: D0 0A    BNE $0A
PRG:03D0B: A5 3A    LDA $3A
PRG:03D0D: C9 1D    CMP $1D
PRG:03D0F: D0 04    BNE $04
PRG:03D11: A9 0C    LDA $0C
PRG:03D13: 85 AB    STA $AB
PRG:03D15: CE 84 05 DEC $0584
PRG:03D18: D0 DA    BNE $DA
PRG:03D1A: A2 00    LDX $00
PRG:03D1C: A5 3D    LDA $3D
PRG:03D1E: 10 01    BPL $01
PRG:03D20: CA       DEX
PRG:03D21: AD C4 05 LDA $05C4
PRG:03D24: 18       CLC
PRG:03D25: 65 3D    ADC $3D
PRG:03D27: 8D C4 05 STA $05C4
PRG:03D2A: 8A       TXA
PRG:03D2B: 65 6A    ADC $6A
PRG:03D2D: 85 6A    STA $6A
PRG:03D2F: 60       RTS
PRG:03D30: 20 76 BE JSR $BE76
PRG:03D33: A5 06    LDA $06
PRG:03D35: 29 07    AND $07
PRG:03D37: D0 03    BNE $03
PRG:03D39: 20 B7 BD JSR $BDB7
PRG:03D3C: A2 07    LDX $07
PRG:03D3E: A5 06    LDA $06
PRG:03D40: 3D 55 BD AND $BD55
PRG:03D43: DD 5D BD CMP $BD5D
PRG:03D46: D0 09    BNE $09
PRG:03D48: BD 65 BD LDA $BD65
PRG:03D4B: 48       PHA
PRG:03D4C: BD 6D BD LDA $BD6D
PRG:03D4F: 48       PHA
PRG:03D50: 60       RTS
PRG:03D51: CA       DEX
PRG:03D52: 10 EA    BPL $EA
PRG:03D54: 60       RTS
PRG:03D55: 07       .byte $07
PRG:03D56: 07       .byte $07
PRG:03D57: 1F       .byte $1F
PRG:03D58: 07       .byte $07
PRG:03D59: 0F       .byte $0F
PRG:03D5A: 0F       .byte $0F
PRG:03D5B: 3F       .byte $3F
PRG:03D5C: 0F       .byte $0F
PRG:03D5D: 00 01    BRK $01
PRG:03D5F: 1A       NOP
PRG:03D60: 03       .byte $03
PRG:03D61: 0C 0D 1E NOP $1E0D
PRG:03D64: 0F       .byte $0F
PRG:03D65: B4 B4    LDY $B4
PRG:03D67: B5 B3    LDA $B3
PRG:03D69: B5 B5    LDA $B5
PRG:03D6B: B6 B4    LDX $B4
PRG:03D6D: C2       .byte $C2
PRG:03D6E: E8       INX
PRG:03D6F: D6 96    DEC $96
PRG:03D71: 39 59 58 AND $5859
PRG:03D74: 1C 85 00 NOP $0085
PRG:03D77: 0A       ASL
PRG:03D78: 65 00    ADC $00
PRG:03D7A: A8       TAY
PRG:03D7B: B1 1A    LDA $1A
PRG:03D7D: 4A       LSR
PRG:03D7E: 4A       LSR
PRG:03D7F: 8D 4C 05 STA $054C
PRG:03D82: B1 1A    LDA $1A
PRG:03D84: 29 03    AND $03
PRG:03D86: 8D 4D 05 STA $054D
PRG:03D89: C8       INY
PRG:03D8A: B1 1A    LDA $1A
PRG:03D8C: 4A       LSR
PRG:03D8D: 4A       LSR
PRG:03D8E: 48       PHA
PRG:03D8F: 4A       LSR
PRG:03D90: 4A       LSR
PRG:03D91: 4A       LSR
PRG:03D92: 8D 4E 05 STA $054E
PRG:03D95: 68       PLA
PRG:03D96: 29 07    AND $07
PRG:03D98: 8D 4F 05 STA $054F
PRG:03D9B: B1 1A    LDA $1A
PRG:03D9D: 29 03    AND $03
PRG:03D9F: 8D 52 05 STA $0552
PRG:03DA2: C8       INY
PRG:03DA3: B1 1A    LDA $1A
PRG:03DA5: 29 0F    AND $0F
PRG:03DA7: 8D 50 05 STA $0550
PRG:03DAA: B1 1A    LDA $1A
PRG:03DAC: 29 F0    AND $F0
PRG:03DAE: 8D 51 05 STA $0551
PRG:03DB1: 60       RTS
PRG:03DB2: A9 01    LDA $01
PRG:03DB4: 85 2D    STA $2D
PRG:03DB6: 60       RTS
PRG:03DB7: A5 2D    LDA $2D
PRG:03DB9: D0 FB    BNE $FB
PRG:03DBB: E6 35    INC $35
PRG:03DBD: A5 35    LDA $35
PRG:03DBF: 29 3F    AND $3F
PRG:03DC1: 85 35    STA $35
PRG:03DC3: 29 0F    AND $0F
PRG:03DC5: D0 46    BNE $46
PRG:03DC7: E6 30    INC $30
PRG:03DC9: A5 30    LDA $30
PRG:03DCB: C5 2F    CMP $2F
PRG:03DCD: B0 E3    BCS $E3
PRG:03DCF: 20 75 BD JSR $BD75
PRG:03DD2: AD 4C 05 LDA $054C
PRG:03DD5: 85 36    STA $36
PRG:03DD7: AD 4D 05 LDA $054D
PRG:03DDA: 85 2B    STA $2B
PRG:03DDC: AD 4E 05 LDA $054E
PRG:03DDF: 85 2C    STA $2C
PRG:03DE1: A5 36    LDA $36
PRG:03DE3: 0A       ASL
PRG:03DE4: 65 36    ADC $36
PRG:03DE6: A8       TAY
PRG:03DE7: B1 1C    LDA $1C
PRG:03DE9: 85 01    STA $01
PRG:03DEB: C8       INY
PRG:03DEC: B1 1C    LDA $1C
PRG:03DEE: 85 02    STA $02
PRG:03DF0: C8       INY
PRG:03DF1: B1 1C    LDA $1C
PRG:03DF3: 85 03    STA $03
PRG:03DF5: A2 00    LDX $00
PRG:03DF7: A0 06    LDY $06
PRG:03DF9: 26 03    ROL $03
PRG:03DFB: 26 02    ROL $02
PRG:03DFD: 26 01    ROL $01
PRG:03DFF: 2A       ROL
PRG:03E00: 88       DEY
PRG:03E01: D0 F6    BNE $F6
PRG:03E03: 29 3F    AND $3F
PRG:03E05: 9D 02 05 STA $0502
PRG:03E08: E8       INX
PRG:03E09: E0 04    CPX $04
PRG:03E0B: 90 EA    BCC $EA
PRG:03E0D: A6 2C    LDX $2C
PRG:03E0F: F0 17    BEQ $17
PRG:03E11: A5 35    LDA $35
PRG:03E13: 3D 5C BE AND $BE5C
PRG:03E16: D0 10    BNE $10
PRG:03E18: A5 31    LDA $31
PRG:03E1A: 18       CLC
PRG:03E1B: 7D 62 BE ADC $BE62
PRG:03E1E: 85 31    STA $31
PRG:03E20: A5 33    LDA $33
PRG:03E22: 18       CLC
PRG:03E23: 7D 68 BE ADC $BE68
PRG:03E26: 85 33    STA $33
PRG:03E28: A6 2B    LDX $2B
PRG:03E2A: F0 30    BEQ $30
PRG:03E2C: A5 35    LDA $35
PRG:03E2E: 29 03    AND $03
PRG:03E30: D0 2A    BNE $2A
PRG:03E32: A5 32    LDA $32
PRG:03E34: 18       CLC
PRG:03E35: 7D 6E BE ADC $BE6E
PRG:03E38: 85 32    STA $32
PRG:03E3A: A5 8D    LDA $8D
PRG:03E3C: 38       SEC
PRG:03E3D: FD 6E BE SBC $BE6E
PRG:03E40: 85 8D    STA $8D
PRG:03E42: A5 35    LDA $35
PRG:03E44: 29 07    AND $07
PRG:03E46: C9 04    CMP $04
PRG:03E48: D0 12    BNE $12
PRG:03E4A: A5 34    LDA $34
PRG:03E4C: 18       CLC
PRG:03E4D: 7D 6E BE ADC $BE6E
PRG:03E50: 85 34    STA $34
PRG:03E52: AD 30 05 LDA $0530
PRG:03E55: 38       SEC
PRG:03E56: FD 6E BE SBC $BE6E
PRG:03E59: 8D 30 05 STA $0530
PRG:03E5C: 60       RTS
PRG:03E5D: 07       .byte $07
PRG:03E5E: 07       .byte $07
PRG:03E5F: 0F       .byte $0F
PRG:03E60: 0F       .byte $0F
PRG:03E61: 0F       .byte $0F
PRG:03E62: 0F       .byte $0F
PRG:03E63: FE 02 FC INC $FC02
PRG:03E66: 04 F8    NOP $F8
PRG:03E68: 08       PHP
PRG:03E69: FF       .byte $FF
PRG:03E6A: 01 FE    ORA $FE
PRG:03E6C: 02       .byte $02
PRG:03E6D: FC 04 FF NOP $FF04
PRG:03E70: 01 A9    ORA $A9
PRG:03E72: 01 85    ORA $85
PRG:03E74: 2E 60 A5 ROL $A560
PRG:03E77: 2E D0 FB ROL $FBD0
PRG:03E7A: C6 3C    DEC $3C
PRG:03E7C: E6 06    INC $06
PRG:03E7E: D0 10    BNE $10
PRG:03E80: A5 04    LDA $04
PRG:03E82: 49 01    EOR $01
PRG:03E84: 85 04    STA $04
PRG:03E86: E6 3A    INC $3A
PRG:03E88: A5 3A    LDA $3A
PRG:03E8A: 29 07    AND $07
PRG:03E8C: D0 02    BNE $02
PRG:03E8E: E6 39    INC $39
PRG:03E90: A5 06    LDA $06
PRG:03E92: 29 7F    AND $7F
PRG:03E94: D0 64    BNE $64
PRG:03E96: E6 3B    INC $3B
PRG:03E98: A2 00    LDX $00
PRG:03E9A: BD 07 05 LDA $0507
PRG:03E9D: 9D 06 05 STA $0506
PRG:03EA0: BD 0C 05 LDA $050C
PRG:03EA3: 9D 0B 05 STA $050B
PRG:03EA6: BD 11 05 LDA $0511
PRG:03EA9: 9D 10 05 STA $0510
PRG:03EAC: BD 16 05 LDA $0516
PRG:03EAF: 9D 15 05 STA $0515
PRG:03EB2: E8       INX
PRG:03EB3: E0 04    CPX $04
PRG:03EB5: 90 E3    BCC $E3
PRG:03EB7: A5 3B    LDA $3B
PRG:03EB9: C5 2F    CMP $2F
PRG:03EBB: B0 B4    BCS $B4
PRG:03EBD: 20 4B BF JSR $BF4B
PRG:03EC0: 20 5E BA JSR $BA5E
PRG:03EC3: 20 71 BF JSR $BF71
PRG:03EC6: A5 3B    LDA $3B
PRG:03EC8: 20 75 BD JSR $BD75
PRG:03ECB: AD 4D 05 LDA $054D
PRG:03ECE: 85 2A    STA $2A
PRG:03ED0: A6 3B    LDX $3B
PRG:03ED2: E8       INX
PRG:03ED3: E4 2F    CPX $2F
PRG:03ED5: B0 23    BCS $23
PRG:03ED7: 8A       TXA
PRG:03ED8: 20 75 BD JSR $BD75
PRG:03EDB: AE 4F 05 LDX $054F
PRG:03EDE: AD 0A 05 LDA $050A
PRG:03EE1: 18       CLC
PRG:03EE2: 7D 43 BF ADC $BF43
PRG:03EE5: 8D 0A 05 STA $050A
PRG:03EE8: AD 50 05 LDA $0550
PRG:03EEB: 8D 0F 05 STA $050F
PRG:03EEE: AD 51 05 LDA $0551
PRG:03EF1: 8D 14 05 STA $0514
PRG:03EF4: AD 52 05 LDA $0552
PRG:03EF7: 8D 19 05 STA $0519
PRG:03EFA: A5 3B    LDA $3B
PRG:03EFC: 30 29    BMI $29
PRG:03EFE: A5 06    LDA $06
PRG:03F00: 29 03    AND $03
PRG:03F02: D0 23    BNE $23
PRG:03F04: A6 2A    LDX $2A
PRG:03F06: F0 1F    BEQ $1F
PRG:03F08: CA       DEX
PRG:03F09: F0 1D    BEQ $1D
PRG:03F0B: C6 3D    DEC $3D
PRG:03F0D: CE 06 05 DEC $0506
PRG:03F10: CE 07 05 DEC $0507
PRG:03F13: CE 08 05 DEC $0508
PRG:03F16: CE 09 05 DEC $0509
PRG:03F19: CE 0A 05 DEC $050A
PRG:03F1C: A4 07    LDY $07
PRG:03F1E: C0 EF    CPY $EF
PRG:03F20: D0 02    BNE $02
PRG:03F22: A0 FF    LDY $FF
PRG:03F24: C8       INY
PRG:03F25: 84 07    STY $07
PRG:03F27: 60       RTS
PRG:03F28: E6 3D    INC $3D
PRG:03F2A: EE 06 05 INC $0506
PRG:03F2D: EE 07 05 INC $0507
PRG:03F30: EE 08 05 INC $0508
PRG:03F33: EE 09 05 INC $0509
PRG:03F36: EE 0A 05 INC $050A
PRG:03F39: A4 07    LDY $07
PRG:03F3B: D0 02    BNE $02
PRG:03F3D: A0 F0    LDY $F0
PRG:03F3F: 88       DEY
PRG:03F40: 84 07    STY $07
PRG:03F42: 60       RTS
PRG:03F43: 00 E0    BRK $E0
PRG:03F45: 20 C0 40 JSR $40C0
PRG:03F48: F8       SED
PRG:03F49: A0 60    LDY $60
PRG:03F4B: A5 49    LDA $49
PRG:03F4D: D0 21    BNE $21
PRG:03F4F: A5 3B    LDA $3B
PRG:03F51: C9 3F    CMP $3F
PRG:03F53: 90 09    BCC $09
PRG:03F55: D0 19    BNE $19
PRG:03F57: A5 38    LDA $38
PRG:03F59: C9 03    CMP $03
PRG:03F5B: D0 0E    BNE $0E
PRG:03F5D: 60       RTS
PRG:03F5E: 29 0F    AND $0F
PRG:03F60: D0 0E    BNE $0E
PRG:03F62: A5 3B    LDA $3B
PRG:03F64: 4A       LSR
PRG:03F65: 4A       LSR
PRG:03F66: 4A       LSR
PRG:03F67: 4A       LSR
PRG:03F68: 69 01    ADC $01
PRG:03F6A: CD A9 05 CMP $05A9
PRG:03F6D: 8D 31 05 STA $0531
PRG:03F70: 60       RTS
PRG:03F71: A4 9B    LDY $9B
PRG:03F73: 30 2D    BMI $2D
PRG:03F75: B1 99    LDA $99
PRG:03F77: 30 2A    BMI $2A
PRG:03F79: C5 3B    CMP $3B
PRG:03F7B: F0 02    BEQ $02
PRG:03F7D: B0 23    BCS $23
PRG:03F7F: C8       INY
PRG:03F80: B1 99    LDA $99
PRG:03F82: 85 00    STA $00
PRG:03F84: C8       INY
PRG:03F85: B1 99    LDA $99
PRG:03F87: C8       INY
PRG:03F88: 0A       ASL
PRG:03F89: 0A       ASL
PRG:03F8A: AA       TAX
PRG:03F8B: E8       INX
PRG:03F8C: B1 99    LDA $99
PRG:03F8E: 9D 40 01 STA $0140
PRG:03F91: C8       INY
PRG:03F92: E8       INX
PRG:03F93: 8A       TXA
PRG:03F94: 29 03    AND $03
PRG:03F96: D0 F4    BNE $F4
PRG:03F98: C6 00    DEC $00
PRG:03F9A: D0 E9    BNE $E9
PRG:03F9C: 84 9B    STY $9B
PRG:03F9E: A9 01    LDA $01
PRG:03FA0: 85 13    STA $13
PRG:03FA2: 60       RTS
PRG:03FA3: 85 9B    STA $9B
PRG:03FA5: 60       RTS
PRG:03FA6: 38       SEC
PRG:03FA7: E9 1E    SBC $1E
PRG:03FA9: C9 1E    CMP $1E
PRG:03FAB: B0 F9    BCS $F9
PRG:03FAD: 60       RTS
PRG:03FAE: 98       TYA
PRG:03FAF: 48       PHA
PRG:03FB0: 8A       TXA
PRG:03FB1: 48       PHA
PRG:03FB2: A5 56    LDA $56
PRG:03FB4: 29 01    AND $01
PRG:03FB6: 0A       ASL
PRG:03FB7: A8       TAY
PRG:03FB8: A5 55    LDA $55
PRG:03FBA: 4A       LSR
PRG:03FBB: 90 01    BCC $01
PRG:03FBD: C8       INY
PRG:03FBE: 98       TYA
PRG:03FBF: F0 07    BEQ $07
PRG:03FC1: 0A       ASL
PRG:03FC2: AA       TAX
PRG:03FC3: 06 57    ASL $57
PRG:03FC5: CA       DEX
PRG:03FC6: D0 FB    BNE $FB
PRG:03FC8: A5 56    LDA $56
PRG:03FCA: 0A       ASL
PRG:03FCB: 0A       ASL
PRG:03FCC: 0A       ASL
PRG:03FCD: 0A       ASL
PRG:03FCE: 29 E0    AND $E0
PRG:03FD0: 05 55    ORA $55
PRG:03FD2: 4A       LSR
PRG:03FD3: AA       TAX
PRG:03FD4: BD 60 01 LDA $0160
PRG:03FD7: 39 E4 BF AND $BFE4
PRG:03FDA: 05 57    ORA $57
PRG:03FDC: 9D 60 01 STA $0160
PRG:03FDF: 68       PLA
PRG:03FE0: AA       TAX
PRG:03FE1: 68       PLA
PRG:03FE2: A8       TAY
PRG:03FE3: 60       RTS
PRG:03FE4: FC F3 CF NOP $CFF3
PRG:03FE7: 3F       .byte $3F
PRG:03FE8: A5 72    LDA $72
PRG:03FEA: D0 50    BNE $50
PRG:03FEC: A5 6A    LDA $6A
PRG:03FEE: 30 4C    BMI $4C
PRG:03FF0: A0 00    LDY $00
PRG:03FF2: BD 14 06 LDA $0614
PRG:03FF5: 18       CLC
PRG:03FF6: 79 14 06 ADC $0614
PRG:03FF9: 85 00    STA $00
PRG:03FFB: BD C4 05 LDA $05C4
PRG:03FFE: 38       SEC
PRG:03FFF: F9 C4 05 SBC $05C4
PRG:04002: B0 04    BCS $04
PRG:04004: 49 FF    EOR $FF
PRG:04006: 69 01    ADC $01
PRG:04008: C5 00    CMP $00
PRG:0400A: B0 30    BCS $30
PRG:0400C: BD 04 06 LDA $0604
PRG:0400F: 18       CLC
PRG:04010: 79 04 06 ADC $0604
PRG:04013: 85 00    STA $00
PRG:04015: BD 84 05 LDA $0584
PRG:04018: 38       SEC
PRG:04019: F9 84 05 SBC $0584
PRG:0401C: 85 01    STA $01
PRG:0401E: BD 94 05 LDA $0594
PRG:04021: F9 94 05 SBC $0594
PRG:04024: 30 0A    BMI $0A
PRG:04026: D0 14    BNE $14
PRG:04028: A5 01    LDA $01
PRG:0402A: C5 00    CMP $00
PRG:0402C: B0 0E    BCS $0E
PRG:0402E: 38       SEC
PRG:0402F: 60       RTS
PRG:04030: 49 FF    EOR $FF
PRG:04032: D0 08    BNE $08
PRG:04034: A5 01    LDA $01
PRG:04036: 49 FF    EOR $FF
PRG:04038: C5 00    CMP $00
PRG:0403A: 90 F2    BCC $F2
PRG:0403C: 18       CLC
PRG:0403D: 60       RTS
PRG:0403E: AD 3E 05 LDA $053E
PRG:04041: D0 42    BNE $42
PRG:04043: A9 FF    LDA $FF
PRG:04045: CF       .byte $CF
PRG:04046: A9 00    LDA $00
PRG:04048: CD A9 01 CMP $01A9
PRG:0404B: 85 9E    STA $9E
PRG:0404D: A5 72    LDA $72
PRG:0404F: 05 70    ORA $70
PRG:04051: 05 7A    ORA $7A
PRG:04053: D0 30    BNE $30
PRG:04055: 20 E8 BF JSR $BFE8
PRG:04058: 90 2C    BCC $2C
PRG:0405A: A4 9E    LDY $9E
PRG:0405C: C8       INY
PRG:0405D: F0 28    BEQ $28
PRG:0405F: A5 75    LDA $75
PRG:04061: F0 02    BEQ $02
PRG:04063: 10 33    BPL $33
PRG:04065: A5 6E    LDA $6E
PRG:04067: D0 28    BNE $28
PRG:04069: A4 9E    LDY $9E
PRG:0406B: 30 7C    BMI $7C
PRG:0406D: C8       INY
PRG:0406E: 84 72    STY $72
PRG:04070: A9 C4    LDA $C4
PRG:04072: 8D D4 05 STA $05D4
PRG:04075: A9 20    LDA $20
PRG:04077: 8D 74 06 STA $0674
PRG:0407A: A9 00    LDA $00
PRG:0407C: 8D 64 06 STA $0664
PRG:0407F: 85 AB    STA $AB
PRG:04081: A9 0C    LDA $0C
PRG:04083: 85 A0    STA $A0
PRG:04085: 18       CLC
PRG:04086: 60       RTS
PRG:04087: 20 F5 C0 JSR $C0F5
PRG:0408A: A9 82    LDA $82
PRG:0408C: 20 38 99 JSR $9938
PRG:0408F: 38       SEC
PRG:04090: 60       RTS
PRG:04091: 20 F5 C0 JSR $C0F5
PRG:04094: A9 02    LDA $02
PRG:04096: D0 0F    BNE $0F
PRG:04098: AD 3B 05 LDA $053B
PRG:0409B: C9 09    CMP $09
PRG:0409D: F0 03    BEQ $03
PRG:0409F: EE 3B 05 INC $053B
PRG:040A2: 4A       LSR
PRG:040A3: A8       TAY
PRG:040A4: B9 AC C0 LDA $C0AC
PRG:040A7: 20 38 99 JSR $9938
PRG:040AA: 38       SEC
PRG:040AB: 60       RTS
PRG:040AC: 03       .byte $03
PRG:040AD: 04 05    NOP $05
PRG:040AF: 06 07    ASL $07
PRG:040B1: A5 48    LDA $48
PRG:040B3: D0 20    BNE $20
PRG:040B5: A5 72    LDA $72
PRG:040B7: 05 78    ORA $78
PRG:040B9: 05 7A    ORA $7A
PRG:040BB: D0 C9    BNE $C9
PRG:040BD: A0 01    LDY $01
PRG:040BF: A5 75    LDA $75
PRG:040C1: 10 02    BPL $02
PRG:040C3: A0 05    LDY $05
PRG:040C5: A5 77    LDA $77
PRG:040C7: D0 06    BNE $06
PRG:040C9: A5 76    LDA $76
PRG:040CB: F0 14    BEQ $14
PRG:040CD: C6 76    DEC $76
PRG:040CF: C6 77    DEC $77
PRG:040D1: 88       DEY
PRG:040D2: D0 F1    BNE $F1
PRG:040D4: 60       RTS
PRG:040D5: A5 90    LDA $90
PRG:040D7: F0 FB    BEQ $FB
PRG:040D9: C6 10    DEC $10
PRG:040DB: D0 F7    BNE $F7
PRG:040DD: C6 11    DEC $11
PRG:040DF: D0 F3    BNE $F3
PRG:040E1: A9 01    LDA $01
PRG:040E3: 85 78    STA $78
PRG:040E5: A0 01    LDY $01
PRG:040E7: D0 85    BNE $85
PRG:040E9: A5 78    LDA $78
PRG:040EB: D0 99    BNE $99
PRG:040ED: A4 76    LDY $76
PRG:040EF: 88       DEY
PRG:040F0: 88       DEY
PRG:040F1: 30 EE    BMI $EE
PRG:040F3: 84 76    STY $76
PRG:040F5: A0 00    LDY $00
PRG:040F7: 84 6F    STY $6F
PRG:040F9: 84 6E    STY $6E
PRG:040FB: C8       INY
PRG:040FC: 84 70    STY $70
PRG:040FE: A9 C4    LDA $C4
PRG:04100: 8D D4 05 STA $05D4
PRG:04103: A0 32    LDY $32
PRG:04105: A5 6B    LDA $6B
PRG:04107: F0 02    BEQ $02
PRG:04109: A0 CE    LDY $CE
PRG:0410B: 8C A4 05 STY $05A4
PRG:0410E: A9 02    LDA $02
PRG:04110: 85 A0    STA $A0
PRG:04112: 60       RTS
PRG:04113: 20 46 C0 JSR $C046
PRG:04116: B0 0F    BCS $0F
PRG:04118: 4C 28 C1 JMP $C128
PRG:0411B: 20 46 C0 JSR $C046
PRG:0411E: B0 07    BCS $07
PRG:04120: 4C 2B C1 JMP $C12B
PRG:04123: 88       DEY
PRG:04124: D0 0B    BNE $0B
PRG:04126: 18       CLC
PRG:04127: 60       RTS
PRG:04128: A9 00    LDA $00
PRG:0412A: CD A9 01 CMP $01A9
PRG:0412D: 85 9F    STA $9F
PRG:0412F: A0 0F    LDY $0F
PRG:04131: B9 54 05 LDA $0554
PRG:04134: F0 ED    BEQ $ED
PRG:04136: B9 64 05 LDA $0564
PRG:04139: C9 42    CMP $42
PRG:0413B: D0 E6    BNE $E6
PRG:0413D: B9 54 05 LDA $0554
PRG:04140: 30 E1    BMI $E1
PRG:04142: 20 F2 BF JSR $BFF2
PRG:04145: 90 DC    BCC $DC
PRG:04147: B9 A4 05 LDA $05A4
PRG:0414A: 85 00    STA $00
PRG:0414C: A5 9F    LDA $9F
PRG:0414E: D0 07    BNE $07
PRG:04150: A9 00    LDA $00
PRG:04152: 99 54 05 STA $0554
PRG:04155: 38       SEC
PRG:04156: 60       RTS
PRG:04157: C9 01    CMP $01
PRG:04159: F0 05    BEQ $05
PRG:0415B: B9 64 06 LDA $0664
PRG:0415E: D0 31    BNE $31
PRG:04160: B9 64 06 LDA $0664
PRG:04163: D0 EB    BNE $EB
PRG:04165: 8A       TXA
PRG:04166: 48       PHA
PRG:04167: 98       TYA
PRG:04168: AA       TAX
PRG:04169: 20 2F 95 JSR $952F
PRG:0416C: 8D 36 05 STA $0536
PRG:0416F: A5 00    LDA $00
PRG:04171: 10 03    BPL $03
PRG:04173: A9 02    LDA $02
PRG:04175: CD A9 FE CMP $FEA9
PRG:04178: 9D A4 05 STA $05A4
PRG:0417B: 20 5E A9 JSR $A95E
PRG:0417E: A9 66    LDA $66
PRG:04180: 20 6D 9D JSR $9D6D
PRG:04183: A9 04    LDA $04
PRG:04185: 85 A0    STA $A0
PRG:04187: 68       PLA
PRG:04188: AA       TAX
PRG:04189: A5 9F    LDA $9F
PRG:0418B: C9 01    CMP $01
PRG:0418D: F0 0C    BEQ $0C
PRG:0418F: 18       CLC
PRG:04190: 60       RTS
PRG:04191: A9 00    LDA $00
PRG:04193: 99 54 05 STA $0554
PRG:04196: A9 03    LDA $03
PRG:04198: 20 38 99 JSR $9938
PRG:0419B: 38       SEC
PRG:0419C: 60       RTS
PRG:0419D: BD 84 05 LDA $0584
PRG:041A0: 18       CLC
PRG:041A1: 7D 04 06 ADC $0604
PRG:041A4: 85 00    STA $00
PRG:041A6: BD 94 05 LDA $0594
PRG:041A9: 69 00    ADC $00
PRG:041AB: 85 01    STA $01
PRG:041AD: 8A       TXA
PRG:041AE: 48       PHA
PRG:041AF: 20 EA C1 JSR $C1EA
PRG:041B2: 85 00    STA $00
PRG:041B4: 68       PLA
PRG:041B5: AA       TAX
PRG:041B6: A5 00    LDA $00
PRG:041B8: 60       RTS
PRG:041B9: A5 06    LDA $06
PRG:041BB: 09 80    ORA $80
PRG:041BD: 18       CLC
PRG:041BE: 6D 84 05 ADC $0584
PRG:041C1: 85 00    STA $00
PRG:041C3: AD 94 05 LDA $0594
PRG:041C6: 69 00    ADC $00
PRG:041C8: 06 00    ASL $00
PRG:041CA: 2A       ROL
PRG:041CB: A8       TAY
PRG:041CC: B9 15 05 LDA $0515
PRG:041CF: 60       RTS
PRG:041D0: 20 D9 C1 JSR $C1D9
PRG:041D3: 65 3B    ADC $3B
PRG:041D5: 38       SEC
PRG:041D6: E9 03    SBC $03
PRG:041D8: 60       RTS
PRG:041D9: A5 06    LDA $06
PRG:041DB: 09 80    ORA $80
PRG:041DD: 18       CLC
PRG:041DE: 65 00    ADC $00
PRG:041E0: 85 00    STA $00
PRG:041E2: A5 01    LDA $01
PRG:041E4: 69 00    ADC $00
PRG:041E6: 06 00    ASL $00
PRG:041E8: 2A       ROL
PRG:041E9: 60       RTS
PRG:041EA: 20 D9 C1 JSR $C1D9
PRG:041ED: AA       TAX
PRG:041EE: 46 00    LSR $00
PRG:041F0: BD 10 05 LDA $0510
PRG:041F3: 85 3E    STA $3E
PRG:041F5: BD 0B 05 LDA $050B
PRG:041F8: F0 1C    BEQ $1C
PRG:041FA: A8       TAY
PRG:041FB: 88       DEY
PRG:041FC: F0 1D    BEQ $1D
PRG:041FE: 88       DEY
PRG:041FF: F0 1F    BEQ $1F
PRG:04201: 88       DEY
PRG:04202: F0 28    BEQ $28
PRG:04204: 38       SEC
PRG:04205: E9 07    SBC $07
PRG:04207: 90 2F    BCC $2F
PRG:04209: A8       TAY
PRG:0420A: A5 00    LDA $00
PRG:0420C: D9 4D C2 CMP $C24D
PRG:0420F: 90 05    BCC $05
PRG:04211: D9 56 C2 CMP $C256
PRG:04214: 90 05    BCC $05
PRG:04216: BD 06 05 LDA $0506
PRG:04219: 18       CLC
PRG:0421A: 60       RTS
PRG:0421B: BD 06 05 LDA $0506
PRG:0421E: 38       SEC
PRG:0421F: 60       RTS
PRG:04220: 46 00    LSR $00
PRG:04222: 46 00    LSR $00
PRG:04224: BD 06 05 LDA $0506
PRG:04227: 38       SEC
PRG:04228: E5 00    SBC $00
PRG:0422A: 18       CLC
PRG:0422B: 60       RTS
PRG:0422C: 46 00    LSR $00
PRG:0422E: 46 00    LSR $00
PRG:04230: BD 06 05 LDA $0506
PRG:04233: 18       CLC
PRG:04234: 65 00    ADC $00
PRG:04236: 18       CLC
PRG:04237: 60       RTS
PRG:04238: A8       TAY
PRG:04239: A5 00    LDA $00
PRG:0423B: C9 40    CMP $40
PRG:0423D: 90 D7    BCC $D7
PRG:0423F: A9 E0    LDA $E0
PRG:04241: C0 FD    CPY $FD
PRG:04243: F0 02    BEQ $02
PRG:04245: A9 20    LDA $20
PRG:04247: 18       CLC
PRG:04248: 7D 06 05 ADC $0506
PRG:0424B: 18       CLC
PRG:0424C: 60       RTS
PRG:0424D: 28       PLP
PRG:0424E: 00 08    BRK $08
PRG:04250: 00 08    BRK $08
PRG:04252: 48       PHA
PRG:04253: 00 20    BRK $20
PRG:04255: 00 68    BRK $68
PRG:04257: 68       PLA
PRG:04258: 80 08    NOP $08
PRG:0425A: 68       PLA
PRG:0425B: 80 40    NOP $40
PRG:0425D: 60       RTS
PRG:0425E: 60       RTS
PRG:0425F: BD 84 05 LDA $0584
PRG:04262: 38       SEC
PRG:04263: FD 04 06 SBC $0604
PRG:04266: 85 00    STA $00
PRG:04268: BD 94 05 LDA $0594
PRG:0426B: E9 00    SBC $00
PRG:0426D: 85 01    STA $01
PRG:0426F: 20 AD C1 JSR $C1AD
PRG:04272: B0 14    BCS $14
PRG:04274: 48       PHA
PRG:04275: 20 9D C1 JSR $C19D
PRG:04278: 90 03    BCC $03
PRG:0427A: 68       PLA
PRG:0427B: 18       CLC
PRG:0427C: 60       RTS
PRG:0427D: 85 00    STA $00
PRG:0427F: 68       PLA
PRG:04280: C5 00    CMP $00
PRG:04282: 90 02    BCC $02
PRG:04284: A5 00    LDA $00
PRG:04286: 18       CLC
PRG:04287: 60       RTS
PRG:04288: 20 9D C1 JSR $C19D
PRG:0428B: 90 EF    BCC $EF
PRG:0428D: A9 FF    LDA $FF
PRG:0428F: 38       SEC
PRG:04290: 60       RTS
PRG:04291: A0 00    LDY $00
PRG:04293: BD A4 05 LDA $05A4
PRG:04296: 10 01    BPL $01
PRG:04298: C8       INY
PRG:04299: BD 84 05 LDA $0584
PRG:0429C: 18       CLC
PRG:0429D: 79 BE C2 ADC $C2BE
PRG:042A0: 85 00    STA $00
PRG:042A2: BD 94 05 LDA $0594
PRG:042A5: 79 C0 C2 ADC $C2C0
PRG:042A8: 85 01    STA $01
PRG:042AA: 20 AD C1 JSR $C1AD
PRG:042AD: B0 CC    BCS $CC
PRG:042AF: 7D F4 05 ADC $05F4
PRG:042B2: 38       SEC
PRG:042B3: FD C4 05 SBC $05C4
PRG:042B6: B0 C3    BCS $C3
PRG:042B8: C9 FC    CMP $FC
PRG:042BA: B0 BF    BCS $BF
PRG:042BC: 38       SEC
PRG:042BD: 60       RTS
PRG:042BE: 0D F3 00 ORA $00F3
PRG:042C1: FF       .byte $FF
PRG:042C2: A5 41    LDA $41
PRG:042C4: D0 1D    BNE $1D
PRG:042C6: A2 00    LDX $00
PRG:042C8: 86 65    STX $65
PRG:042CA: 86 68    STX $68
PRG:042CC: E6 69    INC $69
PRG:042CE: A5 69    LDA $69
PRG:042D0: 29 03    AND $03
PRG:042D2: A8       TAY
PRG:042D3: B9 E4 C2 LDA $C2E4
PRG:042D6: 85 67    STA $67
PRG:042D8: A9 F0    LDA $F0
PRG:042DA: 9D 00 07 STA $0700
PRG:042DD: E8       INX
PRG:042DE: E8       INX
PRG:042DF: E8       INX
PRG:042E0: E8       INX
PRG:042E1: D0 F7    BNE $F7
PRG:042E3: 60       RTS
PRG:042E4: 04 84    NOP $84
PRG:042E6: 44 C4    NOP $C4
PRG:042E8: B7       .byte $B7
PRG:042E9: C9 E0    CMP $E0
PRG:042EB: 12       .byte $12
PRG:042EC: 2E C3 C3 ROL $C3C3
PRG:042EF: C3       .byte $C3
PRG:042F0: C4 C4    CPY $C4
PRG:042F2: C5 45    CMP $45
PRG:042F4: 8D BF BF STA $BFBF
PRG:042F7: 9F       .byte $9F
PRG:042F8: A0 A0    LDY $A0
PRG:042FA: A0 A0    LDY $A0
PRG:042FC: 20 60 90 JSR $9060
PRG:042FF: B0 D8    BCS $D8
PRG:04301: A4 65    LDY $65
PRG:04303: D0 6D    BNE $6D
PRG:04305: A4 59    LDY $59
PRG:04307: 88       DEY
PRG:04308: 10 68    BPL $68
PRG:0430A: 85 58    STA $58
PRG:0430C: C9 20    CMP $20
PRG:0430E: 90 63    BCC $63
PRG:04310: A0 00    LDY $00
PRG:04312: C9 60    CMP $60
PRG:04314: 90 10    BCC $10
PRG:04316: C8       INY
PRG:04317: C9 90    CMP $90
PRG:04319: 90 0B    BCC $0B
PRG:0431B: C8       INY
PRG:0431C: C9 B0    CMP $B0
PRG:0431E: 90 06    BCC $06
PRG:04320: C8       INY
PRG:04321: C9 D8    CMP $D8
PRG:04323: 90 01    BCC $01
PRG:04325: C8       INY
PRG:04326: 8A       TXA
PRG:04327: 48       PHA
PRG:04328: BA       TSX
PRG:04329: 86 64    STX $64
PRG:0432B: B9 ED C2 LDA $C2ED
PRG:0432E: 48       PHA
PRG:0432F: B9 E8 C2 LDA $C2E8
PRG:04332: 48       PHA
PRG:04333: B9 F2 C2 LDA $C2F2
PRG:04336: 85 02    STA $02
PRG:04338: B9 F7 C2 LDA $C2F7
PRG:0433B: 85 03    STA $03
PRG:0433D: A5 58    LDA $58
PRG:0433F: 38       SEC
PRG:04340: F9 FC C2 SBC $C2FC
PRG:04343: 0A       ASL
PRG:04344: A8       TAY
PRG:04345: B1 02    LDA $02
PRG:04347: 85 00    STA $00
PRG:04349: C8       INY
PRG:0434A: B1 02    LDA $02
PRG:0434C: 85 01    STA $01
PRG:0434E: A0 00    LDY $00
PRG:04350: B1 00    LDA $00
PRG:04352: 4A       LSR
PRG:04353: 4A       LSR
PRG:04354: 48       PHA
PRG:04355: 4A       LSR
PRG:04356: 4A       LSR
PRG:04357: 4A       LSR
PRG:04358: 85 5E    STA $5E
PRG:0435A: E6 5E    INC $5E
PRG:0435C: 68       PLA
PRG:0435D: 29 07    AND $07
PRG:0435F: 85 5F    STA $5F
PRG:04361: B1 00    LDA $00
PRG:04363: 29 03    AND $03
PRG:04365: 85 03    STA $03
PRG:04367: C8       INY
PRG:04368: A5 5D    LDA $5D
PRG:0436A: 85 60    STA $60
PRG:0436C: A5 5F    LDA $5F
PRG:0436E: 85 62    STA $62
PRG:04370: A6 67    LDX $67
PRG:04372: 60       RTS
PRG:04373: 8A       TXA
PRG:04374: 48       PHA
PRG:04375: BA       TSX
PRG:04376: 86 64    STX $64
PRG:04378: A5 59    LDA $59
PRG:0437A: D0 27    BNE $27
PRG:0437C: A5 5D    LDA $5D
PRG:0437E: C9 F0    CMP $F0
PRG:04380: B0 21    BCS $21
PRG:04382: A5 58    LDA $58
PRG:04384: 0A       ASL
PRG:04385: A8       TAY
PRG:04386: A6 67    LDX $67
PRG:04388: A5 5D    LDA $5D
PRG:0438A: 9D 00 07 STA $0700
PRG:0438D: B9 93 9F LDA $9F93
PRG:04390: 9D 01 07 STA $0701
PRG:04393: B9 94 9F LDA $9F94
PRG:04396: 9D 02 07 STA $0702
PRG:04399: A5 5A    LDA $5A
PRG:0439B: 9D 03 07 STA $0703
PRG:0439E: 20 64 C4 JSR $C464
PRG:043A1: 86 67    STX $67
PRG:043A3: 68       PLA
PRG:043A4: AA       TAX
PRG:043A5: 60       RTS
PRG:043A6: A5 60    LDA $60
PRG:043A8: 18       CLC
PRG:043A9: 69 08    ADC $08
PRG:043AB: 85 60    STA $60
PRG:043AD: C9 F0    CMP $F0
PRG:043AF: 90 04    BCC $04
PRG:043B1: 68       PLA
PRG:043B2: 68       PLA
PRG:043B3: B0 EC    BCS $EC
PRG:043B5: C6 62    DEC $62
PRG:043B7: 60       RTS
PRG:043B8: 20 57 C4 JSR $C457
PRG:043BB: 20 A9 C4 JSR $C4A9
PRG:043BE: C8       INY
PRG:043BF: C6 61    DEC $61
PRG:043C1: D0 F8    BNE $F8
PRG:043C3: 20 A6 C3 JSR $C3A6
PRG:043C6: D0 F0    BNE $F0
PRG:043C8: F0 D7    BEQ $D7
PRG:043CA: B1 00    LDA $00
PRG:043CC: C8       INY
PRG:043CD: 85 02    STA $02
PRG:043CF: 20 57 C4 JSR $C457
PRG:043D2: 20 8B C4 JSR $C48B
PRG:043D5: C8       INY
PRG:043D6: C6 61    DEC $61
PRG:043D8: D0 F8    BNE $F8
PRG:043DA: 20 A6 C3 JSR $C3A6
PRG:043DD: D0 F0    BNE $F0
PRG:043DF: F0 C0    BEQ $C0
PRG:043E1: 20 57 C4 JSR $C457
PRG:043E4: 20 A9 C4 JSR $C4A9
PRG:043E7: C8       INY
PRG:043E8: C6 61    DEC $61
PRG:043EA: D0 F8    BNE $F8
PRG:043EC: A5 03    LDA $03
PRG:043EE: 49 40    EOR $40
PRG:043F0: 85 03    STA $03
PRG:043F2: 84 63    STY $63
PRG:043F4: A5 5E    LDA $5E
PRG:043F6: 85 61    STA $61
PRG:043F8: 88       DEY
PRG:043F9: 20 A9 C4 JSR $C4A9
PRG:043FC: 88       DEY
PRG:043FD: C6 61    DEC $61
PRG:043FF: D0 F8    BNE $F8
PRG:04401: A4 63    LDY $63
PRG:04403: A5 03    LDA $03
PRG:04405: 29 BF    AND $BF
PRG:04407: 85 03    STA $03
PRG:04409: 20 A6 C3 JSR $C3A6
PRG:0440C: D0 D3    BNE $D3
PRG:0440E: 86 67    STX $67
PRG:04410: 68       PLA
PRG:04411: AA       TAX
PRG:04412: 60       RTS
PRG:04413: B1 00    LDA $00
PRG:04415: C8       INY
PRG:04416: 85 02    STA $02
PRG:04418: B1 00    LDA $00
PRG:0441A: C8       INY
PRG:0441B: 85 03    STA $03
PRG:0441D: 20 57 C4 JSR $C457
PRG:04420: 20 8B C4 JSR $C48B
PRG:04423: C8       INY
PRG:04424: C6 61    DEC $61
PRG:04426: D0 F8    BNE $F8
PRG:04428: 20 A6 C3 JSR $C3A6
PRG:0442B: D0 EB    BNE $EB
PRG:0442D: F0 DF    BEQ $DF
PRG:0442F: B1 00    LDA $00
PRG:04431: C8       INY
PRG:04432: 85 02    STA $02
PRG:04434: B1 00    LDA $00
PRG:04436: C8       INY
PRG:04437: 49 40    EOR $40
PRG:04439: 85 03    STA $03
PRG:0443B: 20 4F C4 JSR $C44F
PRG:0443E: 20 8B C4 JSR $C48B
PRG:04441: 88       DEY
PRG:04442: C6 61    DEC $61
PRG:04444: D0 F8    BNE $F8
PRG:04446: A4 63    LDY $63
PRG:04448: 20 A6 C3 JSR $C3A6
PRG:0444B: D0 E7    BNE $E7
PRG:0444D: F0 BF    BEQ $BF
PRG:0444F: 98       TYA
PRG:04450: 18       CLC
PRG:04451: 65 5E    ADC $5E
PRG:04453: A8       TAY
PRG:04454: 84 63    STY $63
PRG:04456: 88       DEY
PRG:04457: A5 5A    LDA $5A
PRG:04459: 85 5C    STA $5C
PRG:0445B: A5 59    LDA $59
PRG:0445D: 85 5B    STA $5B
PRG:0445F: A5 5E    LDA $5E
PRG:04461: 85 61    STA $61
PRG:04463: 60       RTS
PRG:04464: E6 68    INC $68
PRG:04466: A5 68    LDA $68
PRG:04468: C9 3F    CMP $3F
PRG:0446A: 90 08    BCC $08
PRG:0446C: E6 65    INC $65
PRG:0446E: A6 64    LDX $64
PRG:04470: 9A       TXS
PRG:04471: 68       PLA
PRG:04472: AA       TAX
PRG:04473: 60       RTS
PRG:04474: A5 69    LDA $69
PRG:04476: 6A       ROR
PRG:04477: 8A       TXA
PRG:04478: B0 09    BCS $09
PRG:0447A: 10 09    BPL $09
PRG:0447C: 18       CLC
PRG:0447D: 69 84    ADC $84
PRG:0447F: AA       TAX
PRG:04480: F0 F2    BEQ $F2
PRG:04482: 60       RTS
PRG:04483: 10 F7    BPL $F7
PRG:04485: 49 80    EOR $80
PRG:04487: AA       TAX
PRG:04488: F0 EA    BEQ $EA
PRG:0448A: 60       RTS
PRG:0448B: A5 5B    LDA $5B
PRG:0448D: D0 39    BNE $39
PRG:0448F: B1 00    LDA $00
PRG:04491: C9 FF    CMP $FF
PRG:04493: F0 33    BEQ $33
PRG:04495: 29 C0    AND $C0
PRG:04497: 45 03    EOR $03
PRG:04499: 9D 02 07 STA $0702
PRG:0449C: B1 00    LDA $00
PRG:0449E: 29 3F    AND $3F
PRG:044A0: 18       CLC
PRG:044A1: 65 02    ADC $02
PRG:044A3: 9D 01 07 STA $0701
PRG:044A6: 4C BB C4 JMP $C4BB
PRG:044A9: A5 5B    LDA $5B
PRG:044AB: D0 1B    BNE $1B
PRG:044AD: B1 00    LDA $00
PRG:044AF: C9 FF    CMP $FF
PRG:044B1: F0 15    BEQ $15
PRG:044B3: 9D 01 07 STA $0701
PRG:044B6: A5 03    LDA $03
PRG:044B8: 9D 02 07 STA $0702
PRG:044BB: A5 60    LDA $60
PRG:044BD: 9D 00 07 STA $0700
PRG:044C0: A5 5C    LDA $5C
PRG:044C2: 9D 03 07 STA $0703
PRG:044C5: 20 64 C4 JSR $C464
PRG:044C8: A5 5C    LDA $5C
PRG:044CA: 18       CLC
PRG:044CB: 69 08    ADC $08
PRG:044CD: 85 5C    STA $5C
PRG:044CF: 90 02    BCC $02
PRG:044D1: E6 5B    INC $5B
PRG:044D3: 60       RTS
PRG:044D4: A9 00    LDA $00
PRG:044D6: 85 0D    STA $0D
PRG:044D8: 20 E4 C4 JSR $C4E4
PRG:044DB: A9 1E    LDA $1E
PRG:044DD: 85 05    STA $05
PRG:044DF: A5 04    LDA $04
PRG:044E1: 4C 01 C5 JMP $C501
PRG:044E4: A2 00    LDX $00
PRG:044E6: A9 F0    LDA $F0
PRG:044E8: 9D 00 07 STA $0700
PRG:044EB: E8       INX
PRG:044EC: D0 FA    BNE $FA
PRG:044EE: 60       RTS
PRG:044EF: 20 55 B7 JSR $B755
PRG:044F2: A2 05    LDX $05
PRG:044F4: B5 12    LDA $12
PRG:044F6: D0 F7    BNE $F7
PRG:044F8: CA       DEX
PRG:044F9: 10 F9    BPL $F9
PRG:044FB: A9 00    LDA $00
PRG:044FD: 85 05    STA $05
PRG:044FF: A9 90    LDA $90
PRG:04501: 85 04    STA $04
PRG:04503: 4C 55 B7 JMP $B755
PRG:04506: A2 01    LDX $01
PRG:04508: 8E 16 40 STX $4016
PRG:0450B: CA       DEX
PRG:0450C: 8E 16 40 STX $4016
PRG:0450F: A0 08    LDY $08
PRG:04511: 20 1D C5 JSR $C51D
PRG:04514: E8       INX
PRG:04515: 20 1D C5 JSR $C51D
PRG:04518: CA       DEX
PRG:04519: 88       DEY
PRG:0451A: D0 F5    BNE $F5
PRG:0451C: 60       RTS
PRG:0451D: 16 08    ASL $08
PRG:0451F: BD 16 40 LDA $4016
PRG:04522: 4A       LSR
PRG:04523: B0 04    BCS $04
PRG:04525: 4A       LSR
PRG:04526: B0 01    BCS $01
PRG:04528: 60       RTS
PRG:04529: F6 08    INC $08
PRG:0452B: 60       RTS
PRG:0452C: 67       .byte $67
PRG:0452D: C6 C8    DEC $C8
PRG:0452F: C6 D4    DEC $D4
PRG:04531: C6 DD    DEC $DD
PRG:04533: C6 FB    DEC $FB
PRG:04535: C6 04    DEC $04
PRG:04537: C7       .byte $C7
PRG:04538: 0B       .byte $0B
PRG:04539: C7       .byte $C7
PRG:0453A: 14 C7    NOP $C7
PRG:0453C: 1B       .byte $1B
PRG:0453D: C7       .byte $C7
PRG:0453E: C8       INY
PRG:0453F: C6 23    DEC $23
PRG:04541: C7       .byte $C7
PRG:04542: 38       SEC
PRG:04543: C7       .byte $C7
PRG:04544: 55 C7    EOR $C7
PRG:04546: 5E C7 1F LSR $1FC7
PRG:04549: C7       .byte $C7
PRG:0454A: C7       .byte $C7
PRG:0454B: C6 6E    DEC $6E
PRG:0454D: C7       .byte $C7
PRG:0454E: 38       SEC
PRG:0454F: C7       .byte $C7
PRG:04550: 82       .byte $82
PRG:04551: C7       .byte $C7
PRG:04552: 8B       .byte $8B
PRG:04553: C7       .byte $C7
PRG:04554: 9B       .byte $9B
PRG:04555: C7       .byte $C7
PRG:04556: A8       TAY
PRG:04557: C7       .byte $C7
PRG:04558: C5 C7    CMP $C7
PRG:0455A: D2       .byte $D2
PRG:0455B: C7       .byte $C7
PRG:0455C: 03       .byte $03
PRG:0455D: C8       INY
PRG:0455E: 09 C8    ORA $C8
PRG:04560: F3       .byte $F3
PRG:04561: C6 C8    DEC $C8
PRG:04563: C6 EF    DEC $EF
PRG:04565: C7       .byte $C7
PRG:04566: F8       SED
PRG:04567: C7       .byte $C7
PRG:04568: F7       .byte $F7
PRG:04569: C6 C8    DEC $C8
PRG:0456B: C6 44    DEC $44
PRG:0456D: C8       INY
PRG:0456E: 27       .byte $27
PRG:0456F: C8       INY
PRG:04570: 17       .byte $17
PRG:04571: C8       INY
PRG:04572: 27       .byte $27
PRG:04573: C8       INY
PRG:04574: D0 C6    BNE $C6
PRG:04576: C8       INY
PRG:04577: C6 E0    DEC $E0
PRG:04579: C6 C8    DEC $C8
PRG:0457B: C6 00    DEC $00
PRG:0457D: 00 00    BRK $00
PRG:0457F: 00 00    BRK $00
PRG:04581: 1E 00 00 ASL $0000
PRG:04584: 00 0E    BRK $0E
PRG:04586: 00 00    BRK $00
PRG:04588: 00 0E    BRK $0E
PRG:0458A: 00 00    BRK $00
PRG:0458C: 00 06    BRK $06
PRG:0458E: 00 00    BRK $00
PRG:04590: 00 20    BRK $20
PRG:04592: 00 00    BRK $00
PRG:04594: 00 0C    BRK $0C
PRG:04596: 00 00    BRK $00
PRG:04598: 00 1E    BRK $1E
PRG:0459A: 00 00    BRK $00
PRG:0459C: 00 14    BRK $14
PRG:0459E: 00 00    BRK $00
PRG:045A0: 00 14    BRK $14
PRG:045A2: 00 00    BRK $00
PRG:045A4: 00 18    BRK $18
PRG:045A6: 00 00    BRK $00
PRG:045A8: 00 00    BRK $00
PRG:045AA: 00 3C    BRK $3C
PRG:045AC: 20 20 00 JSR $0020
PRG:045AF: 00 00    BRK $00
PRG:045B1: 08       PHP
PRG:045B2: 00 00    BRK $00
PRG:045B4: 00 00    BRK $00
PRG:045B6: 00 30    BRK $30
PRG:045B8: 00 0C    BRK $0C
PRG:045BA: 00 00    BRK $00
PRG:045BC: 40       RTI
PRG:045BD: 40       RTI
PRG:045BE: 40       RTI
PRG:045BF: 40       RTI
PRG:045C0: 38       SEC
PRG:045C1: 38       SEC
PRG:045C2: 38       SEC
PRG:045C3: 38       SEC
PRG:045C4: 00 04    BRK $04
PRG:045C6: 00 00    BRK $00
PRG:045C8: 00 0F    BRK $0F
PRG:045CA: 00 00    BRK $00
PRG:045CC: 48       PHA
PRG:045CD: 8D 80 52 STA $5280
PRG:045D0: 44 8C    NOP $8C
PRG:045D2: 40       RTI
PRG:045D3: F9 80 00 SBC $0080
PRG:045D6: 57       .byte $57
PRG:045D7: 49 82    EOR $82
PRG:045D9: B2       .byte $B2
PRG:045DA: 57       .byte $57
PRG:045DB: 89       .byte $89
PRG:045DC: 5F       .byte $5F
PRG:045DD: 9C       .byte $9C
PRG:045DE: D6 48    DEC $48
PRG:045E0: 82       .byte $82
PRG:045E1: 9C       .byte $9C
PRG:045E2: AA       TAX
PRG:045E3: 68       PLA
PRG:045E4: 81 DE    STA $DE
PRG:045E6: 2E 69 48 ROL $4869
PRG:045E9: 9B       .byte $9B
PRG:045EA: 57       .byte $57
PRG:045EB: 33       .byte $33
PRG:045EC: 1F       .byte $1F
PRG:045ED: 9A       TXS
PRG:045EE: AC C9 88 LDY $88C9
PRG:045F1: 9F       .byte $9F
PRG:045F2: AC 51 44 LDY $4451
PRG:045F5: 9A       TXS
PRG:045F6: AC 21 43 LDY $4321
PRG:045F9: 8C D6 20 STY $20D6
PRG:045FC: C8       INY
PRG:045FD: 00 D6    BRK $D6
PRG:045FF: A0 84    LDY $84
PRG:04601: 94 D5    STY $D5
PRG:04603: A0 84    LDY $84
PRG:04605: 94 8E    STY $8E
PRG:04607: A0 9F    LDY $9F
PRG:04609: 99 D6 88 STA $88D6
PRG:0460C: 04 00    NOP $00
PRG:0460E: 0A       ASL
PRG:0460F: 68       PLA
PRG:04610: 0A       ASL
PRG:04611: 00 06    BRK $06
PRG:04613: 30 9F    BMI $9F
PRG:04615: 8E 00 CA STX $CA00
PRG:04618: 80 00    NOP $00
PRG:0461A: FE 28 C2 INC $C228
PRG:0461D: 00 EE    BRK $EE
PRG:0461F: 68       PLA
PRG:04620: C2       .byte $C2
PRG:04621: 00 DE    BRK $DE
PRG:04623: 69 10    ADC $10
PRG:04625: 00 DE    BRK $DE
PRG:04627: 69 C2    ADC $C2
PRG:04629: 00 78    BRK $78
PRG:0462B: 68       PLA
PRG:0462C: C2       .byte $C2
PRG:0462D: 00 EE    BRK $EE
PRG:0462F: 68       PLA
PRG:04630: 10 00    BPL $00
PRG:04632: EF       .byte $EF
PRG:04633: 68       PLA
PRG:04634: C2       .byte $C2
PRG:04635: 00 8E    BRK $8E
PRG:04637: 08       PHP
PRG:04638: C2       .byte $C2
PRG:04639: 00 1C    BRK $1C
PRG:0463B: 09 10    ORA $10
PRG:0463D: 00 1C    BRK $1C
PRG:0463F: 09 C2    ORA $C2
PRG:04641: 00 96    BRK $96
PRG:04643: F0 C2    BEQ $C2
PRG:04645: 00 2D    BRK $2D
PRG:04647: F1 10    SBC $10
PRG:04649: 00 2D    BRK $2D
PRG:0464B: F1 C2    SBC $C2
PRG:0464D: 00 BD    BRK $BD
PRG:0464F: F0 C2    BEQ $C2
PRG:04651: 00 7C    BRK $7C
PRG:04653: F1 10    SBC $10
PRG:04655: 00 7C    BRK $7C
PRG:04657: F1 CF    SBC $CF
PRG:04659: 00 7E    BRK $7E
PRG:0465B: 08       PHP
PRG:0465C: CF       .byte $CF
PRG:0465D: 00 FD    BRK $FD
PRG:0465F: 08       PHP
PRG:04660: 7F       .byte $7F
PRG:04661: 00 FD    BRK $FD
PRG:04663: 08       PHP
PRG:04664: 80 00    NOP $00
PRG:04666: 70 18    BVS $18
PRG:04668: A9 00    LDA $00
PRG:0466A: 8D 11 40 STA $4011
PRG:0466D: 8D 08 40 STA $4008
PRG:04670: 8D 0C 40 STA $400C
PRG:04673: A9 10    LDA $10
PRG:04675: 8D 00 40 STA $4000
PRG:04678: 8D 04 40 STA $4004
PRG:0467B: A9 0F    LDA $0F
PRG:0467D: 8D 15 40 STA $4015
PRG:04680: 60       RTS
PRG:04681: A2 03    LDX $03
PRG:04683: B5 A2    LDA $A2
PRG:04685: F0 02    BEQ $02
PRG:04687: D6 A2    DEC $A2
PRG:04689: CA       DEX
PRG:0468A: 10 F7    BPL $F7
PRG:0468C: A0 00    LDY $00
PRG:0468E: A5 A0    LDA $A0
PRG:04690: 30 25    BMI $25
PRG:04692: A6 A1    LDX $A1
PRG:04694: 30 1F    BMI $1F
PRG:04696: C9 14    CMP $14
PRG:04698: B0 1B    BCS $1B
PRG:0469A: 09 80    ORA $80
PRG:0469C: 85 A0    STA $A0
PRG:0469E: 0A       ASL
PRG:0469F: 0A       ASL
PRG:046A0: AA       TAX
PRG:046A1: BD 7C C5 LDA $C57C
PRG:046A4: F0 03    BEQ $03
PRG:046A6: 99 A2 00 STA $00A2
PRG:046A9: E8       INX
PRG:046AA: C8       INY
PRG:046AB: C0 04    CPY $04
PRG:046AD: 90 F2    BCC $F2
PRG:046AF: A9 00    LDA $00
PRG:046B1: 85 A1    STA $A1
PRG:046B3: F0 02    BEQ $02
PRG:046B5: 86 A0    STX $A0
PRG:046B7: A5 A0    LDA $A0
PRG:046B9: 0A       ASL
PRG:046BA: 0A       ASL
PRG:046BB: AA       TAX
PRG:046BC: 98       TYA
PRG:046BD: D0 02    BNE $02
PRG:046BF: E8       INX
PRG:046C0: E8       INX
PRG:046C1: BD 2D C5 LDA $C52D
PRG:046C4: 48       PHA
PRG:046C5: BD 2C C5 LDA $C52C
PRG:046C8: 48       PHA
PRG:046C9: 60       RTS
PRG:046CA: C6 A6    DEC $A6
PRG:046CC: F0 02    BEQ $02
PRG:046CE: 68       PLA
PRG:046CF: 68       PLA
PRG:046D0: 60       RTS
PRG:046D1: A0 4C    LDY $4C
PRG:046D3: D0 13    BNE $13
PRG:046D5: A0 00    LDY $00
PRG:046D7: 20 57 C8 JSR $C857
PRG:046DA: A9 0F    LDA $0F
PRG:046DC: 85 A6    STA $A6
PRG:046DE: 20 CA C6 JSR $C6CA
PRG:046E1: A0 04    LDY $04
PRG:046E3: 20 57 C8 JSR $C857
PRG:046E6: F0 03    BEQ $03
PRG:046E8: 20 57 C8 JSR $C857
PRG:046EB: A9 00    LDA $00
PRG:046ED: 85 A1    STA $A1
PRG:046EF: A9 80    LDA $80
PRG:046F1: 85 A0    STA $A0
PRG:046F3: 60       RTS
PRG:046F4: A0 3C    LDY $3C
PRG:046F6: D0 EB    BNE $EB
PRG:046F8: A0 48    LDY $48
PRG:046FA: D0 E7    BNE $E7
PRG:046FC: A0 08    LDY $08
PRG:046FE: 20 57 C8 JSR $C857
PRG:04701: A9 06    LDA $06
PRG:04703: 85 A6    STA $A6
PRG:04705: 20 CA C6 JSR $C6CA
PRG:04708: A0 0C    LDY $0C
PRG:0470A: D0 DC    BNE $DC
PRG:0470C: A0 10    LDY $10
PRG:0470E: 20 57 C8 JSR $C857
PRG:04711: A9 08    LDA $08
PRG:04713: 85 A6    STA $A6
PRG:04715: 20 CA C6 JSR $C6CA
PRG:04718: A0 14    LDY $14
PRG:0471A: D0 CC    BNE $CC
PRG:0471C: A0 18    LDY $18
PRG:0471E: D0 C8    BNE $C8
PRG:04720: A0 24    LDY $24
PRG:04722: D0 C4    BNE $C4
PRG:04724: A0 1C    LDY $1C
PRG:04726: 20 57 C8 JSR $C857
PRG:04729: A9 00    LDA $00
PRG:0472B: 85 A7    STA $A7
PRG:0472D: A9 02    LDA $02
PRG:0472F: 85 A6    STA $A6
PRG:04731: 85 A8    STA $A8
PRG:04733: A9 93    LDA $93
PRG:04735: 85 A9    STA $A9
PRG:04737: E6 A6    INC $A6
PRG:04739: 20 CA C6 JSR $C6CA
PRG:0473C: A5 A7    LDA $A7
PRG:0473E: 49 01    EOR $01
PRG:04740: 85 A7    STA $A7
PRG:04742: AA       TAX
PRG:04743: A5 A9    LDA $A9
PRG:04745: 1D 97 C8 ORA $C897
PRG:04748: 8D 05 40 STA $4005
PRG:0474B: A5 A8    LDA $A8
PRG:0474D: 85 A6    STA $A6
PRG:0474F: A5 A3    LDA $A3
PRG:04751: D0 2F    BNE $2F
PRG:04753: 4C EB C6 JMP $C6EB
PRG:04756: A0 20    LDY $20
PRG:04758: 20 57 C8 JSR $C857
PRG:0475B: A9 08    LDA $08
PRG:0475D: 85 A6    STA $A6
PRG:0475F: 20 CA C6 JSR $C6CA
PRG:04762: A9 9F    LDA $9F
PRG:04764: 8D 04 40 STA $4004
PRG:04767: A9 91    LDA $91
PRG:04769: 8D 05 40 STA $4005
PRG:0476C: 4C EB C6 JMP $C6EB
PRG:0476F: A0 28    LDY $28
PRG:04771: 20 57 C8 JSR $C857
PRG:04774: A9 00    LDA $00
PRG:04776: 85 A7    STA $A7
PRG:04778: A9 02    LDA $02
PRG:0477A: 85 A6    STA $A6
PRG:0477C: 85 A8    STA $A8
PRG:0477E: A9 92    LDA $92
PRG:04780: 85 A9    STA $A9
PRG:04782: 60       RTS
PRG:04783: A0 2C    LDY $2C
PRG:04785: 20 57 C8 JSR $C857
PRG:04788: A9 10    LDA $10
PRG:0478A: 85 A6    STA $A6
PRG:0478C: 20 CA C6 JSR $C6CA
PRG:0478F: A9 9A    LDA $9A
PRG:04791: 8D 04 40 STA $4004
PRG:04794: A9 92    LDA $92
PRG:04796: 8D 05 40 STA $4005
PRG:04799: 4C EB C6 JMP $C6EB
PRG:0479C: A0 30    LDY $30
PRG:0479E: 20 57 C8 JSR $C857
PRG:047A1: A9 08    LDA $08
PRG:047A3: 85 A6    STA $A6
PRG:047A5: A9 02    LDA $02
PRG:047A7: 85 A7    STA $A7
PRG:047A9: 20 CA C6 JSR $C6CA
PRG:047AC: A9 08    LDA $08
PRG:047AE: 85 A6    STA $A6
PRG:047B0: C6 A7    DEC $A7
PRG:047B2: A6 A7    LDX $A7
PRG:047B4: BD 7C C8 LDA $C87C
PRG:047B7: 8D 04 40 STA $4004
PRG:047BA: BD 7E C8 LDA $C87E
PRG:047BD: 8D 05 40 STA $4005
PRG:047C0: 8A       TXA
PRG:047C1: D0 BF    BNE $BF
PRG:047C3: 4C EB C6 JMP $C6EB
PRG:047C6: A9 1F    LDA $1F
PRG:047C8: 8D 0C 40 STA $400C
PRG:047CB: A9 FD    LDA $FD
PRG:047CD: 85 A7    STA $A7
PRG:047CF: A9 01    LDA $01
PRG:047D1: 85 A6    STA $A6
PRG:047D3: 20 CA C6 JSR $C6CA
PRG:047D6: A6 A7    LDX $A7
PRG:047D8: BD 83 C7 LDA $C783
PRG:047DB: 8D 0E 40 STA $400E
PRG:047DE: BD 86 C7 LDA $C786
PRG:047E1: 8D 0F 40 STA $400F
PRG:047E4: BD 89 C7 LDA $C789
PRG:047E7: 85 A6    STA $A6
PRG:047E9: E6 A7    INC $A7
PRG:047EB: D0 95    BNE $95
PRG:047ED: 4C EB C6 JMP $C6EB
PRG:047F0: A0 40    LDY $40
PRG:047F2: 20 69 C8 JSR $C869
PRG:047F5: A9 08    LDA $08
PRG:047F7: 85 A6    STA $A6
PRG:047F9: 20 CA C6 JSR $C6CA
PRG:047FC: A0 44    LDY $44
PRG:047FE: 20 69 C8 JSR $C869
PRG:04801: 4C EB C6 JMP $C6EB
PRG:04804: A9 01    LDA $01
PRG:04806: 85 A6    STA $A6
PRG:04808: 85 A7    STA $A7
PRG:0480A: 20 CA C6 JSR $C6CA
PRG:0480D: A0 34    LDY $34
PRG:0480F: 20 51 C8 JSR $C851
PRG:04812: A9 06    LDA $06
PRG:04814: 85 A6    STA $A6
PRG:04816: D0 26    BNE $26
PRG:04818: A2 89    LDX $89
PRG:0481A: A0 C8    LDY $C8
PRG:0481C: A9 02    LDA $02
PRG:0481E: 85 A7    STA $A7
PRG:04820: 86 A8    STX $A8
PRG:04822: 84 A9    STY $A9
PRG:04824: A9 01    LDA $01
PRG:04826: 85 A6    STA $A6
PRG:04828: 20 CA C6 JSR $C6CA
PRG:0482B: A5 A7    LDA $A7
PRG:0482D: 0A       ASL
PRG:0482E: A8       TAY
PRG:0482F: B1 A8    LDA $A8
PRG:04831: AA       TAX
PRG:04832: C8       INY
PRG:04833: B1 A8    LDA $A8
PRG:04835: 85 A6    STA $A6
PRG:04837: 8A       TXA
PRG:04838: A8       TAY
PRG:04839: A9 0C    LDA $0C
PRG:0483B: 20 53 C8 JSR $C853
PRG:0483E: C6 A7    DEC $A7
PRG:04840: 10 26    BPL $26
PRG:04842: 4C EB C6 JMP $C6EB
PRG:04845: A5 A0    LDA $A0
PRG:04847: 85 A1    STA $A1
PRG:04849: A2 8F    LDX $8F
PRG:0484B: A0 C8    LDY $C8
PRG:0484D: A9 03    LDA $03
PRG:0484F: D0 CD    BNE $CD
PRG:04851: A9 08    LDA $08
PRG:04853: A2 00    LDX $00
PRG:04855: F0 03    BEQ $03
PRG:04857: A9 04    LDA $04
PRG:04859: AA       TAX
PRG:0485A: 85 AA    STA $AA
PRG:0485C: B9 CC C5 LDA $C5CC
PRG:0485F: 9D 00 40 STA $4000
PRG:04862: C8       INY
PRG:04863: E8       INX
PRG:04864: C6 AA    DEC $AA
PRG:04866: D0 F4    BNE $F4
PRG:04868: 60       RTS
PRG:04869: A9 04    LDA $04
PRG:0486B: 85 AA    STA $AA
PRG:0486D: A2 00    LDX $00
PRG:0486F: B9 CC C5 LDA $C5CC
PRG:04872: 9D 0C 40 STA $400C
PRG:04875: C8       INY
PRG:04876: E8       INX
PRG:04877: C6 AA    DEC $AA
PRG:04879: D0 F4    BNE $F4
PRG:0487B: 60       RTS
PRG:0487C: 88       DEY
PRG:0487D: 48       PHA
PRG:0487E: 92       .byte $92
PRG:0487F: AB       .byte $AB
PRG:04880: 0F       .byte $0F
PRG:04881: 0D 0E 88 ORA $880E
PRG:04884: F8       SED
PRG:04885: D0 08    BNE $08
PRG:04887: 0F       .byte $0F
PRG:04888: 24 68    BIT $68
PRG:0488A: 20 5C 08 JSR $085C
PRG:0488D: 50 10    BVC $10
PRG:0488F: 8C 07 74 STY $7407
PRG:04892: 07       .byte $07
PRG:04893: 80 07    NOP $07
PRG:04895: 74 0E    NOP $0E
PRG:04897: 08       PHP
PRG:04898: 00 30    BRK $30
PRG:0489A: 22       .byte $22
PRG:0489B: 09 80    ORA $80
PRG:0489D: 85 AC    STA $AC
PRG:0489F: A9 10    LDA $10
PRG:048A1: 8D 00 40 STA $4000
PRG:048A4: 8D 04 40 STA $4004
PRG:048A7: 8D 0C 40 STA $400C
PRG:048AA: A9 00    LDA $00
PRG:048AC: 8D 08 40 STA $4008
PRG:048AF: A9 18    LDA $18
PRG:048B1: 8D 03 40 STA $4003
PRG:048B4: 8D 07 40 STA $4007
PRG:048B7: 8D 0B 40 STA $400B
PRG:048BA: 8D 0F 40 STA $400F
PRG:048BD: 60       RTS
PRG:048BE: A5 AC    LDA $AC
PRG:048C0: D0 D7    BNE $D7
PRG:048C2: A5 AB    LDA $AB
PRG:048C4: F0 F7    BEQ $F7
PRG:048C6: 30 4B    BMI $4B
PRG:048C8: A5 AB    LDA $AB
PRG:048CA: C9 0F    CMP $0F
PRG:048CC: B0 5C    BCS $5C
PRG:048CE: 09 80    ORA $80
PRG:048D0: 85 AB    STA $AB
PRG:048D2: 0A       ASL
PRG:048D3: 0A       ASL
PRG:048D4: 0A       ASL
PRG:048D5: A8       TAY
PRG:048D6: A2 07    LDX $07
PRG:048D8: B9 E0 CB LDA $CBE0
PRG:048DB: 95 AD    STA $AD
PRG:048DD: 95 D9    STA $D9
PRG:048DF: 88       DEY
PRG:048E0: CA       DEX
PRG:048E1: 10 F5    BPL $F5
PRG:048E3: E8       INX
PRG:048E4: 86 E9    STX $E9
PRG:048E6: 86 EA    STX $EA
PRG:048E8: 86 EB    STX $EB
PRG:048EA: 86 EC    STX $EC
PRG:048EC: 86 ED    STX $ED
PRG:048EE: 86 EE    STX $EE
PRG:048F0: 86 F9    STX $F9
PRG:048F2: E8       INX
PRG:048F3: 86 B9    STX $B9
PRG:048F5: 86 BA    STX $BA
PRG:048F7: 86 BB    STX $BB
PRG:048F9: 86 BC    STX $BC
PRG:048FB: 86 B5    STX $B5
PRG:048FD: 86 B6    STX $B6
PRG:048FF: 86 B7    STX $B7
PRG:04901: 86 B8    STX $B8
PRG:04903: A9 08    LDA $08
PRG:04905: 85 F4    STA $F4
PRG:04907: 85 F5    STA $F5
PRG:04909: 85 F6    STA $F6
PRG:0490B: A9 80    LDA $80
PRG:0490D: 85 F0    STA $F0
PRG:0490F: 85 F1    STA $F1
PRG:04911: 85 F2    STA $F2
PRG:04913: A9 03    LDA $03
PRG:04915: 85 FB    STA $FB
PRG:04917: 85 FA    STA $FA
PRG:04919: A6 FA    LDX $FA
PRG:0491B: D6 B9    DEC $B9
PRG:0491D: D0 03    BNE $03
PRG:0491F: 20 2F C9 JSR $C92F
PRG:04922: C6 FA    DEC $FA
PRG:04924: 10 F3    BPL $F3
PRG:04926: A5 FB    LDA $FB
PRG:04928: 10 04    BPL $04
PRG:0492A: A9 00    LDA $00
PRG:0492C: 85 AB    STA $AB
PRG:0492E: 60       RTS
PRG:0492F: A6 FA    LDX $FA
PRG:04931: E0 03    CPX $03
PRG:04933: D0 07    BNE $07
PRG:04935: A5 F9    LDA $F9
PRG:04937: F0 03    BEQ $03
PRG:04939: 4C 0F CA JMP $CA0F
PRG:0493C: 20 8C CB JSR $CB8C
PRG:0493F: 85 FC    STA $FC
PRG:04941: A8       TAY
PRG:04942: 30 03    BMI $03
PRG:04944: 4C F5 C9 JMP $C9F5
PRG:04947: 29 F0    AND $F0
PRG:04949: C9 F0    CMP $F0
PRG:0494B: D0 2C    BNE $2C
PRG:0494D: 38       SEC
PRG:0494E: A9 FF    LDA $FF
PRG:04950: E5 FC    SBC $FC
PRG:04952: 0A       ASL
PRG:04953: A8       TAY
PRG:04954: B9 5E C9 LDA $C95E
PRG:04957: 48       PHA
PRG:04958: B9 5D C9 LDA $C95D
PRG:0495B: 48       PHA
PRG:0495C: 60       RTS
PRG:0495D: 7C CA 33 NOP $33CA
PRG:04960: CB       .byte $CB
PRG:04961: 90 CA    BCC $CA
PRG:04963: C0 CA    CPY $CA
PRG:04965: A9 CA    LDA $CA
PRG:04967: E0 CA    CPX $CA
PRG:04969: ED CA F6 SBC $F6CA
PRG:0496C: CA       DEX
PRG:0496D: 20 CB 42 JSR $42CB
PRG:04970: CB       .byte $CB
PRG:04971: 78       SEI
PRG:04972: CB       .byte $CB
PRG:04973: 6E CB 5F ROR $5FCB
PRG:04976: CB       .byte $CB
PRG:04977: 84 CB    STY $CB
PRG:04979: A6 FA    LDX $FA
PRG:0497B: A5 FC    LDA $FC
PRG:0497D: 29 7F    AND $7F
PRG:0497F: 95 B5    STA $B5
PRG:04981: B5 EC    LDA $EC
PRG:04983: D0 5D    BNE $5D
PRG:04985: A6 FA    LDX $FA
PRG:04987: B5 B5    LDA $B5
PRG:04989: 85 FC    STA $FC
PRG:0498B: A6 FA    LDX $FA
PRG:0498D: E0 02    CPX $02
PRG:0498F: F0 54    BEQ $54
PRG:04991: B5 F0    LDA $F0
PRG:04993: 29 10    AND $10
PRG:04995: D0 13    BNE $13
PRG:04997: B5 F0    LDA $F0
PRG:04999: 29 F0    AND $F0
PRG:0499B: 95 F0    STA $F0
PRG:0499D: A5 FC    LDA $FC
PRG:0499F: 4A       LSR
PRG:049A0: C9 10    CMP $10
PRG:049A2: 90 02    BCC $02
PRG:049A4: A9 0F    LDA $0F
PRG:049A6: 15 F0    ORA $F0
PRG:049A8: 95 F0    STA $F0
PRG:049AA: A5 FC    LDA $FC
PRG:049AC: 48       PHA
PRG:049AD: 4A       LSR
PRG:049AE: 4A       LSR
PRG:049AF: 4A       LSR
PRG:049B0: 85 FC    STA $FC
PRG:049B2: 68       PLA
PRG:049B3: 38       SEC
PRG:049B4: E5 FC    SBC $FC
PRG:049B6: C9 10    CMP $10
PRG:049B8: B0 18    BCS $18
PRG:049BA: 0A       ASL
PRG:049BB: 0A       ASL
PRG:049BC: 0A       ASL
PRG:049BD: 0A       ASL
PRG:049BE: 09 08    ORA $08
PRG:049C0: 95 F4    STA $F4
PRG:049C2: B5 F0    LDA $F0
PRG:049C4: 29 10    AND $10
PRG:049C6: F0 1A    BEQ $1A
PRG:049C8: B5 F4    LDA $F4
PRG:049CA: C9 08    CMP $08
PRG:049CC: D0 14    BNE $14
PRG:049CE: A9 18    LDA $18
PRG:049D0: D0 0E    BNE $0E
PRG:049D2: A0 00    LDY $00
PRG:049D4: D9 B1 CB CMP $CBB1
PRG:049D7: B0 04    BCS $04
PRG:049D9: C8       INY
PRG:049DA: C8       INY
PRG:049DB: D0 F7    BNE $F7
PRG:049DD: B9 B2 CB LDA $CBB2
PRG:049E0: 95 F4    STA $F4
PRG:049E2: 4C 2F C9 JMP $C92F
PRG:049E5: A5 FC    LDA $FC
PRG:049E7: 0A       ASL
PRG:049E8: 30 04    BMI $04
PRG:049EA: 65 FC    ADC $FC
PRG:049EC: 10 02    BPL $02
PRG:049EE: A9 7F    LDA $7F
PRG:049F0: 85 F2    STA $F2
PRG:049F2: 4C E2 C9 JMP $C9E2
PRG:049F5: A6 FA    LDX $FA
PRG:049F7: B4 B5    LDY $B5
PRG:049F9: 94 B9    STY $B9
PRG:049FB: C9 7F    CMP $7F
PRG:049FD: F0 7D    BEQ $7D
PRG:049FF: E0 03    CPX $03
PRG:04A01: D0 2C    BNE $2C
PRG:04A03: 48       PHA
PRG:04A04: 29 0F    AND $0F
PRG:04A06: 85 F9    STA $F9
PRG:04A08: 68       PLA
PRG:04A09: 4A       LSR
PRG:04A0A: 4A       LSR
PRG:04A0B: 4A       LSR
PRG:04A0C: 4A       LSR
PRG:04A0D: 85 F8    STA $F8
PRG:04A0F: A5 B8    LDA $B8
PRG:04A11: 85 BC    STA $BC
PRG:04A13: C6 F9    DEC $F9
PRG:04A15: A5 A5    LDA $A5
PRG:04A17: D0 15    BNE $15
PRG:04A19: A5 F8    LDA $F8
PRG:04A1B: F0 11    BEQ $11
PRG:04A1D: 0A       ASL
PRG:04A1E: 0A       ASL
PRG:04A1F: AA       TAX
PRG:04A20: A0 00    LDY $00
PRG:04A22: BD C1 CB LDA $CBC1
PRG:04A25: 99 0C 40 STA $400C
PRG:04A28: E8       INX
PRG:04A29: C8       INY
PRG:04A2A: C0 04    CPY $04
PRG:04A2C: 90 F4    BCC $F4
PRG:04A2E: 60       RTS
PRG:04A2F: B4 A2    LDY $A2
PRG:04A31: D0 49    BNE $49
PRG:04A33: 8A       TXA
PRG:04A34: 0A       ASL
PRG:04A35: 0A       ASL
PRG:04A36: A8       TAY
PRG:04A37: B5 F0    LDA $F0
PRG:04A39: 99 00 40 STA $4000
PRG:04A3C: A9 00    LDA $00
PRG:04A3E: 99 01 40 STA $4001
PRG:04A41: A5 FC    LDA $FC
PRG:04A43: 4A       LSR
PRG:04A44: 4A       LSR
PRG:04A45: 4A       LSR
PRG:04A46: 18       CLC
PRG:04A47: 75 E9    ADC $E9
PRG:04A49: C9 0C    CMP $0C
PRG:04A4B: 08       PHP
PRG:04A4C: 90 02    BCC $02
PRG:04A4E: E9 0C    SBC $0C
PRG:04A50: AA       TAX
PRG:04A51: BD 99 CB LDA $CB99
PRG:04A54: 48       PHA
PRG:04A55: BD A5 CB LDA $CBA5
PRG:04A58: 48       PHA
PRG:04A59: A5 FC    LDA $FC
PRG:04A5B: 29 07    AND $07
PRG:04A5D: AA       TAX
PRG:04A5E: 68       PLA
PRG:04A5F: 85 FC    STA $FC
PRG:04A61: 68       PLA
PRG:04A62: 28       PLP
PRG:04A63: 90 01    BCC $01
PRG:04A65: E8       INX
PRG:04A66: E0 00    CPX $00
PRG:04A68: F0 06    BEQ $06
PRG:04A6A: 46 FC    LSR $FC
PRG:04A6C: 6A       ROR
PRG:04A6D: CA       DEX
PRG:04A6E: D0 FA    BNE $FA
PRG:04A70: 99 02 40 STA $4002
PRG:04A73: A6 FA    LDX $FA
PRG:04A75: A5 FC    LDA $FC
PRG:04A77: 15 F4    ORA $F4
PRG:04A79: 99 03 40 STA $4003
PRG:04A7C: 60       RTS
PRG:04A7D: A6 FA    LDX $FA
PRG:04A7F: A9 01    LDA $01
PRG:04A81: 95 B9    STA $B9
PRG:04A83: 8A       TXA
PRG:04A84: 0A       ASL
PRG:04A85: AA       TAX
PRG:04A86: B5 AD    LDA $AD
PRG:04A88: D0 02    BNE $02
PRG:04A8A: D6 AE    DEC $AE
PRG:04A8C: D6 AD    DEC $AD
PRG:04A8E: C6 FB    DEC $FB
PRG:04A90: 60       RTS
PRG:04A91: 20 8C CB JSR $CB8C
PRG:04A94: A6 FA    LDX $FA
PRG:04A96: 95 D1    STA $D1
PRG:04A98: A9 01    LDA $01
PRG:04A9A: 95 D5    STA $D5
PRG:04A9C: 8A       TXA
PRG:04A9D: 0A       ASL
PRG:04A9E: AA       TAX
PRG:04A9F: B5 AD    LDA $AD
PRG:04AA1: 95 C1    STA $C1
PRG:04AA3: B5 AE    LDA $AE
PRG:04AA5: 95 C2    STA $C2
PRG:04AA7: 4C 2F C9 JMP $C92F
PRG:04AAA: 20 8C CB JSR $CB8C
PRG:04AAD: A6 FA    LDX $FA
PRG:04AAF: D5 D5    CMP $D5
PRG:04AB1: B0 0B    BCS $0B
PRG:04AB3: 8A       TXA
PRG:04AB4: 0A       ASL
PRG:04AB5: AA       TAX
PRG:04AB6: B5 C9    LDA $C9
PRG:04AB8: 95 AD    STA $AD
PRG:04ABA: B5 CA    LDA $CA
PRG:04ABC: 95 AE    STA $AE
PRG:04ABE: 4C 2F C9 JMP $C92F
PRG:04AC1: A6 FA    LDX $FA
PRG:04AC3: B5 D5    LDA $D5
PRG:04AC5: D5 D1    CMP $D1
PRG:04AC7: B0 15    BCS $15
PRG:04AC9: F6 D5    INC $D5
PRG:04ACB: 8A       TXA
PRG:04ACC: 0A       ASL
PRG:04ACD: AA       TAX
PRG:04ACE: B5 AD    LDA $AD
PRG:04AD0: 95 C9    STA $C9
PRG:04AD2: B5 AE    LDA $AE
PRG:04AD4: 95 CA    STA $CA
PRG:04AD6: B5 C1    LDA $C1
PRG:04AD8: 95 AD    STA $AD
PRG:04ADA: B5 C2    LDA $C2
PRG:04ADC: 95 AE    STA $AE
PRG:04ADE: 4C 2F C9 JMP $C92F
PRG:04AE1: 20 8C CB JSR $CB8C
PRG:04AE4: A6 FA    LDX $FA
PRG:04AE6: 95 BD    STA $BD
PRG:04AE8: A9 FF    LDA $FF
PRG:04AEA: 95 EC    STA $EC
PRG:04AEC: D0 2E    BNE $2E
PRG:04AEE: A6 FA    LDX $FA
PRG:04AF0: A9 00    LDA $00
PRG:04AF2: 95 EC    STA $EC
PRG:04AF4: 4C 85 C9 JMP $C985
PRG:04AF7: 20 8C CB JSR $CB8C
PRG:04AFA: A6 FA    LDX $FA
PRG:04AFC: E0 02    CPX $02
PRG:04AFE: F0 BE    BEQ $BE
PRG:04B00: 85 FC    STA $FC
PRG:04B02: 29 10    AND $10
PRG:04B04: F0 06    BEQ $06
PRG:04B06: A5 FC    LDA $FC
PRG:04B08: 95 F0    STA $F0
PRG:04B0A: D0 0C    BNE $0C
PRG:04B0C: 29 F0    AND $F0
PRG:04B0E: 85 FC    STA $FC
PRG:04B10: B5 F0    LDA $F0
PRG:04B12: 29 0F    AND $0F
PRG:04B14: 05 FC    ORA $FC
PRG:04B16: 95 F0    STA $F0
PRG:04B18: B5 EC    LDA $EC
PRG:04B1A: F0 D8    BEQ $D8
PRG:04B1C: B5 BD    LDA $BD
PRG:04B1E: 4C 89 C9 JMP $C989
PRG:04B21: 20 27 CB JSR $CB27
PRG:04B24: 4C 2F C9 JMP $C92F
PRG:04B27: A5 FA    LDA $FA
PRG:04B29: 0A       ASL
PRG:04B2A: AA       TAX
PRG:04B2B: B5 AD    LDA $AD
PRG:04B2D: 95 D9    STA $D9
PRG:04B2F: B5 AE    LDA $AE
PRG:04B31: 95 DA    STA $DA
PRG:04B33: 60       RTS
PRG:04B34: A5 FA    LDA $FA
PRG:04B36: 0A       ASL
PRG:04B37: AA       TAX
PRG:04B38: B5 D9    LDA $D9
PRG:04B3A: 95 AD    STA $AD
PRG:04B3C: B5 DA    LDA $DA
PRG:04B3E: 95 AE    STA $AE
PRG:04B40: 4C 2F C9 JMP $C92F
PRG:04B43: 20 8C CB JSR $CB8C
PRG:04B46: 48       PHA
PRG:04B47: 20 8C CB JSR $CB8C
PRG:04B4A: 48       PHA
PRG:04B4B: A5 FA    LDA $FA
PRG:04B4D: 0A       ASL
PRG:04B4E: AA       TAX
PRG:04B4F: B5 AD    LDA $AD
PRG:04B51: 95 E1    STA $E1
PRG:04B53: B5 AE    LDA $AE
PRG:04B55: 95 E2    STA $E2
PRG:04B57: 68       PLA
PRG:04B58: 95 AE    STA $AE
PRG:04B5A: 68       PLA
PRG:04B5B: 95 AD    STA $AD
PRG:04B5D: 4C 2F C9 JMP $C92F
PRG:04B60: A5 FA    LDA $FA
PRG:04B62: 0A       ASL
PRG:04B63: AA       TAX
PRG:04B64: B5 E1    LDA $E1
PRG:04B66: 95 AD    STA $AD
PRG:04B68: B5 E2    LDA $E2
PRG:04B6A: 95 AE    STA $AE
PRG:04B6C: 4C 2F C9 JMP $C92F
PRG:04B6F: 20 8C CB JSR $CB8C
PRG:04B72: A6 FA    LDX $FA
PRG:04B74: 95 E9    STA $E9
PRG:04B76: 4C 2F C9 JMP $C92F
PRG:04B79: 20 8C CB JSR $CB8C
PRG:04B7C: 85 E9    STA $E9
PRG:04B7E: 85 EA    STA $EA
PRG:04B80: 85 EB    STA $EB
PRG:04B82: 4C 2F C9 JMP $C92F
PRG:04B85: A6 FA    LDX $FA
PRG:04B87: A9 08    LDA $08
PRG:04B89: 4C E0 C9 JMP $C9E0
PRG:04B8C: A5 FA    LDA $FA
PRG:04B8E: 0A       ASL
PRG:04B8F: AA       TAX
PRG:04B90: A1 AD    LDA $AD
PRG:04B92: F6 AD    INC $AD
PRG:04B94: D0 02    BNE $02
PRG:04B96: F6 AE    INC $AE
PRG:04B98: 60       RTS
PRG:04B99: AE 4E F3 LDX $F34E
PRG:04B9C: 9F       .byte $9F
PRG:04B9D: 4D 01 B9 EOR $B901
PRG:04BA0: 75 35    ADC $35
PRG:04BA2: F8       SED
PRG:04BA3: BF       .byte $BF
PRG:04BA4: 89       .byte $89
PRG:04BA5: 06 06    ASL $06
PRG:04BA7: 05 05    ORA $05
PRG:04BA9: 05 05    ORA $05
PRG:04BAB: 04 04    NOP $04
PRG:04BAD: 04 03    NOP $03
PRG:04BAF: 03       .byte $03
PRG:04BB0: 03       .byte $03
PRG:04BB1: 7F       .byte $7F
PRG:04BB2: 08       PHP
PRG:04BB3: 60       RTS
PRG:04BB4: C0 50    CPY $50
PRG:04BB6: 40       RTI
PRG:04BB7: 30 B0    BMI $B0
PRG:04BB9: 28       PLP
PRG:04BBA: 30 24    BMI $24
PRG:04BBC: D0 1E    BNE $1E
PRG:04BBE: 50 18    BVC $18
PRG:04BC0: A0 14    LDY $14
PRG:04BC2: 20 00 F0 JSR $F000
PRG:04BC5: 00 00    BRK $00
PRG:04BC7: 06 20    ASL $20
PRG:04BC9: 01 00    ORA $00
PRG:04BCB: 0E 20 1C ASL $1C20
PRG:04BCE: 00 02    BRK $02
PRG:04BD0: 68       PLA
PRG:04BD1: 00 00    BRK $00
PRG:04BD3: 04 20    NOP $20
PRG:04BD5: 00 00    BRK $00
PRG:04BD7: 0C 20 1A NOP $1A20
PRG:04BDA: 00 04    BRK $04
PRG:04BDC: A8       TAY
PRG:04BDD: 1A       NOP
PRG:04BDE: 00 04    BRK $04
PRG:04BE0: 48       PHA
PRG:04BE1: 51 CC    EOR $CC
PRG:04BE3: 84 CC    STY $CC
PRG:04BE5: A4 CC    LDY $CC
PRG:04BE7: C3       .byte $C3
PRG:04BE8: CC C6 CD CPY $CDC6
PRG:04BEB: 35 CE    AND $CE
PRG:04BED: B9 CE 80 LDA $80CE
PRG:04BF0: CF       .byte $CF
PRG:04BF1: 3C D0 7B NOP $7BD0
PRG:04BF4: D0 A2    BNE $A2
PRG:04BF6: D0 F6    BNE $F6
PRG:04BF8: D0 57    BNE $57
PRG:04BFA: D1 A7    CMP $A7
PRG:04BFC: D1 FD    CMP $FD
PRG:04BFE: D1 57    CMP $57
PRG:04C00: D2       .byte $D2
PRG:04C01: 91 D2    STA $D2
PRG:04C03: D9 D2 28 CMP $28D2
PRG:04C06: D3       .byte $D3
PRG:04C07: 7F       .byte $7F
PRG:04C08: D3       .byte $D3
PRG:04C09: 9E       .byte $9E
PRG:04C0A: D3       .byte $D3
PRG:04C0B: E0 D3    CPX $D3
PRG:04C0D: 22       .byte $22
PRG:04C0E: D4 6B    NOP $6B
PRG:04C10: D4 83    NOP $83
PRG:04C12: D4 9D    NOP $9D
PRG:04C14: D4 B7    NOP $B7
PRG:04C16: D4 D7    NOP $D7
PRG:04C18: D4 F8    NOP $F8
PRG:04C1A: D4 1B    NOP $1B
PRG:04C1C: D5 3E    CMP $3E
PRG:04C1E: D5 5C    CMP $5C
PRG:04C20: D5 6B    CMP $6B
PRG:04C22: D5 88    CMP $88
PRG:04C24: D5 A5    CMP $A5
PRG:04C26: D5 C1    CMP $C1
PRG:04C28: D5 D6    CMP $D6
PRG:04C2A: D5 F8    CMP $F8
PRG:04C2C: D5 1B    CMP $1B
PRG:04C2E: D6 2E    DEC $2E
PRG:04C30: D6 2F    DEC $2F
PRG:04C32: D6 71    DEC $71
PRG:04C34: D6 C8    DEC $C8
PRG:04C36: D6 19    DEC $19
PRG:04C38: D7       .byte $D7
PRG:04C39: 50 D7    BVC $D7
PRG:04C3B: 8F       .byte $8F
PRG:04C3C: D7       .byte $D7
PRG:04C3D: C9 D7    CMP $D7
PRG:04C3F: 02       .byte $02
PRG:04C40: CD 73 D8 CMP $D873
PRG:04C43: 8C D8 A5 STY $A5D8
PRG:04C46: D8       CLD
PRG:04C47: BF       .byte $BF
PRG:04C48: D8       CLD
PRG:04C49: 04 D9    NOP $D9
PRG:04C4B: 19 D9 2E ORA $2ED9
PRG:04C4E: D9 4A D9 CMP $D94A
PRG:04C51: 8B       .byte $8B
PRG:04C52: 7F       .byte $7F
PRG:04C53: FD 02 96 SBC $9602
PRG:04C56: 22       .byte $22
PRG:04C57: F6 03    INC $03
PRG:04C59: CD 96 3A CMP $3A96
PRG:04C5C: FB       .byte $FB
PRG:04C5D: 01 86    ORA $86
PRG:04C5F: 22       .byte $22
PRG:04C60: 85 22    STA $22
PRG:04C62: 8B       .byte $8B
PRG:04C63: 22       .byte $22
PRG:04C64: 86 4A    STX $4A
PRG:04C66: 85 4A    STA $4A
PRG:04C68: 8B       .byte $8B
PRG:04C69: 4A       LSR
PRG:04C6A: 86 12    STX $12
PRG:04C6C: 85 12    STA $12
PRG:04C6E: 86 12    STX $12
PRG:04C70: 85 7F    STA $7F
PRG:04C72: 86 3A    STX $3A
PRG:04C74: 85 3A    STA $3A
PRG:04C76: 86 3A    STX $3A
PRG:04C78: 85 7F    STA $7F
PRG:04C7A: FC FB 02 NOP $02FB
PRG:04C7D: 8B       .byte $8B
PRG:04C7E: 2A       ROL
PRG:04C7F: A1 7F    LDA $7F
PRG:04C81: D8       CLD
PRG:04C82: 32       .byte $32
PRG:04C83: FF       .byte $FF
PRG:04C84: 8B       .byte $8B
PRG:04C85: 7F       .byte $7F
PRG:04C86: FD 02 96 SBC $9602
PRG:04C89: 49 F6    EOR $F6
PRG:04C8B: 32       .byte $32
PRG:04C8C: CD 22 12 CMP $1222
PRG:04C8F: FB       .byte $FB
PRG:04C90: 01 8B    ORA $8B
PRG:04C92: 02       .byte $02
PRG:04C93: 12       .byte $12
PRG:04C94: 22       .byte $22
PRG:04C95: 2A       ROL
PRG:04C96: 3A       NOP
PRG:04C97: 4A       LSR
PRG:04C98: 52       .byte $52
PRG:04C99: 03       .byte $03
PRG:04C9A: FC FB 02 NOP $02FB
PRG:04C9D: 8B       .byte $8B
PRG:04C9E: 02       .byte $02
PRG:04C9F: A1 7F    LDA $7F
PRG:04CA1: D8       CLD
PRG:04CA2: 0A       ASL
PRG:04CA3: FF       .byte $FF
PRG:04CA4: 8B       .byte $8B
PRG:04CA5: 7F       .byte $7F
PRG:04CA6: FD 02 F6 SBC $F602
PRG:04CA9: 77       .byte $77
PRG:04CAA: CD F9 FB CMP $FBF9
PRG:04CAD: 01 FA    ORA $FA
PRG:04CAF: 06 8B    ASL $8B
PRG:04CB1: 29 4A    AND $4A
PRG:04CB3: 29 4A    AND $4A
PRG:04CB5: 01 02    ORA $02
PRG:04CB7: 01 02    ORA $02
PRG:04CB9: FC FB 02 NOP $02FB
PRG:04CBC: 8B       .byte $8B
PRG:04CBD: 4A       LSR
PRG:04CBE: A1 7F    LDA $7F
PRG:04CC0: D8       CLD
PRG:04CC1: 52       .byte $52
PRG:04CC2: FF       .byte $FF
PRG:04CC3: 84 12    STY $12
PRG:04CC5: 83       .byte $83
PRG:04CC6: 11 FD    ORA $FD
PRG:04CC8: 02       .byte $02
PRG:04CC9: 8B       .byte $8B
PRG:04CCA: 11 96    ORA $96
PRG:04CCC: 1F       .byte $1F
PRG:04CCD: 16 8B    ASL $8B
PRG:04CCF: 12       .byte $12
PRG:04CD0: 02       .byte $02
PRG:04CD1: 84 12    STY $12
PRG:04CD3: 83       .byte $83
PRG:04CD4: 11 8B    ORA $8B
PRG:04CD6: 11 96    ORA $96
PRG:04CD8: 13       .byte $13
PRG:04CD9: 8B       .byte $8B
PRG:04CDA: 11 FB    ORA $FB
PRG:04CDC: 01 7F    ORA $7F
PRG:04CDE: 13       .byte $13
PRG:04CDF: 7F       .byte $7F
PRG:04CE0: 12       .byte $12
PRG:04CE1: 84 12    STY $12
PRG:04CE3: 83       .byte $83
PRG:04CE4: 11 FC    ORA $FC
PRG:04CE6: FB       .byte $FB
PRG:04CE7: 02       .byte $02
PRG:04CE8: 11 03    ORA $03
PRG:04CEA: 83       .byte $83
PRG:04CEB: 13       .byte $13
PRG:04CEC: 82       .byte $82
PRG:04CED: 11 83    ORA $83
PRG:04CEF: 13       .byte $13
PRG:04CF0: 82       .byte $82
PRG:04CF1: 11 83    ORA $83
PRG:04CF3: 13       .byte $13
PRG:04CF4: 82       .byte $82
PRG:04CF5: 11 83    ORA $83
PRG:04CF7: 13       .byte $13
PRG:04CF8: 82       .byte $82
PRG:04CF9: 11 83    ORA $83
PRG:04CFB: 13       .byte $13
PRG:04CFC: 82       .byte $82
PRG:04CFD: 11 83    ORA $83
PRG:04CFF: 13       .byte $13
PRG:04D00: 82       .byte $82
PRG:04D01: 11 FF    ORA $FF
PRG:04D03: 96 2A    STX $2A
PRG:04D05: 12       .byte $12
PRG:04D06: 22       .byte $22
PRG:04D07: 8B       .byte $8B
PRG:04D08: 03       .byte $03
PRG:04D09: 0B       .byte $0B
PRG:04D0A: 13       .byte $13
PRG:04D0B: AC 4A 8B LDY $8B4A
PRG:04D0E: 3A       NOP
PRG:04D0F: 96 22    STX $22
PRG:04D11: 4A       LSR
PRG:04D12: 03       .byte $03
PRG:04D13: 13       .byte $13
PRG:04D14: 8B       .byte $8B
PRG:04D15: 4B       .byte $4B
PRG:04D16: 43       .byte $43
PRG:04D17: 3B       .byte $3B
PRG:04D18: 96 13    STX $13
PRG:04D1A: 8B       .byte $8B
PRG:04D1B: 13       .byte $13
PRG:04D1C: 0B       .byte $0B
PRG:04D1D: 13       .byte $13
PRG:04D1E: 2B       .byte $2B
PRG:04D1F: 23       .byte $23
PRG:04D20: 2B       .byte $2B
PRG:04D21: 3B       .byte $3B
PRG:04D22: 96 23    STX $23
PRG:04D24: 13       .byte $13
PRG:04D25: 03       .byte $03
PRG:04D26: 0B       .byte $0B
PRG:04D27: 13       .byte $13
PRG:04D28: 8B       .byte $8B
PRG:04D29: 7F       .byte $7F
PRG:04D2A: 4A       LSR
PRG:04D2B: 03       .byte $03
PRG:04D2C: 52       .byte $52
PRG:04D2D: 12       .byte $12
PRG:04D2E: 2A       ROL
PRG:04D2F: 4A       LSR
PRG:04D30: 0B       .byte $0B
PRG:04D31: F3       .byte $F3
PRG:04D32: 96 02    STX $02
PRG:04D34: 49 02    EOR $02
PRG:04D36: 8B       .byte $8B
PRG:04D37: 4A       LSR
PRG:04D38: 4A       LSR
PRG:04D39: 4A       LSR
PRG:04D3A: 86 22    STX $22
PRG:04D3C: 85 2A    STA $2A
PRG:04D3E: 86 03    STX $03
PRG:04D40: 85 13    STA $13
PRG:04D42: 86 23    STX $23
PRG:04D44: 85 2B    STA $2B
PRG:04D46: 86 3B    STX $3B
PRG:04D48: 85 23    STA $23
PRG:04D4A: 86 13    STX $13
PRG:04D4C: 85 03    STA $03
PRG:04D4E: 8B       .byte $8B
PRG:04D4F: 4A       LSR
PRG:04D50: 02       .byte $02
PRG:04D51: 96 22    STX $22
PRG:04D53: A1 4A    LDA $4A
PRG:04D55: 8B       .byte $8B
PRG:04D56: 4A       LSR
PRG:04D57: 23       .byte $23
PRG:04D58: 1B       .byte $1B
PRG:04D59: 13       .byte $13
PRG:04D5A: 96 4A    STX $4A
PRG:04D5C: 8B       .byte $8B
PRG:04D5D: 13       .byte $13
PRG:04D5E: 0B       .byte $0B
PRG:04D5F: 13       .byte $13
PRG:04D60: 13       .byte $13
PRG:04D61: 0B       .byte $0B
PRG:04D62: 13       .byte $13
PRG:04D63: 23       .byte $23
PRG:04D64: 96 52    STX $52
PRG:04D66: 3A       NOP
PRG:04D67: 8B       .byte $8B
PRG:04D68: 4A       LSR
PRG:04D69: 2A       ROL
PRG:04D6A: 4A       LSR
PRG:04D6B: 02       .byte $02
PRG:04D6C: 4A       LSR
PRG:04D6D: 7F       .byte $7F
PRG:04D6E: 7F       .byte $7F
PRG:04D6F: 12       .byte $12
PRG:04D70: 3A       NOP
PRG:04D71: 12       .byte $12
PRG:04D72: 39 51 22 AND $2251
PRG:04D75: 4A       LSR
PRG:04D76: F3       .byte $F3
PRG:04D77: 8B       .byte $8B
PRG:04D78: FA       NOP
PRG:04D79: 06 29    ASL $29
PRG:04D7B: 4A       LSR
PRG:04D7C: 01 4A    ORA $4A
PRG:04D7E: 11 4A    ORA $4A
PRG:04D80: 21 4A    AND $4A
PRG:04D82: 39 2A 39 AND $392A
PRG:04D85: 2A       ROL
PRG:04D86: F9 86 01 SBC $0186
PRG:04D89: 85 3B    STA $3B
PRG:04D8B: 86 4B    STX $4B
PRG:04D8D: 85 53    STA $53
PRG:04D8F: 86 01    STX $01
PRG:04D91: 85 53    STA $53
PRG:04D93: 86 4B    STX $4B
PRG:04D95: 85 3B    STA $3B
PRG:04D97: 8B       .byte $8B
PRG:04D98: FA       NOP
PRG:04D99: 06 29    ASL $29
PRG:04D9B: 4A       LSR
PRG:04D9C: 29 4A    AND $4A
PRG:04D9E: 21 4A    AND $4A
PRG:04DA0: 19 4A 51 ORA $514A
PRG:04DA3: 4A       LSR
PRG:04DA4: 12       .byte $12
PRG:04DA5: 4A       LSR
PRG:04DA6: 31 4A    AND $4A
PRG:04DA8: 51 4A    EOR $4A
PRG:04DAA: 39 3A 49 AND $493A
PRG:04DAD: 4A       LSR
PRG:04DAE: 51 52    EOR $52
PRG:04DB0: 59 5A F9 EOR $F95A
PRG:04DB3: 96 02    STX $02
PRG:04DB5: 0A       ASL
PRG:04DB6: 12       .byte $12
PRG:04DB7: 8B       .byte $8B
PRG:04DB8: 7F       .byte $7F
PRG:04DB9: 32       .byte $32
PRG:04DBA: 8B       .byte $8B
PRG:04DBB: FA       NOP
PRG:04DBC: 06 11    ASL $11
PRG:04DBE: 12       .byte $12
PRG:04DBF: 09 0A    ORA $0A
PRG:04DC1: 01 02    ORA $02
PRG:04DC3: 01 02    ORA $02
PRG:04DC5: F3       .byte $F3
PRG:04DC6: 88       DEY
PRG:04DC7: 02       .byte $02
PRG:04DC8: 12       .byte $12
PRG:04DC9: 7F       .byte $7F
PRG:04DCA: 2A       ROL
PRG:04DCB: 4A       LSR
PRG:04DCC: 7F       .byte $7F
PRG:04DCD: 03       .byte $03
PRG:04DCE: 7F       .byte $7F
PRG:04DCF: 23       .byte $23
PRG:04DD0: 7F       .byte $7F
PRG:04DD1: 1B       .byte $1B
PRG:04DD2: 13       .byte $13
PRG:04DD3: 7F       .byte $7F
PRG:04DD4: 7F       .byte $7F
PRG:04DD5: 02       .byte $02
PRG:04DD6: F7       .byte $F7
PRG:04DD7: F4 02    NOP $02
PRG:04DD9: F6 F2    INC $F2
PRG:04DDB: CF       .byte $CF
PRG:04DDC: F4 00    NOP $00
PRG:04DDE: 52       .byte $52
PRG:04DDF: F9 C0 F6 SBC $F6C0
PRG:04DE2: F2       .byte $F2
PRG:04DE3: CF       .byte $CF
PRG:04DE4: 4A       LSR
PRG:04DE5: F9 C0 7F SBC $7FC0
PRG:04DE8: 88       DEY
PRG:04DE9: 03       .byte $03
PRG:04DEA: 7F       .byte $7F
PRG:04DEB: 0B       .byte $0B
PRG:04DEC: 13       .byte $13
PRG:04DED: A0 7F    LDY $7F
PRG:04DEF: 8B       .byte $8B
PRG:04DF0: 03       .byte $03
PRG:04DF1: 03       .byte $03
PRG:04DF2: 8A       TXA
PRG:04DF3: 0B       .byte $0B
PRG:04DF4: 88       DEY
PRG:04DF5: 13       .byte $13
PRG:04DF6: 7F       .byte $7F
PRG:04DF7: F4 02    NOP $02
PRG:04DF9: F6 01    INC $01
PRG:04DFB: D0 F4    BNE $F4
PRG:04DFD: 00 52    BRK $52
PRG:04DFF: F9 C0 F6 SBC $F6C0
PRG:04E02: F2       .byte $F2
PRG:04E03: CF       .byte $CF
PRG:04E04: 4A       LSR
PRG:04E05: F9 88 7F SBC $7F88
PRG:04E08: 2A       ROL
PRG:04E09: 22       .byte $22
PRG:04E0A: 2A       ROL
PRG:04E0B: 4A       LSR
PRG:04E0C: 2A       ROL
PRG:04E0D: 4A       LSR
PRG:04E0E: 03       .byte $03
PRG:04E0F: F6 0A    INC $0A
PRG:04E11: D0 90    BNE $90
PRG:04E13: 2B       .byte $2B
PRG:04E14: 88       DEY
PRG:04E15: F6 13    INC $13
PRG:04E17: D0 F6    BNE $F6
PRG:04E19: 0A       ASL
PRG:04E1A: D0 2B    BNE $2B
PRG:04E1C: 2B       .byte $2B
PRG:04E1D: F6 13    INC $13
PRG:04E1F: D0 03    BNE $03
PRG:04E21: 03       .byte $03
PRG:04E22: 7F       .byte $7F
PRG:04E23: 0B       .byte $0B
PRG:04E24: 13       .byte $13
PRG:04E25: 7F       .byte $7F
PRG:04E26: 7F       .byte $7F
PRG:04E27: 4A       LSR
PRG:04E28: 03       .byte $03
PRG:04E29: 03       .byte $03
PRG:04E2A: 7F       .byte $7F
PRG:04E2B: 0B       .byte $0B
PRG:04E2C: 13       .byte $13
PRG:04E2D: 7F       .byte $7F
PRG:04E2E: 4B       .byte $4B
PRG:04E2F: 7F       .byte $7F
PRG:04E30: 2B       .byte $2B
PRG:04E31: 7F       .byte $7F
PRG:04E32: 7F       .byte $7F
PRG:04E33: E8       INX
PRG:04E34: FE 88 49 INC $4988
PRG:04E37: 02       .byte $02
PRG:04E38: 7F       .byte $7F
PRG:04E39: 12       .byte $12
PRG:04E3A: 2A       ROL
PRG:04E3B: 7F       .byte $7F
PRG:04E3C: 4A       LSR
PRG:04E3D: 7F       .byte $7F
PRG:04E3E: 03       .byte $03
PRG:04E3F: 7F       .byte $7F
PRG:04E40: 5A       NOP
PRG:04E41: 52       .byte $52
PRG:04E42: 7F       .byte $7F
PRG:04E43: 7F       .byte $7F
PRG:04E44: 01 F7    ORA $F7
PRG:04E46: F4 02    NOP $02
PRG:04E48: F6 1B    INC $1B
PRG:04E4A: D0 F4    BNE $F4
PRG:04E4C: 00 52    BRK $52
PRG:04E4E: 3A       NOP
PRG:04E4F: F9 C0 F6 SBC $F6C0
PRG:04E52: 1B       .byte $1B
PRG:04E53: D0 4A    BNE $4A
PRG:04E55: 2A       ROL
PRG:04E56: F9 C0 7F SBC $7FC0
PRG:04E59: 88       DEY
PRG:04E5A: 4A       LSR
PRG:04E5B: 7F       .byte $7F
PRG:04E5C: 4A       LSR
PRG:04E5D: 4A       LSR
PRG:04E5E: A0 7F    LDY $7F
PRG:04E60: 8B       .byte $8B
PRG:04E61: 4A       LSR
PRG:04E62: 4A       LSR
PRG:04E63: 8A       TXA
PRG:04E64: 4A       LSR
PRG:04E65: 88       DEY
PRG:04E66: 4A       LSR
PRG:04E67: 7F       .byte $7F
PRG:04E68: F4 02    NOP $02
PRG:04E6A: F6 2A    INC $2A
PRG:04E6C: D0 F4    BNE $F4
PRG:04E6E: 00 52    BRK $52
PRG:04E70: 3A       NOP
PRG:04E71: F9 C0 F6 SBC $F6C0
PRG:04E74: 1B       .byte $1B
PRG:04E75: D0 4A    BNE $4A
PRG:04E77: 2A       ROL
PRG:04E78: 88       DEY
PRG:04E79: F9 7F 2A SBC $2A7F
PRG:04E7C: 22       .byte $22
PRG:04E7D: 2A       ROL
PRG:04E7E: 2A       ROL
PRG:04E7F: 02       .byte $02
PRG:04E80: 2A       ROL
PRG:04E81: 4A       LSR
PRG:04E82: 90 4A    BCC $4A
PRG:04E84: 88       DEY
PRG:04E85: 03       .byte $03
PRG:04E86: A0 1B    LDY $1B
PRG:04E88: 88       DEY
PRG:04E89: 2A       ROL
PRG:04E8A: 90 4A    BCC $4A
PRG:04E8C: 88       DEY
PRG:04E8D: 03       .byte $03
PRG:04E8E: 90 1B    BCC $1B
PRG:04E90: 88       DEY
PRG:04E91: 2B       .byte $2B
PRG:04E92: 1B       .byte $1B
PRG:04E93: 4A       LSR
PRG:04E94: 90 13    BCC $13
PRG:04E96: 88       DEY
PRG:04E97: 03       .byte $03
PRG:04E98: A0 13    LDY $13
PRG:04E9A: 88       DEY
PRG:04E9B: 52       .byte $52
PRG:04E9C: 13       .byte $13
PRG:04E9D: 13       .byte $13
PRG:04E9E: 52       .byte $52
PRG:04E9F: 13       .byte $13
PRG:04EA0: 7F       .byte $7F
PRG:04EA1: 2B       .byte $2B
PRG:04EA2: 13       .byte $13
PRG:04EA3: 52       .byte $52
PRG:04EA4: 3A       NOP
PRG:04EA5: 4A       LSR
PRG:04EA6: 7F       .byte $7F
PRG:04EA7: 3A       NOP
PRG:04EA8: 52       .byte $52
PRG:04EA9: 7F       .byte $7F
PRG:04EAA: 7F       .byte $7F
PRG:04EAB: 7F       .byte $7F
PRG:04EAC: 3A       NOP
PRG:04EAD: 4A       LSR
PRG:04EAE: 7F       .byte $7F
PRG:04EAF: 3A       NOP
PRG:04EB0: 52       .byte $52
PRG:04EB1: 7F       .byte $7F
PRG:04EB2: 23       .byte $23
PRG:04EB3: 7F       .byte $7F
PRG:04EB4: 03       .byte $03
PRG:04EB5: 7F       .byte $7F
PRG:04EB6: 7F       .byte $7F
PRG:04EB7: E8       INX
PRG:04EB8: FE 88 29 INC $2988
PRG:04EBB: 49 7F    EOR $7F
PRG:04EBD: 02       .byte $02
PRG:04EBE: 12       .byte $12
PRG:04EBF: 7F       .byte $7F
PRG:04EC0: 2A       ROL
PRG:04EC1: 7F       .byte $7F
PRG:04EC2: 4A       LSR
PRG:04EC3: 7F       .byte $7F
PRG:04EC4: 2A       ROL
PRG:04EC5: 02       .byte $02
PRG:04EC6: 7F       .byte $7F
PRG:04EC7: 7F       .byte $7F
PRG:04EC8: 01 F7    ORA $F7
PRG:04ECA: 7F       .byte $7F
PRG:04ECB: 88       DEY
PRG:04ECC: 2A       ROL
PRG:04ECD: 7F       .byte $7F
PRG:04ECE: 7F       .byte $7F
PRG:04ECF: 29 7F    AND $7F
PRG:04ED1: 7F       .byte $7F
PRG:04ED2: 49 02    EOR $02
PRG:04ED4: 2A       ROL
PRG:04ED5: 7F       .byte $7F
PRG:04ED6: 2A       ROL
PRG:04ED7: 29 7F    AND $7F
PRG:04ED9: 2A       ROL
PRG:04EDA: 2A       ROL
PRG:04EDB: 2A       ROL
PRG:04EDC: 90 FA    BCC $FA
PRG:04EDE: 08       PHP
PRG:04EDF: 01 02    ORA $02
PRG:04EE1: 01 F9    ORA $F9
PRG:04EE3: 88       DEY
PRG:04EE4: 02       .byte $02
PRG:04EE5: 7F       .byte $7F
PRG:04EE6: F6 32    INC $32
PRG:04EE8: D0 FA    BNE $FA
PRG:04EEA: 08       PHP
PRG:04EEB: 21 02    AND $02
PRG:04EED: F9 88 22 SBC $2288
PRG:04EF0: 12       .byte $12
PRG:04EF1: 21 7F    AND $7F
PRG:04EF3: 7F       .byte $7F
PRG:04EF4: 02       .byte $02
PRG:04EF5: 7F       .byte $7F
PRG:04EF6: 51 49    EOR $49
PRG:04EF8: 51 90    EOR $90
PRG:04EFA: FA       NOP
PRG:04EFB: 08       PHP
PRG:04EFC: 29 2A    AND $2A
PRG:04EFE: 02       .byte $02
PRG:04EFF: 29 F9    AND $F9
PRG:04F01: 88       DEY
PRG:04F02: 29 90    AND $90
PRG:04F04: 49 88    EOR $88
PRG:04F06: 49 90    EOR $90
PRG:04F08: 49 01    EOR $01
PRG:04F0A: 98       TYA
PRG:04F0B: 29 88    AND $88
PRG:04F0D: 02       .byte $02
PRG:04F0E: 7F       .byte $7F
PRG:04F0F: 7F       .byte $7F
PRG:04F10: 4A       LSR
PRG:04F11: 02       .byte $02
PRG:04F12: 8B       .byte $8B
PRG:04F13: 29 02    AND $02
PRG:04F15: 8A       TXA
PRG:04F16: 49 88    EOR $88
PRG:04F18: 2A       ROL
PRG:04F19: 7F       .byte $7F
PRG:04F1A: 29 01    AND $01
PRG:04F1C: 90 FA    BCC $FA
PRG:04F1E: 08       PHP
PRG:04F1F: 01 01    ORA $01
PRG:04F21: 02       .byte $02
PRG:04F22: 01 F9    ORA $F9
PRG:04F24: 88       DEY
PRG:04F25: F6 32    INC $32
PRG:04F27: D0 39    BNE $39
PRG:04F29: 88       DEY
PRG:04F2A: 02       .byte $02
PRG:04F2B: 7F       .byte $7F
PRG:04F2C: 7F       .byte $7F
PRG:04F2D: 22       .byte $22
PRG:04F2E: 12       .byte $12
PRG:04F2F: 98       TYA
PRG:04F30: 39 88 02 AND $0288
PRG:04F33: 7F       .byte $7F
PRG:04F34: 51 49    EOR $49
PRG:04F36: 51 90    EOR $90
PRG:04F38: FA       NOP
PRG:04F39: 08       PHP
PRG:04F3A: 29 2A    AND $2A
PRG:04F3C: 02       .byte $02
PRG:04F3D: F9 88 29 SBC $2988
PRG:04F40: 7F       .byte $7F
PRG:04F41: 7F       .byte $7F
PRG:04F42: 29 21    AND $21
PRG:04F44: 29 49    AND $49
PRG:04F46: 29 49    AND $49
PRG:04F48: 02       .byte $02
PRG:04F49: 98       TYA
PRG:04F4A: 49 02    EOR $02
PRG:04F4C: 88       DEY
PRG:04F4D: 2A       ROL
PRG:04F4E: 02       .byte $02
PRG:04F4F: 98       TYA
PRG:04F50: 49 02    EOR $02
PRG:04F52: 88       DEY
PRG:04F53: 2A       ROL
PRG:04F54: 02       .byte $02
PRG:04F55: 98       TYA
PRG:04F56: 51 12    EOR $12
PRG:04F58: 88       DEY
PRG:04F59: 42       .byte $42
PRG:04F5A: 2A       ROL
PRG:04F5B: 98       TYA
PRG:04F5C: 51 90    EOR $90
PRG:04F5E: 12       .byte $12
PRG:04F5F: 88       DEY
PRG:04F60: 2A       ROL
PRG:04F61: 0A       ASL
PRG:04F62: 51 21    EOR $21
PRG:04F64: 39 7F 02 AND $027F
PRG:04F67: 01 7F    ORA $7F
PRG:04F69: 7F       .byte $7F
PRG:04F6A: 7F       .byte $7F
PRG:04F6B: 21 39    AND $39
PRG:04F6D: 7F       .byte $7F
PRG:04F6E: 02       .byte $02
PRG:04F6F: 01 7F    ORA $7F
PRG:04F71: 52       .byte $52
PRG:04F72: 7F       .byte $7F
PRG:04F73: 4A       LSR
PRG:04F74: 7F       .byte $7F
PRG:04F75: 01 11    ORA $11
PRG:04F77: 7F       .byte $7F
PRG:04F78: 29 7F    AND $7F
PRG:04F7A: 49 90    EOR $90
PRG:04F7C: 02       .byte $02
PRG:04F7D: 0A       ASL
PRG:04F7E: 12       .byte $12
PRG:04F7F: FE 88 42 INC $4288
PRG:04F82: 7F       .byte $7F
PRG:04F83: 41 90    EOR $90
PRG:04F85: 43       .byte $43
PRG:04F86: 88       DEY
PRG:04F87: 42       .byte $42
PRG:04F88: 02       .byte $02
PRG:04F89: 41 7F    EOR $7F
PRG:04F8B: F7       .byte $F7
PRG:04F8C: FD 06 90 SBC $9006
PRG:04F8F: 31 88    AND $88
PRG:04F91: 42       .byte $42
PRG:04F92: FC 42 7F NOP $7F42
PRG:04F95: 41 90    EOR $90
PRG:04F97: 32       .byte $32
PRG:04F98: FD 06 90 SBC $9006
PRG:04F9B: 31 88    AND $88
PRG:04F9D: 42       .byte $42
PRG:04F9E: FC 42 7F NOP $7F42
PRG:04FA1: 41 90    EOR $90
PRG:04FA3: 32       .byte $32
PRG:04FA4: FD 02 90 SBC $9002
PRG:04FA7: 31 88    AND $88
PRG:04FA9: 42       .byte $42
PRG:04FAA: FC 8B 42 NOP $428B
PRG:04FAD: 8A       TXA
PRG:04FAE: 41 FD    EOR $FD
PRG:04FB0: 03       .byte $03
PRG:04FB1: 90 31    BCC $31
PRG:04FB3: 88       DEY
PRG:04FB4: 42       .byte $42
PRG:04FB5: FC 42 7F NOP $7F42
PRG:04FB8: 41 90    EOR $90
PRG:04FBA: 32       .byte $32
PRG:04FBB: FD 06 90 SBC $9006
PRG:04FBE: 31 88    AND $88
PRG:04FC0: 42       .byte $42
PRG:04FC1: FC 7F 41 NOP $417F
PRG:04FC4: 7F       .byte $7F
PRG:04FC5: 43       .byte $43
PRG:04FC6: 7F       .byte $7F
PRG:04FC7: 43       .byte $43
PRG:04FC8: 7F       .byte $7F
PRG:04FC9: 41 90    EOR $90
PRG:04FCB: 31 88    AND $88
PRG:04FCD: 45 7F    EOR $7F
PRG:04FCF: 41 90    EOR $90
PRG:04FD1: 31 88    AND $88
PRG:04FD3: 43       .byte $43
PRG:04FD4: 7F       .byte $7F
PRG:04FD5: 42       .byte $42
PRG:04FD6: FD 04 90 SBC $9004
PRG:04FD9: 31 88    AND $88
PRG:04FDB: 42       .byte $42
PRG:04FDC: FC 7F 44 NOP $447F
PRG:04FDF: 7F       .byte $7F
PRG:04FE0: 41 90    EOR $90
PRG:04FE2: 31 88    AND $88
PRG:04FE4: 42       .byte $42
PRG:04FE5: 41 7F    EOR $7F
PRG:04FE7: 42       .byte $42
PRG:04FE8: 7F       .byte $7F
PRG:04FE9: 90 31    BCC $31
PRG:04FEB: 88       DEY
PRG:04FEC: 41 90    EOR $90
PRG:04FEE: 43       .byte $43
PRG:04FEF: 88       DEY
PRG:04FF0: 42       .byte $42
PRG:04FF1: FE 7F 88 INC $887F
PRG:04FF4: 52       .byte $52
PRG:04FF5: 7F       .byte $7F
PRG:04FF6: 5A       NOP
PRG:04FF7: 03       .byte $03
PRG:04FF8: A0 7F    LDY $7F
PRG:04FFA: 88       DEY
PRG:04FFB: 52       .byte $52
PRG:04FFC: 7F       .byte $7F
PRG:04FFD: 5A       NOP
PRG:04FFE: 03       .byte $03
PRG:04FFF: 7F       .byte $7F
PRG:05000: 03       .byte $03
PRG:05001: 5A       NOP
PRG:05002: 03       .byte $03
PRG:05003: FA       NOP
PRG:05004: 08       PHP
PRG:05005: 90 13    BCC $13
PRG:05007: 13       .byte $13
PRG:05008: 03       .byte $03
PRG:05009: F3       .byte $F3
PRG:0500A: 90 2B    BCC $2B
PRG:0500C: 88       DEY
PRG:0500D: 33       .byte $33
PRG:0500E: A0 3B    LDY $3B
PRG:05010: 88       DEY
PRG:05011: 13       .byte $13
PRG:05012: F3       .byte $F3
PRG:05013: 33       .byte $33
PRG:05014: 90 3B    BCC $3B
PRG:05016: 88       DEY
PRG:05017: 4B       .byte $4B
PRG:05018: 3B       .byte $3B
PRG:05019: 13       .byte $13
PRG:0501A: F3       .byte $F3
PRG:0501B: 7F       .byte $7F
PRG:0501C: 88       DEY
PRG:0501D: 3A       NOP
PRG:0501E: 7F       .byte $7F
PRG:0501F: 3A       NOP
PRG:05020: 3A       NOP
PRG:05021: A0 7F    LDY $7F
PRG:05023: 88       DEY
PRG:05024: 3A       NOP
PRG:05025: 7F       .byte $7F
PRG:05026: 3A       NOP
PRG:05027: 3A       NOP
PRG:05028: 7F       .byte $7F
PRG:05029: 3A       NOP
PRG:0502A: 32       .byte $32
PRG:0502B: 3A       NOP
PRG:0502C: FA       NOP
PRG:0502D: 08       PHP
PRG:0502E: 90 52    BCC $52
PRG:05030: 52       .byte $52
PRG:05031: F3       .byte $F3
PRG:05032: 39 90 12 AND $1290
PRG:05035: 88       DEY
PRG:05036: 0A       ASL
PRG:05037: 90 02    BCC $02
PRG:05039: 39 98 F3 AND $F398
PRG:0503C: F8       SED
PRG:0503D: 40       RTI
PRG:0503E: 8F       .byte $8F
PRG:0503F: 7F       .byte $7F
PRG:05040: 5A       NOP
PRG:05041: 03       .byte $03
PRG:05042: 5A       NOP
PRG:05043: 52       .byte $52
PRG:05044: 5A       NOP
PRG:05045: 0B       .byte $0B
PRG:05046: 1B       .byte $1B
PRG:05047: F7       .byte $F7
PRG:05048: 9E       .byte $9E
PRG:05049: FA       NOP
PRG:0504A: 0F       .byte $0F
PRG:0504B: 23       .byte $23
PRG:0504C: 33       .byte $33
PRG:0504D: 1B       .byte $1B
PRG:0504E: F9 8F 5A SBC $5A8F
PRG:05051: 85 59    STA $59
PRG:05053: 0A       ASL
PRG:05054: 1A       NOP
PRG:05055: 88       DEY
PRG:05056: 22       .byte $22
PRG:05057: 87       .byte $87
PRG:05058: 7F       .byte $7F
PRG:05059: 8F       .byte $8F
PRG:0505A: 23       .byte $23
PRG:0505B: 7F       .byte $7F
PRG:0505C: 33       .byte $33
PRG:0505D: 1B       .byte $1B
PRG:0505E: 7F       .byte $7F
PRG:0505F: 5A       NOP
PRG:05060: 7F       .byte $7F
PRG:05061: F4 03    NOP $03
PRG:05063: F6 1F    INC $1F
PRG:05065: D1 F4    CMP $F4
PRG:05067: 0C F6 29 NOP $29F6
PRG:0506A: D1 F4    CMP $F4
PRG:0506C: 05 F6    ORA $F6
PRG:0506E: 32       .byte $32
PRG:0506F: D1 F4    CMP $F4
PRG:05071: 03       .byte $03
PRG:05072: F6 39    INC $39
PRG:05074: D1 F4    CMP $F4
PRG:05076: 00 F6    BRK $F6
PRG:05078: 46 D1    LSR $D1
PRG:0507A: FE F8 00 INC $00F8
PRG:0507D: F6 4D    INC $4D
PRG:0507F: D1 F7    CMP $F7
PRG:05081: 9E       .byte $9E
PRG:05082: FA       NOP
PRG:05083: 0F       .byte $0F
PRG:05084: 3A       NOP
PRG:05085: 4A       LSR
PRG:05086: 32       .byte $32
PRG:05087: 32       .byte $32
PRG:05088: F9 8F 7F SBC $7F8F
PRG:0508B: 3A       NOP
PRG:0508C: 7F       .byte $7F
PRG:0508D: 4A       LSR
PRG:0508E: 32       .byte $32
PRG:0508F: 7F       .byte $7F
PRG:05090: 32       .byte $32
PRG:05091: 7F       .byte $7F
PRG:05092: F6 1F    INC $1F
PRG:05094: D1 F6    CMP $F6
PRG:05096: 29 D1    AND $D1
PRG:05098: F6 32    INC $32
PRG:0509A: D1 F6    CMP $F6
PRG:0509C: 39 D1 F6 AND $F6D1
PRG:0509F: 46 D1    LSR $D1
PRG:050A1: FE F6 4D INC $4DF6
PRG:050A4: D1 F7    CMP $F7
PRG:050A6: 9E       .byte $9E
PRG:050A7: FA       NOP
PRG:050A8: 0F       .byte $0F
PRG:050A9: 22       .byte $22
PRG:050AA: 59 49 1A EOR $1A49
PRG:050AD: F9 8F 7F SBC $7F8F
PRG:050B0: 21 7F    AND $7F
PRG:050B2: 59 49 7F EOR $7F49
PRG:050B5: 1A       NOP
PRG:050B6: 7F       .byte $7F
PRG:050B7: 9E       .byte $9E
PRG:050B8: 49 8F    EOR $8F
PRG:050BA: 51 AD    EOR $AD
PRG:050BC: 59 8F 51 EOR $518F
PRG:050BF: 59 7F 4A EOR $4A7F
PRG:050C2: 42       .byte $42
PRG:050C3: 22       .byte $22
PRG:050C4: 3A       NOP
PRG:050C5: 32       .byte $32
PRG:050C6: 0A       ASL
PRG:050C7: 02       .byte $02
PRG:050C8: 12       .byte $12
PRG:050C9: 1A       NOP
PRG:050CA: 12       .byte $12
PRG:050CB: 1A       NOP
PRG:050CC: 9E       .byte $9E
PRG:050CD: 7F       .byte $7F
PRG:050CE: 88       DEY
PRG:050CF: 1A       NOP
PRG:050D0: 87       .byte $87
PRG:050D1: 59 88 22 EOR $2288
PRG:050D4: 87       .byte $87
PRG:050D5: 59 88 32 EOR $3288
PRG:050D8: 87       .byte $87
PRG:050D9: 7F       .byte $7F
PRG:050DA: 88       DEY
PRG:050DB: 4A       LSR
PRG:050DC: 87       .byte $87
PRG:050DD: 7F       .byte $7F
PRG:050DE: 8F       .byte $8F
PRG:050DF: 03       .byte $03
PRG:050E0: 85 5A    STA $5A
PRG:050E2: 03       .byte $03
PRG:050E3: 5A       NOP
PRG:050E4: 8F       .byte $8F
PRG:050E5: 4A       LSR
PRG:050E6: 7F       .byte $7F
PRG:050E7: 7F       .byte $7F
PRG:050E8: 7F       .byte $7F
PRG:050E9: 03       .byte $03
PRG:050EA: 4A       LSR
PRG:050EB: 7F       .byte $7F
PRG:050EC: 32       .byte $32
PRG:050ED: 59 85 59 EOR $5985
PRG:050F0: 02       .byte $02
PRG:050F1: 59 8F 51 EOR $518F
PRG:050F4: 59 FE E9 EOR $E9FE
PRG:050F7: 7F       .byte $7F
PRG:050F8: 85 13    STA $13
PRG:050FA: F7       .byte $F7
PRG:050FB: 9E       .byte $9E
PRG:050FC: 13       .byte $13
PRG:050FD: 8F       .byte $8F
PRG:050FE: 11 85    ORA $85
PRG:05100: 13       .byte $13
PRG:05101: 8F       .byte $8F
PRG:05102: FD 02 12 SBC $1202
PRG:05105: 7F       .byte $7F
PRG:05106: FC 9E 12 NOP $129E
PRG:05109: 8F       .byte $8F
PRG:0510A: 12       .byte $12
PRG:0510B: 02       .byte $02
PRG:0510C: 12       .byte $12
PRG:0510D: BC 02 8F LDY $8F02
PRG:05110: 14 04    NOP $04
PRG:05112: 13       .byte $13
PRG:05113: 85 13    STA $13
PRG:05115: 8F       .byte $8F
PRG:05116: 11 02    ORA $02
PRG:05118: 13       .byte $13
PRG:05119: 7F       .byte $7F
PRG:0511A: 12       .byte $12
PRG:0511B: 02       .byte $02
PRG:0511C: 85 13    STA $13
PRG:0511E: FE 9E 5A INC $5A9E
PRG:05121: 8F       .byte $8F
PRG:05122: 4A       LSR
PRG:05123: AD 1A 8F LDA $8F1A
PRG:05126: 12       .byte $12
PRG:05127: 1A       NOP
PRG:05128: F3       .byte $F3
PRG:05129: 7F       .byte $7F
PRG:0512A: 49 41    EOR $41
PRG:0512C: 21 39    AND $39
PRG:0512E: 31 09    AND $09
PRG:05130: 01 F3    ORA $F3
PRG:05132: 29 31    AND $31
PRG:05134: 29 31    AND $31
PRG:05136: BC 7F F3 LDY $F37F
PRG:05139: 7F       .byte $7F
PRG:0513A: 8F       .byte $8F
PRG:0513B: 7F       .byte $7F
PRG:0513C: 32       .byte $32
PRG:0513D: 4A       LSR
PRG:0513E: 03       .byte $03
PRG:0513F: 1B       .byte $1B
PRG:05140: 03       .byte $03
PRG:05141: 7F       .byte $7F
PRG:05142: 32       .byte $32
PRG:05143: 1A       NOP
PRG:05144: 85 F3    STA $F3
PRG:05146: 59 02 59 EOR $5902
PRG:05149: 8F       .byte $8F
PRG:0514A: 51 59    EOR $59
PRG:0514C: F3       .byte $F3
PRG:0514D: 8F       .byte $8F
PRG:0514E: 7F       .byte $7F
PRG:0514F: 5A       NOP
PRG:05150: 52       .byte $52
PRG:05151: 4A       LSR
PRG:05152: 42       .byte $42
PRG:05153: 3A       NOP
PRG:05154: 32       .byte $32
PRG:05155: 2A       ROL
PRG:05156: F3       .byte $F3
PRG:05157: F8       SED
PRG:05158: 40       RTI
PRG:05159: 8C FA 18 STY $18FA
PRG:0515C: 29 F9    AND $F9
PRG:0515E: 4B       .byte $4B
PRG:0515F: FA       NOP
PRG:05160: 18       CLC
PRG:05161: 23       .byte $23
PRG:05162: F9 2B FA SBC $FA2B
PRG:05165: 18       CLC
PRG:05166: 5A       NOP
PRG:05167: F9 03 4A SBC $4A03
PRG:0516A: 02       .byte $02
PRG:0516B: 2A       ROL
PRG:0516C: D4 7F    NOP $7F
PRG:0516E: F7       .byte $F7
PRG:0516F: A4 4A    LDY $4A
PRG:05171: 03       .byte $03
PRG:05172: 98       TYA
PRG:05173: 13       .byte $13
PRG:05174: A4 42    LDY $42
PRG:05176: 23       .byte $23
PRG:05177: 98       TYA
PRG:05178: 13       .byte $13
PRG:05179: C8       INY
PRG:0517A: 4A       LSR
PRG:0517B: 8C 03 13 STY $1303
PRG:0517E: 23       .byte $23
PRG:0517F: 23       .byte $23
PRG:05180: 13       .byte $13
PRG:05181: 23       .byte $23
PRG:05182: 7F       .byte $7F
PRG:05183: 13       .byte $13
PRG:05184: 7F       .byte $7F
PRG:05185: 42       .byte $42
PRG:05186: 4A       LSR
PRG:05187: 03       .byte $03
PRG:05188: 3B       .byte $3B
PRG:05189: 2B       .byte $2B
PRG:0518A: 7F       .byte $7F
PRG:0518B: 03       .byte $03
PRG:0518C: 3A       NOP
PRG:0518D: 4A       LSR
PRG:0518E: 52       .byte $52
PRG:0518F: 0B       .byte $0B
PRG:05190: 43       .byte $43
PRG:05191: 33       .byte $33
PRG:05192: 7F       .byte $7F
PRG:05193: 0B       .byte $0B
PRG:05194: 52       .byte $52
PRG:05195: 32       .byte $32
PRG:05196: 2A       ROL
PRG:05197: 7F       .byte $7F
PRG:05198: 7F       .byte $7F
PRG:05199: 4A       LSR
PRG:0519A: 03       .byte $03
PRG:0519B: 03       .byte $03
PRG:0519C: 4A       LSR
PRG:0519D: 03       .byte $03
PRG:0519E: 2A       ROL
PRG:0519F: 02       .byte $02
PRG:051A0: 12       .byte $12
PRG:051A1: 22       .byte $22
PRG:051A2: 2A       ROL
PRG:051A3: 3A       NOP
PRG:051A4: 4A       LSR
PRG:051A5: 52       .byte $52
PRG:051A6: FE 8C FA INC $FA8C
PRG:051A9: 18       CLC
PRG:051AA: 49 F9    EOR $F9
PRG:051AC: 2B       .byte $2B
PRG:051AD: FA       NOP
PRG:051AE: 18       CLC
PRG:051AF: 5A       NOP
PRG:051B0: F9 03 FA SBC $FA03
PRG:051B3: 18       CLC
PRG:051B4: 42       .byte $42
PRG:051B5: F9 4A 2A SBC $2A4A
PRG:051B8: 49 12    EOR $12
PRG:051BA: D4 7F    NOP $7F
PRG:051BC: F7       .byte $F7
PRG:051BD: A4 2A    LDY $2A
PRG:051BF: 4A       LSR
PRG:051C0: 98       TYA
PRG:051C1: 4A       LSR
PRG:051C2: 59 8C 22 EOR $228C
PRG:051C5: 5A       NOP
PRG:051C6: 7F       .byte $7F
PRG:051C7: 42       .byte $42
PRG:051C8: 22       .byte $22
PRG:051C9: 59 98 22 EOR $2298
PRG:051CC: 8C 2A 98 STY $982A
PRG:051CF: 12       .byte $12
PRG:051D0: 8C 22 2A STY $2A22
PRG:051D3: 4A       LSR
PRG:051D4: 03       .byte $03
PRG:051D5: 03       .byte $03
PRG:051D6: 22       .byte $22
PRG:051D7: 03       .byte $03
PRG:051D8: 7F       .byte $7F
PRG:051D9: 42       .byte $42
PRG:051DA: 7F       .byte $7F
PRG:051DB: 22       .byte $22
PRG:051DC: 2A       ROL
PRG:051DD: 4A       LSR
PRG:051DE: 23       .byte $23
PRG:051DF: 13       .byte $13
PRG:051E0: 7F       .byte $7F
PRG:051E1: 4A       LSR
PRG:051E2: 22       .byte $22
PRG:051E3: 02       .byte $02
PRG:051E4: 32       .byte $32
PRG:051E5: 52       .byte $52
PRG:051E6: 2B       .byte $2B
PRG:051E7: 1B       .byte $1B
PRG:051E8: 7F       .byte $7F
PRG:051E9: 52       .byte $52
PRG:051EA: 32       .byte $32
PRG:051EB: 0A       ASL
PRG:051EC: 49 7F    EOR $7F
PRG:051EE: 7F       .byte $7F
PRG:051EF: 02       .byte $02
PRG:051F0: 4A       LSR
PRG:051F1: 4A       LSR
PRG:051F2: 02       .byte $02
PRG:051F3: 4A       LSR
PRG:051F4: 49 7F    EOR $7F
PRG:051F6: 59 51 49 EOR $4951
PRG:051F9: 51 02    EOR $02
PRG:051FB: 12       .byte $12
PRG:051FC: FE 8C FA INC $FA8C
PRG:051FF: 18       CLC
PRG:05200: 29 F9    AND $F9
PRG:05202: 04 FA    NOP $FA
PRG:05204: 18       CLC
PRG:05205: 43       .byte $43
PRG:05206: F9 4B FA SBC $FA4B
PRG:05209: 18       CLC
PRG:0520A: 23       .byte $23
PRG:0520B: F9 2B 03 SBC $032B
PRG:0520E: 2A       ROL
PRG:0520F: 29 7F    AND $7F
PRG:05211: 39 0A 7F AND $7F0A
PRG:05214: 02       .byte $02
PRG:05215: 98       TYA
PRG:05216: 31 F7    AND $F7
PRG:05218: 98       TYA
PRG:05219: 29 8C    AND $8C
PRG:0521B: 02       .byte $02
PRG:0521C: 2A       ROL
PRG:0521D: 7F       .byte $7F
PRG:0521E: 02       .byte $02
PRG:0521F: 7F       .byte $7F
PRG:05220: 29 98    AND $98
PRG:05222: 21 8C    AND $8C
PRG:05224: 41 22    EOR $22
PRG:05226: 7F       .byte $7F
PRG:05227: 59 7F 21 EOR $217F
PRG:0522A: 98       TYA
PRG:0522B: 29 8C    AND $8C
PRG:0522D: 7F       .byte $7F
PRG:0522E: 02       .byte $02
PRG:0522F: 4A       LSR
PRG:05230: 02       .byte $02
PRG:05231: 7F       .byte $7F
PRG:05232: 29 42    AND $42
PRG:05234: 42       .byte $42
PRG:05235: 02       .byte $02
PRG:05236: 39 7F 01 AND $017F
PRG:05239: 7F       .byte $7F
PRG:0523A: 02       .byte $02
PRG:0523B: 29 7F    AND $7F
PRG:0523D: 29 02    AND $02
PRG:0523F: 7F       .byte $7F
PRG:05240: 7F       .byte $7F
PRG:05241: 4A       LSR
PRG:05242: 02       .byte $02
PRG:05243: 31 7F    AND $7F
PRG:05245: 31 0A    AND $0A
PRG:05247: 7F       .byte $7F
PRG:05248: 52       .byte $52
PRG:05249: 32       .byte $32
PRG:0524A: 0A       ASL
PRG:0524B: 29 7F    AND $7F
PRG:0524D: 7F       .byte $7F
PRG:0524E: 49 02    EOR $02
PRG:05250: 02       .byte $02
PRG:05251: 49 02    EOR $02
PRG:05253: 29 D4    AND $D4
PRG:05255: 7F       .byte $7F
PRG:05256: FE 98 04 INC $0498
PRG:05259: 11 BC    ORA $BC
PRG:0525B: 7F       .byte $7F
PRG:0525C: 84 13    STY $13
PRG:0525E: F7       .byte $F7
PRG:0525F: 98       TYA
PRG:05260: 12       .byte $12
PRG:05261: 8C 12 7F STY $7F12
PRG:05264: 11 98    ORA $98
PRG:05266: 11 8C    ORA $8C
PRG:05268: 12       .byte $12
PRG:05269: 7F       .byte $7F
PRG:0526A: 12       .byte $12
PRG:0526B: 84 13    STY $13
PRG:0526D: 98       TYA
PRG:0526E: 12       .byte $12
PRG:0526F: 8C 12 7F STY $7F12
PRG:05272: 11 7F    ORA $7F
PRG:05274: 11 98    ORA $98
PRG:05276: 12       .byte $12
PRG:05277: 8C 12 98 STY $9812
PRG:0527A: 12       .byte $12
PRG:0527B: 8C 12 7F STY $7F12
PRG:0527E: 11 7F    ORA $7F
PRG:05280: 12       .byte $12
PRG:05281: 7F       .byte $7F
PRG:05282: 12       .byte $12
PRG:05283: 7F       .byte $7F
PRG:05284: 84 13    STY $13
PRG:05286: 8C 13 98 STY $9813
PRG:05289: 11 8C    ORA $8C
PRG:0528B: 13       .byte $13
PRG:0528C: 11 06    ORA $06
PRG:0528E: 84 13    STY $13
PRG:05290: FE 8B 03 INC $038B
PRG:05293: 03       .byte $03
PRG:05294: 5A       NOP
PRG:05295: 7F       .byte $7F
PRG:05296: 42       .byte $42
PRG:05297: 7F       .byte $7F
PRG:05298: 1B       .byte $1B
PRG:05299: 1B       .byte $1B
PRG:0529A: 7F       .byte $7F
PRG:0529B: 22       .byte $22
PRG:0529C: 1A       NOP
PRG:0529D: 12       .byte $12
PRG:0529E: 0A       ASL
PRG:0529F: A1 7F    LDA $7F
PRG:052A1: F7       .byte $F7
PRG:052A2: 8B       .byte $8B
PRG:052A3: 02       .byte $02
PRG:052A4: 02       .byte $02
PRG:052A5: 7F       .byte $7F
PRG:052A6: 0A       ASL
PRG:052A7: 0A       ASL
PRG:052A8: 7F       .byte $7F
PRG:052A9: 3A       NOP
PRG:052AA: 3A       NOP
PRG:052AB: 03       .byte $03
PRG:052AC: 7F       .byte $7F
PRG:052AD: 3A       NOP
PRG:052AE: 7F       .byte $7F
PRG:052AF: 7F       .byte $7F
PRG:052B0: 7F       .byte $7F
PRG:052B1: 42       .byte $42
PRG:052B2: 23       .byte $23
PRG:052B3: A1 1B    LDA $1B
PRG:052B5: 03       .byte $03
PRG:052B6: 96 42    STX $42
PRG:052B8: 8B       .byte $8B
PRG:052B9: 1A       NOP
PRG:052BA: 42       .byte $42
PRG:052BB: 1A       NOP
PRG:052BC: 7F       .byte $7F
PRG:052BD: A1 7F    LDA $7F
PRG:052BF: 8B       .byte $8B
PRG:052C0: 2A       ROL
PRG:052C1: 22       .byte $22
PRG:052C2: 22       .byte $22
PRG:052C3: 7F       .byte $7F
PRG:052C4: 7F       .byte $7F
PRG:052C5: 0A       ASL
PRG:052C6: 0A       ASL
PRG:052C7: 7F       .byte $7F
PRG:052C8: 7F       .byte $7F
PRG:052C9: 3A       NOP
PRG:052CA: 7F       .byte $7F
PRG:052CB: 3A       NOP
PRG:052CC: 3A       NOP
PRG:052CD: 42       .byte $42
PRG:052CE: 42       .byte $42
PRG:052CF: 22       .byte $22
PRG:052D0: 7F       .byte $7F
PRG:052D1: 7F       .byte $7F
PRG:052D2: 39 41 31 AND $3141
PRG:052D5: 39 A1 7F AND $7FA1
PRG:052D8: FE 8B 02 INC $028B
PRG:052DB: 02       .byte $02
PRG:052DC: 59 7F 41 EOR $417F
PRG:052DF: 7F       .byte $7F
PRG:052E0: 03       .byte $03
PRG:052E1: 03       .byte $03
PRG:052E2: 7F       .byte $7F
PRG:052E3: 21 19    AND $19
PRG:052E5: 11 09    ORA $09
PRG:052E7: A1 7F    LDA $7F
PRG:052E9: F7       .byte $F7
PRG:052EA: 8B       .byte $8B
PRG:052EB: 01 01    ORA $01
PRG:052ED: 7F       .byte $7F
PRG:052EE: 09 09    ORA $09
PRG:052F0: 7F       .byte $7F
PRG:052F1: 39 39 22 AND $2239
PRG:052F4: 1A       NOP
PRG:052F5: 22       .byte $22
PRG:052F6: 1A       NOP
PRG:052F7: 22       .byte $22
PRG:052F8: 1A       NOP
PRG:052F9: 22       .byte $22
PRG:052FA: 42       .byte $42
PRG:052FB: A1 03    LDA $03
PRG:052FD: 42       .byte $42
PRG:052FE: 96 1A    STX $1A
PRG:05300: 8B       .byte $8B
PRG:05301: 02       .byte $02
PRG:05302: 1A       NOP
PRG:05303: 87       .byte $87
PRG:05304: 02       .byte $02
PRG:05305: 59 88 51 EOR $5188
PRG:05308: 87       .byte $87
PRG:05309: 49 41    EOR $41
PRG:0530B: 88       DEY
PRG:0530C: 39 8B 31 AND $318B
PRG:0530F: 29 21    AND $21
PRG:05311: 21 7F    AND $7F
PRG:05313: 7F       .byte $7F
PRG:05314: 09 09    ORA $09
PRG:05316: 7F       .byte $7F
PRG:05317: 7F       .byte $7F
PRG:05318: 12       .byte $12
PRG:05319: 7F       .byte $7F
PRG:0531A: 12       .byte $12
PRG:0531B: 12       .byte $12
PRG:0531C: 1A       NOP
PRG:0531D: 1A       NOP
PRG:0531E: 02       .byte $02
PRG:0531F: 7F       .byte $7F
PRG:05320: 7F       .byte $7F
PRG:05321: 39 41 31 AND $3141
PRG:05324: 39 A1 7F AND $7FA1
PRG:05327: FE 8B 02 INC $028B
PRG:0532A: 02       .byte $02
PRG:0532B: 59 7F 41 EOR $417F
PRG:0532E: 7F       .byte $7F
PRG:0532F: 42       .byte $42
PRG:05330: 42       .byte $42
PRG:05331: 7F       .byte $7F
PRG:05332: 21 19    AND $19
PRG:05334: 11 09    ORA $09
PRG:05336: A1 7F    LDA $7F
PRG:05338: F7       .byte $F7
PRG:05339: 8B       .byte $8B
PRG:0533A: 01 01    ORA $01
PRG:0533C: 7F       .byte $7F
PRG:0533D: 09 09    ORA $09
PRG:0533F: 7F       .byte $7F
PRG:05340: 39 39 02 AND $0239
PRG:05343: 7F       .byte $7F
PRG:05344: 39 7F 7F AND $7F7F
PRG:05347: 7F       .byte $7F
PRG:05348: 02       .byte $02
PRG:05349: 03       .byte $03
PRG:0534A: 42       .byte $42
PRG:0534B: 43       .byte $43
PRG:0534C: 42       .byte $42
PRG:0534D: 1A       NOP
PRG:0534E: 1B       .byte $1B
PRG:0534F: 1A       NOP
PRG:05350: 02       .byte $02
PRG:05351: 03       .byte $03
PRG:05352: 41 02    EOR $02
PRG:05354: 41 7F    EOR $7F
PRG:05356: A1 7F    LDA $7F
PRG:05358: 8B       .byte $8B
PRG:05359: 29 21    AND $21
PRG:0535B: 21 7F    AND $7F
PRG:0535D: 7F       .byte $7F
PRG:0535E: 09 09    ORA $09
PRG:05360: 7F       .byte $7F
PRG:05361: 7F       .byte $7F
PRG:05362: 59 7F 59 EOR $597F
PRG:05365: 59 02 02 EOR $0202
PRG:05368: 84 49    STY $49
PRG:0536A: 02       .byte $02
PRG:0536B: 83       .byte $83
PRG:0536C: 22       .byte $22
PRG:0536D: 84 4A    STY $4A
PRG:0536F: 03       .byte $03
PRG:05370: 83       .byte $83
PRG:05371: 23       .byte $23
PRG:05372: 84 03    STY $03
PRG:05374: 4A       LSR
PRG:05375: 83       .byte $83
PRG:05376: 22       .byte $22
PRG:05377: 8B       .byte $8B
PRG:05378: 39 41 31 AND $3141
PRG:0537B: 39 A1 7F AND $7FA1
PRG:0537E: FE 8B 13 INC $138B
PRG:05381: 7F       .byte $7F
PRG:05382: 11 7F    ORA $7F
PRG:05384: 12       .byte $12
PRG:05385: 06 12    ASL $12
PRG:05387: F7       .byte $F7
PRG:05388: 8B       .byte $8B
PRG:05389: FD 08 51 SBC $5108
PRG:0538C: 7F       .byte $7F
PRG:0538D: 41 11    EOR $11
PRG:0538F: FC FD 02 NOP $02FD
PRG:05392: 22       .byte $22
PRG:05393: 02       .byte $02
PRG:05394: FC 11 7F NOP $7F11
PRG:05397: 15 02    ORA $02
PRG:05399: 14 7F    NOP $7F
PRG:0539B: 96 21    STX $21
PRG:0539D: FE F8 40 INC $40F8
PRG:053A0: 8A       TXA
PRG:053A1: 2A       ROL
PRG:053A2: 7F       .byte $7F
PRG:053A3: 85 2A    STA $2A
PRG:053A5: 2A       ROL
PRG:053A6: 8A       TXA
PRG:053A7: 32       .byte $32
PRG:053A8: 32       .byte $32
PRG:053A9: 32       .byte $32
PRG:053AA: 3A       NOP
PRG:053AB: B2       .byte $B2
PRG:053AC: 7F       .byte $7F
PRG:053AD: F7       .byte $F7
PRG:053AE: 8A       TXA
PRG:053AF: 4A       LSR
PRG:053B0: 7F       .byte $7F
PRG:053B1: 4A       LSR
PRG:053B2: 4A       LSR
PRG:053B3: 4A       LSR
PRG:053B4: 4A       LSR
PRG:053B5: 42       .byte $42
PRG:053B6: 7F       .byte $7F
PRG:053B7: 42       .byte $42
PRG:053B8: 22       .byte $22
PRG:053B9: 7F       .byte $7F
PRG:053BA: 22       .byte $22
PRG:053BB: 3A       NOP
PRG:053BC: 7F       .byte $7F
PRG:053BD: 3A       NOP
PRG:053BE: 32       .byte $32
PRG:053BF: 7F       .byte $7F
PRG:053C0: 32       .byte $32
PRG:053C1: 2A       ROL
PRG:053C2: 3A       NOP
PRG:053C3: 2A       ROL
PRG:053C4: 12       .byte $12
PRG:053C5: 7F       .byte $7F
PRG:053C6: 49 41    EOR $41
PRG:053C8: 7F       .byte $7F
PRG:053C9: 41 41    EOR $41
PRG:053CB: 7F       .byte $7F
PRG:053CC: 41 1A    EOR $1A
PRG:053CE: 7F       .byte $7F
PRG:053CF: 1A       NOP
PRG:053D0: 1A       NOP
PRG:053D1: 7F       .byte $7F
PRG:053D2: 1A       NOP
PRG:053D3: 1A       NOP
PRG:053D4: 22       .byte $22
PRG:053D5: 1A       NOP
PRG:053D6: 22       .byte $22
PRG:053D7: 1A       NOP
PRG:053D8: 22       .byte $22
PRG:053D9: 1A       NOP
PRG:053DA: 7F       .byte $7F
PRG:053DB: 7F       .byte $7F
PRG:053DC: 22       .byte $22
PRG:053DD: 2A       ROL
PRG:053DE: 3A       NOP
PRG:053DF: FE F8 00 INC $00F8
PRG:053E2: 8A       TXA
PRG:053E3: 12       .byte $12
PRG:053E4: 7F       .byte $7F
PRG:053E5: 85 12    STA $12
PRG:053E7: 12       .byte $12
PRG:053E8: 8A       TXA
PRG:053E9: 1A       NOP
PRG:053EA: 1A       NOP
PRG:053EB: 1A       NOP
PRG:053EC: 22       .byte $22
PRG:053ED: B2       .byte $B2
PRG:053EE: 7F       .byte $7F
PRG:053EF: F7       .byte $F7
PRG:053F0: 8A       TXA
PRG:053F1: 2A       ROL
PRG:053F2: 7F       .byte $7F
PRG:053F3: 2A       ROL
PRG:053F4: 2A       ROL
PRG:053F5: 2A       ROL
PRG:053F6: 2A       ROL
PRG:053F7: 22       .byte $22
PRG:053F8: 7F       .byte $7F
PRG:053F9: 22       .byte $22
PRG:053FA: 59 7F 59 EOR $597F
PRG:053FD: 12       .byte $12
PRG:053FE: 7F       .byte $7F
PRG:053FF: 12       .byte $12
PRG:05400: 49 7F    EOR $7F
PRG:05402: 49 12    EOR $12
PRG:05404: 12       .byte $12
PRG:05405: 12       .byte $12
PRG:05406: 49 7F    EOR $7F
PRG:05408: 29 19    AND $19
PRG:0540A: 7F       .byte $7F
PRG:0540B: 19 19 7F ORA $7F19
PRG:0540E: 19 41 7F ORA $7F41
PRG:05411: 41 41    EOR $41
PRG:05413: 7F       .byte $7F
PRG:05414: 41 41    EOR $41
PRG:05416: 49 41    EOR $41
PRG:05418: 49 41    EOR $41
PRG:0541A: 49 41    EOR $41
PRG:0541C: 7F       .byte $7F
PRG:0541D: 7F       .byte $7F
PRG:0541E: 0A       ASL
PRG:0541F: 12       .byte $12
PRG:05420: 22       .byte $22
PRG:05421: FE 8A 59 INC $598A
PRG:05424: 7F       .byte $7F
PRG:05425: 85 59    STA $59
PRG:05427: 59 8A 02 EOR $028A
PRG:0542A: 02       .byte $02
PRG:0542B: 02       .byte $02
PRG:0542C: 0A       ASL
PRG:0542D: 7F       .byte $7F
PRG:0542E: 7F       .byte $7F
PRG:0542F: 49 59    EOR $59
PRG:05431: 0A       ASL
PRG:05432: F7       .byte $F7
PRG:05433: 8A       TXA
PRG:05434: 12       .byte $12
PRG:05435: 7F       .byte $7F
PRG:05436: 12       .byte $12
PRG:05437: 12       .byte $12
PRG:05438: 12       .byte $12
PRG:05439: 12       .byte $12
PRG:0543A: 0A       ASL
PRG:0543B: 7F       .byte $7F
PRG:0543C: 0A       ASL
PRG:0543D: 41 7F    EOR $7F
PRG:0543F: 85 59    STA $59
PRG:05441: 51 8A    EOR $8A
PRG:05443: 49 7F    EOR $7F
PRG:05445: 49 11    EOR $11
PRG:05447: 7F       .byte $7F
PRG:05448: 11 11    ORA $11
PRG:0544A: 7F       .byte $7F
PRG:0544B: 11 11    ORA $11
PRG:0544D: 7F       .byte $7F
PRG:0544E: 11 01    ORA $01
PRG:05450: 7F       .byte $7F
PRG:05451: 01 01    ORA $01
PRG:05453: 7F       .byte $7F
PRG:05454: 85 01    STA $01
PRG:05456: 39 8A 02 AND $028A
PRG:05459: 7F       .byte $7F
PRG:0545A: 02       .byte $02
PRG:0545B: 02       .byte $02
PRG:0545C: 7F       .byte $7F
PRG:0545D: 02       .byte $02
PRG:0545E: 02       .byte $02
PRG:0545F: 0A       ASL
PRG:05460: 02       .byte $02
PRG:05461: 0A       ASL
PRG:05462: 02       .byte $02
PRG:05463: 0A       ASL
PRG:05464: 02       .byte $02
PRG:05465: 7F       .byte $7F
PRG:05466: 7F       .byte $7F
PRG:05467: 49 59    EOR $59
PRG:05469: 0A       ASL
PRG:0546A: FE F5 02 INC $02F5
PRG:0546D: 8A       TXA
PRG:0546E: 11 7F    ORA $7F
PRG:05470: 85 12    STA $12
PRG:05472: 8A       TXA
PRG:05473: 14 02    NOP $02
PRG:05475: 13       .byte $13
PRG:05476: F7       .byte $F7
PRG:05477: FD 04 8A SBC $8A04
PRG:0547A: 11 7F    ORA $7F
PRG:0547C: 12       .byte $12
PRG:0547D: 7F       .byte $7F
PRG:0547E: 12       .byte $12
PRG:0547F: 7F       .byte $7F
PRG:05480: 14 FC    NOP $FC
PRG:05482: FE F8 00 INC $00F8
PRG:05485: 86 F6    STX $F6
PRG:05487: E6 D4    INC $D4
PRG:05489: 4B       .byte $4B
PRG:0548A: 02       .byte $02
PRG:0548B: 43       .byte $43
PRG:0548C: 02       .byte $02
PRG:0548D: 4B       .byte $4B
PRG:0548E: 02       .byte $02
PRG:0548F: 13       .byte $13
PRG:05490: 03       .byte $03
PRG:05491: F6 E6    INC $E6
PRG:05493: D4 03    NOP $03
PRG:05495: 13       .byte $13
PRG:05496: 23       .byte $23
PRG:05497: 2B       .byte $2B
PRG:05498: 3B       .byte $3B
PRG:05499: 2B       .byte $2B
PRG:0549A: 23       .byte $23
PRG:0549B: 1B       .byte $1B
PRG:0549C: FE F8 00 INC $00F8
PRG:0549F: 86 F6    STX $F6
PRG:054A1: EF       .byte $EF
PRG:054A2: D4 03    NOP $03
PRG:054A4: 7F       .byte $7F
PRG:054A5: 5A       NOP
PRG:054A6: 7F       .byte $7F
PRG:054A7: 03       .byte $03
PRG:054A8: 7F       .byte $7F
PRG:054A9: 52       .byte $52
PRG:054AA: 4A       LSR
PRG:054AB: F6 EF    INC $EF
PRG:054AD: D4 4A    NOP $4A
PRG:054AF: 52       .byte $52
PRG:054B0: 03       .byte $03
PRG:054B1: 13       .byte $13
PRG:054B2: 23       .byte $23
PRG:054B3: 13       .byte $13
PRG:054B4: 03       .byte $03
PRG:054B5: 5A       NOP
PRG:054B6: FE 86 02 INC $0286
PRG:054B9: 02       .byte $02
PRG:054BA: 7F       .byte $7F
PRG:054BB: 3A       NOP
PRG:054BC: 7F       .byte $7F
PRG:054BD: 7F       .byte $7F
PRG:054BE: 03       .byte $03
PRG:054BF: 3A       NOP
PRG:054C0: 92       .byte $92
PRG:054C1: 29 02    AND $02
PRG:054C3: 86 4A    STX $4A
PRG:054C5: 2A       ROL
PRG:054C6: 02       .byte $02
PRG:054C7: 02       .byte $02
PRG:054C8: 7F       .byte $7F
PRG:054C9: 3A       NOP
PRG:054CA: 7F       .byte $7F
PRG:054CB: 03       .byte $03
PRG:054CC: 7F       .byte $7F
PRG:054CD: 3A       NOP
PRG:054CE: 2A       ROL
PRG:054CF: 2A       ROL
PRG:054D0: 22       .byte $22
PRG:054D1: 7F       .byte $7F
PRG:054D2: 2A       ROL
PRG:054D3: 7F       .byte $7F
PRG:054D4: 12       .byte $12
PRG:054D5: 7F       .byte $7F
PRG:054D6: FE 86 FD INC $FD86
PRG:054D9: 03       .byte $03
PRG:054DA: 51 13    EOR $13
PRG:054DC: 71 13    ADC $13
PRG:054DE: FC FD 02 NOP $02FD
PRG:054E1: 72       .byte $72
PRG:054E2: 61 7F    ADC $7F
PRG:054E4: FC FE 52 NOP $52FE
PRG:054E7: 13       .byte $13
PRG:054E8: 2B       .byte $2B
PRG:054E9: 52       .byte $52
PRG:054EA: 7F       .byte $7F
PRG:054EB: 13       .byte $13
PRG:054EC: 7F       .byte $7F
PRG:054ED: 2B       .byte $2B
PRG:054EE: F3       .byte $F3
PRG:054EF: 3A       NOP
PRG:054F0: 52       .byte $52
PRG:054F1: 13       .byte $13
PRG:054F2: 3A       NOP
PRG:054F3: 7F       .byte $7F
PRG:054F4: 52       .byte $52
PRG:054F5: 7F       .byte $7F
PRG:054F6: 13       .byte $13
PRG:054F7: F3       .byte $F3
PRG:054F8: F8       SED
PRG:054F9: 00 92    BRK $92
PRG:054FB: 3A       NOP
PRG:054FC: 7F       .byte $7F
PRG:054FD: 42       .byte $42
PRG:054FE: 7F       .byte $7F
PRG:054FF: 4A       LSR
PRG:05500: 7F       .byte $7F
PRG:05501: 7F       .byte $7F
PRG:05502: 7F       .byte $7F
PRG:05503: 3A       NOP
PRG:05504: 7F       .byte $7F
PRG:05505: 42       .byte $42
PRG:05506: 4A       LSR
PRG:05507: 7F       .byte $7F
PRG:05508: 4A       LSR
PRG:05509: 42       .byte $42
PRG:0550A: 4A       LSR
PRG:0550B: 52       .byte $52
PRG:0550C: 7F       .byte $7F
PRG:0550D: 52       .byte $52
PRG:0550E: 7F       .byte $7F
PRG:0550F: 4A       LSR
PRG:05510: 7F       .byte $7F
PRG:05511: 42       .byte $42
PRG:05512: 7F       .byte $7F
PRG:05513: EC 7F 89 CPX $897F
PRG:05516: 1A       NOP
PRG:05517: 12       .byte $12
PRG:05518: 1A       NOP
PRG:05519: 12       .byte $12
PRG:0551A: FE F8 00 INC $00F8
PRG:0551D: 92       .byte $92
PRG:0551E: 22       .byte $22
PRG:0551F: 7F       .byte $7F
PRG:05520: 2A       ROL
PRG:05521: 7F       .byte $7F
PRG:05522: 32       .byte $32
PRG:05523: 7F       .byte $7F
PRG:05524: 7F       .byte $7F
PRG:05525: 7F       .byte $7F
PRG:05526: 22       .byte $22
PRG:05527: 7F       .byte $7F
PRG:05528: 2A       ROL
PRG:05529: 32       .byte $32
PRG:0552A: 7F       .byte $7F
PRG:0552B: 32       .byte $32
PRG:0552C: 2A       ROL
PRG:0552D: 32       .byte $32
PRG:0552E: 3A       NOP
PRG:0552F: 7F       .byte $7F
PRG:05530: 3A       NOP
PRG:05531: 7F       .byte $7F
PRG:05532: 32       .byte $32
PRG:05533: 7F       .byte $7F
PRG:05534: 2A       ROL
PRG:05535: 7F       .byte $7F
PRG:05536: EC 7F 89 CPX $897F
PRG:05539: 59 51 59 EOR $5951
PRG:0553C: 51 FE    EOR $FE
PRG:0553E: B6 02    LDX $02
PRG:05540: 03       .byte $03
PRG:05541: 92       .byte $92
PRG:05542: 02       .byte $02
PRG:05543: 59 B6 02 EOR $02B6
PRG:05546: A4 03    LDY $03
PRG:05548: 92       .byte $92
PRG:05549: 02       .byte $02
PRG:0554A: 59 02 1A EOR $1A02
PRG:0554D: 7F       .byte $7F
PRG:0554E: 1A       NOP
PRG:0554F: 7F       .byte $7F
PRG:05550: 12       .byte $12
PRG:05551: 7F       .byte $7F
PRG:05552: 0A       ASL
PRG:05553: 7F       .byte $7F
PRG:05554: 98       TYA
PRG:05555: 51 29    EOR $29
PRG:05557: 39 A4 41 AND $41A4
PRG:0555A: 7F       .byte $7F
PRG:0555B: FE FD 04 INC $04FD
PRG:0555E: A4 21    LDY $21
PRG:05560: 92       .byte $92
PRG:05561: 22       .byte $22
PRG:05562: FC A4 24 NOP $24A4
PRG:05565: 98       TYA
PRG:05566: 23       .byte $23
PRG:05567: 92       .byte $92
PRG:05568: 21 03    AND $03
PRG:0556A: FE 88 03 INC $0388
PRG:0556D: 7F       .byte $7F
PRG:0556E: 03       .byte $03
PRG:0556F: 0B       .byte $0B
PRG:05570: 13       .byte $13
PRG:05571: 7F       .byte $7F
PRG:05572: 84 43    STY $43
PRG:05574: 88       DEY
PRG:05575: 4B       .byte $4B
PRG:05576: 7F       .byte $7F
PRG:05577: 2B       .byte $2B
PRG:05578: 8C 7F 84 STY $847F
PRG:0557B: 02       .byte $02
PRG:0557C: 59 86 51 EOR $5186
PRG:0557F: 49 88    EOR $88
PRG:05581: 41 8A    EOR $8A
PRG:05583: 39 90 F2 AND $F290
PRG:05586: 31 FF    AND $FF
PRG:05588: 88       DEY
PRG:05589: 4A       LSR
PRG:0558A: 7F       .byte $7F
PRG:0558B: 4A       LSR
PRG:0558C: 4A       LSR
PRG:0558D: 52       .byte $52
PRG:0558E: 7F       .byte $7F
PRG:0558F: 84 1B    STY $1B
PRG:05591: 88       DEY
PRG:05592: 23       .byte $23
PRG:05593: 7F       .byte $7F
PRG:05594: 4A       LSR
PRG:05595: 8C 7F 84 STY $847F
PRG:05598: 02       .byte $02
PRG:05599: 59 86 51 EOR $5186
PRG:0559C: 49 88    EOR $88
PRG:0559E: 41 8A    EOR $8A
PRG:055A0: 39 90 F2 AND $F290
PRG:055A3: 31 FF    AND $FF
PRG:055A5: 88       DEY
PRG:055A6: 2A       ROL
PRG:055A7: 7F       .byte $7F
PRG:055A8: 2A       ROL
PRG:055A9: 32       .byte $32
PRG:055AA: 3A       NOP
PRG:055AB: 7F       .byte $7F
PRG:055AC: 01 8C    ORA $8C
PRG:055AE: 7F       .byte $7F
PRG:055AF: 88       DEY
PRG:055B0: 29 8C    AND $8C
PRG:055B2: 7F       .byte $7F
PRG:055B3: 84 02    STY $02
PRG:055B5: 59 86 51 EOR $5186
PRG:055B8: 49 88    EOR $88
PRG:055BA: 41 8A    EOR $8A
PRG:055BC: 39 90 F2 AND $F290
PRG:055BF: 31 FF    AND $FF
PRG:055C1: 88       DEY
PRG:055C2: 11 7F    ORA $7F
PRG:055C4: 13       .byte $13
PRG:055C5: 7F       .byte $7F
PRG:055C6: 11 8C    ORA $8C
PRG:055C8: 7F       .byte $7F
PRG:055C9: 88       DEY
PRG:055CA: 11 8C    ORA $8C
PRG:055CC: 7F       .byte $7F
PRG:055CD: 84 12    STY $12
PRG:055CF: 86 12    STX $12
PRG:055D1: 88       DEY
PRG:055D2: 12       .byte $12
PRG:055D3: 8A       TXA
PRG:055D4: 11 FF    ORA $FF
PRG:055D6: 87       .byte $87
PRG:055D7: 03       .byte $03
PRG:055D8: 13       .byte $13
PRG:055D9: 8E 23 85 STX $8523
PRG:055DC: 13       .byte $13
PRG:055DD: 23       .byte $23
PRG:055DE: 84 13    STY $13
PRG:055E0: 8E 2A 3A STX $3A2A
PRG:055E3: 9C       .byte $9C
PRG:055E4: 4A       LSR
PRG:055E5: 8E 4A 13 STX $134A
PRG:055E8: 9C       .byte $9C
PRG:055E9: 42       .byte $42
PRG:055EA: 8E 42 0B STX $0B42
PRG:055ED: FA       NOP
PRG:055EE: 64 B6    NOP $B6
PRG:055F0: 3A       NOP
PRG:055F1: 85 32    STA $32
PRG:055F3: 84 2A    STY $2A
PRG:055F5: EF       .byte $EF
PRG:055F6: 22       .byte $22
PRG:055F7: FF       .byte $FF
PRG:055F8: 87       .byte $87
PRG:055F9: 4A       LSR
PRG:055FA: 52       .byte $52
PRG:055FB: 8E 03 85 STX $8503
PRG:055FE: 4A       LSR
PRG:055FF: 03       .byte $03
PRG:05600: 84 4A    STY $4A
PRG:05602: 8E 12 22 STX $2212
PRG:05605: AA       TAX
PRG:05606: 2A       ROL
PRG:05607: F9 87 12 SBC $1287
PRG:0560A: 22       .byte $22
PRG:0560B: AA       TAX
PRG:0560C: 2A       ROL
PRG:0560D: 87       .byte $87
PRG:0560E: 0A       ASL
PRG:0560F: 1A       NOP
PRG:05610: FA       NOP
PRG:05611: 64 B6    NOP $B6
PRG:05613: 02       .byte $02
PRG:05614: 85 59    STA $59
PRG:05616: 84 51    STY $51
PRG:05618: EF       .byte $EF
PRG:05619: 49 FF    EOR $FF
PRG:0561B: C6 7F    DEC $7F
PRG:0561D: 8E 02 9C STX $9C02
PRG:05620: 02       .byte $02
PRG:05621: 8E 02 59 STX $5902
PRG:05624: 9C       .byte $9C
PRG:05625: 59 8E 59 EOR $598E
PRG:05628: FA       NOP
PRG:05629: 64 DB    NOP $DB
PRG:0562B: 49 EF    EOR $EF
PRG:0562D: 29 FF    AND $FF
PRG:0562F: 8B       .byte $8B
PRG:05630: 01 02    ORA $02
PRG:05632: 09 0A    ORA $0A
PRG:05634: 84 11    STY $11
PRG:05636: 49 83    EOR $83
PRG:05638: 51 84    EOR $84
PRG:0563A: 02       .byte $02
PRG:0563B: 12       .byte $12
PRG:0563C: 83       .byte $83
PRG:0563D: 22       .byte $22
PRG:0563E: 84 2A    STY $2A
PRG:05640: 3A       NOP
PRG:05641: 83       .byte $83
PRG:05642: 4A       LSR
PRG:05643: 84 52    STY $52
PRG:05645: 03       .byte $03
PRG:05646: 83       .byte $83
PRG:05647: 13       .byte $13
PRG:05648: 8B       .byte $8B
PRG:05649: 23       .byte $23
PRG:0564A: 22       .byte $22
PRG:0564B: F6 03    INC $03
PRG:0564D: CD 84 3A CMP $3A84
PRG:05650: 4A       LSR
PRG:05651: 83       .byte $83
PRG:05652: 52       .byte $52
PRG:05653: 84 5A    STY $5A
PRG:05655: 03       .byte $03
PRG:05656: 83       .byte $83
PRG:05657: 0B       .byte $0B
PRG:05658: 8B       .byte $8B
PRG:05659: 13       .byte $13
PRG:0565A: 03       .byte $03
PRG:0565B: 22       .byte $22
PRG:0565C: 3A       NOP
PRG:0565D: 5A       NOP
PRG:0565E: 13       .byte $13
PRG:0565F: 4A       LSR
PRG:05660: 86 42    STX $42
PRG:05662: 85 4A    STA $4A
PRG:05664: 96 03    STX $03
PRG:05666: 8B       .byte $8B
PRG:05667: 52       .byte $52
PRG:05668: 03       .byte $03
PRG:05669: 96 13    STX $13
PRG:0566B: 2B       .byte $2B
PRG:0566C: AC 2B 8B LDY $8B2B
PRG:0566F: 4B       .byte $4B
PRG:05670: FF       .byte $FF
PRG:05671: 8B       .byte $8B
PRG:05672: 01 02    ORA $02
PRG:05674: 09 0A    ORA $0A
PRG:05676: 11 12    ORA $12
PRG:05678: 84 12    STY $12
PRG:0567A: 22       .byte $22
PRG:0567B: 83       .byte $83
PRG:0567C: 2A       ROL
PRG:0567D: 84 3A    STY $3A
PRG:0567F: 4A       LSR
PRG:05680: 83       .byte $83
PRG:05681: 52       .byte $52
PRG:05682: 8B       .byte $8B
PRG:05683: 4A       LSR
PRG:05684: 49 F6    EOR $F6
PRG:05686: 32       .byte $32
PRG:05687: CD 84 1A CMP $1A84
PRG:0568A: 22       .byte $22
PRG:0568B: 83       .byte $83
PRG:0568C: 2A       ROL
PRG:0568D: 84 32    STY $32
PRG:0568F: 3A       NOP
PRG:05690: 83       .byte $83
PRG:05691: 42       .byte $42
PRG:05692: 8B       .byte $8B
PRG:05693: 4A       LSR
PRG:05694: 22       .byte $22
PRG:05695: 49 02    EOR $02
PRG:05697: 32       .byte $32
PRG:05698: 5A       NOP
PRG:05699: 32       .byte $32
PRG:0569A: 86 2A    STX $2A
PRG:0569C: 85 32    STA $32
PRG:0569E: 96 4A    STX $4A
PRG:056A0: 8B       .byte $8B
PRG:056A1: 3A       NOP
PRG:056A2: 4A       LSR
PRG:056A3: 84 52    STY $52
PRG:056A5: 4A       LSR
PRG:056A6: 83       .byte $83
PRG:056A7: 42       .byte $42
PRG:056A8: 84 3A    STY $3A
PRG:056AA: 42       .byte $42
PRG:056AB: 83       .byte $83
PRG:056AC: 4A       LSR
PRG:056AD: 84 52    STY $52
PRG:056AF: 4A       LSR
PRG:056B0: 83       .byte $83
PRG:056B1: 42       .byte $42
PRG:056B2: 84 3A    STY $3A
PRG:056B4: 4A       LSR
PRG:056B5: 83       .byte $83
PRG:056B6: 52       .byte $52
PRG:056B7: 8B       .byte $8B
PRG:056B8: 4A       LSR
PRG:056B9: 86 52    STX $52
PRG:056BB: 85 03    STA $03
PRG:056BD: 86 13    STX $13
PRG:056BF: 85 23    STA $23
PRG:056C1: 86 2B    STX $2B
PRG:056C3: 85 3B    STA $3B
PRG:056C5: 8B       .byte $8B
PRG:056C6: 03       .byte $03
PRG:056C7: FF       .byte $FF
PRG:056C8: 8B       .byte $8B
PRG:056C9: 01 02    ORA $02
PRG:056CB: 09 0A    ORA $0A
PRG:056CD: 11 12    ORA $12
PRG:056CF: 21 22    AND $22
PRG:056D1: F6 77    INC $77
PRG:056D3: CD 21 22 CMP $2221
PRG:056D6: 19 1A 11 ORA $111A
PRG:056D9: 12       .byte $12
PRG:056DA: 11 F9    ORA $F9
PRG:056DC: 86 0A    STX $0A
PRG:056DE: 85 12    STA $12
PRG:056E0: 84 01    STY $01
PRG:056E2: 02       .byte $02
PRG:056E3: 83       .byte $83
PRG:056E4: 01 84    ORA $84
PRG:056E6: 02       .byte $02
PRG:056E7: 01 83    ORA $83
PRG:056E9: 02       .byte $02
PRG:056EA: 84 01    STY $01
PRG:056EC: 02       .byte $02
PRG:056ED: 83       .byte $83
PRG:056EE: 01 84    ORA $84
PRG:056F0: 02       .byte $02
PRG:056F1: 01 83    ORA $83
PRG:056F3: 02       .byte $02
PRG:056F4: 84 01    STY $01
PRG:056F6: 02       .byte $02
PRG:056F7: 83       .byte $83
PRG:056F8: 01 84    ORA $84
PRG:056FA: 02       .byte $02
PRG:056FB: 01 83    ORA $83
PRG:056FD: 02       .byte $02
PRG:056FE: 84 01    STY $01
PRG:05700: 02       .byte $02
PRG:05701: 83       .byte $83
PRG:05702: 01 84    ORA $84
PRG:05704: 02       .byte $02
PRG:05705: 01 83    ORA $83
PRG:05707: 02       .byte $02
PRG:05708: 8B       .byte $8B
PRG:05709: 29 86    AND $86
PRG:0570B: 39 85 49 AND $4985
PRG:0570E: 86 51    STX $51
PRG:05710: 85 02    STA $02
PRG:05712: 86 12    STX $12
PRG:05714: 85 22    STA $22
PRG:05716: 8B       .byte $8B
PRG:05717: 29 FF    AND $FF
PRG:05719: F5 02    SBC $02
PRG:0571B: FD 08 83 SBC $8308
PRG:0571E: 13       .byte $13
PRG:0571F: 82       .byte $82
PRG:05720: 11 FC    ORA $FC
PRG:05722: 8B       .byte $8B
PRG:05723: 7F       .byte $7F
PRG:05724: 96 1F    STX $1F
PRG:05726: 86 11    STX $11
PRG:05728: 85 11    STA $11
PRG:0572A: 8B       .byte $8B
PRG:0572B: 7F       .byte $7F
PRG:0572C: 96 15    STX $15
PRG:0572E: 8B       .byte $8B
PRG:0572F: 12       .byte $12
PRG:05730: 02       .byte $02
PRG:05731: 84 12    STY $12
PRG:05733: 83       .byte $83
PRG:05734: 11 8B    ORA $8B
PRG:05736: 12       .byte $12
PRG:05737: 7F       .byte $7F
PRG:05738: 96 12    STX $12
PRG:0573A: 84 12    STY $12
PRG:0573C: 83       .byte $83
PRG:0573D: 11 8B    ORA $8B
PRG:0573F: 11 96    ORA $96
PRG:05741: 13       .byte $13
PRG:05742: 86 11    STX $11
PRG:05744: 85 11    STA $11
PRG:05746: FD 0C 83 SBC $830C
PRG:05749: 13       .byte $13
PRG:0574A: 82       .byte $82
PRG:0574B: 11 FC    ORA $FC
PRG:0574D: 8B       .byte $8B
PRG:0574E: 11 FF    ORA $FF
PRG:05750: F8       SED
PRG:05751: 1F       .byte $1F
PRG:05752: F4 06    NOP $06
PRG:05754: F6 22    INC $22
PRG:05756: D8       CLD
PRG:05757: F6 0B    INC $0B
PRG:05759: D8       CLD
PRG:0575A: F4 01    NOP $01
PRG:0575C: 91 1B    STA $1B
PRG:0575E: 83       .byte $83
PRG:0575F: 23       .byte $23
PRG:05760: 2B       .byte $2B
PRG:05761: 33       .byte $33
PRG:05762: 83       .byte $83
PRG:05763: 3B       .byte $3B
PRG:05764: 43       .byte $43
PRG:05765: 4B       .byte $4B
PRG:05766: 84 53    STY $53
PRG:05768: 83       .byte $83
PRG:05769: 5B       .byte $5B
PRG:0576A: 04 0C    NOP $0C
PRG:0576C: 84 14    STY $14
PRG:0576E: F9 F4 04 SBC $04F4
PRG:05771: F6 22    INC $22
PRG:05773: D8       CLD
PRG:05774: F4 01    NOP $01
PRG:05776: F6 0B    INC $0B
PRG:05778: D8       CLD
PRG:05779: F9 84 3B SBC $3B84
PRG:0577C: 3B       .byte $3B
PRG:0577D: 85 23    STA $23
PRG:0577F: 84 23    STY $23
PRG:05781: 0B       .byte $0B
PRG:05782: 85 0B    STA $0B
PRG:05784: 84 52    STY $52
PRG:05786: 52       .byte $52
PRG:05787: 85 3A    STA $3A
PRG:05789: 84 3A    STY $3A
PRG:0578B: 22       .byte $22
PRG:0578C: 85 22    STA $22
PRG:0578E: FE F8 1F INC $1FF8
PRG:05791: F4 03    NOP $03
PRG:05793: F6 22    INC $22
PRG:05795: D8       CLD
PRG:05796: F4 09    NOP $09
PRG:05798: F6 53    INC $53
PRG:0579A: D8       CLD
PRG:0579B: F4 01    NOP $01
PRG:0579D: 1B       .byte $1B
PRG:0579E: 13       .byte $13
PRG:0579F: 85 0B    STA $0B
PRG:057A1: 91 03    STA $03
PRG:057A3: 83       .byte $83
PRG:057A4: 0B       .byte $0B
PRG:057A5: 13       .byte $13
PRG:057A6: 1B       .byte $1B
PRG:057A7: 83       .byte $83
PRG:057A8: 23       .byte $23
PRG:057A9: 2B       .byte $2B
PRG:057AA: 33       .byte $33
PRG:057AB: 84 3B    STY $3B
PRG:057AD: F9 F6 22 SBC $22F6
PRG:057B0: D8       CLD
PRG:057B1: F6 53    INC $53
PRG:057B3: D8       CLD
PRG:057B4: F9 23 23 SBC $2323
PRG:057B7: 85 0B    STA $0B
PRG:057B9: 84 0B    STY $0B
PRG:057BB: 52       .byte $52
PRG:057BC: 85 52    STA $52
PRG:057BE: 84 3A    STY $3A
PRG:057C0: 3A       NOP
PRG:057C1: 85 22    STA $22
PRG:057C3: 84 22    STY $22
PRG:057C5: 0A       ASL
PRG:057C6: 85 0A    STA $0A
PRG:057C8: FE F4 03 INC $03F4
PRG:057CB: F6 67    INC $67
PRG:057CD: D8       CLD
PRG:057CE: F4 01    NOP $01
PRG:057D0: 0A       ASL
PRG:057D1: 12       .byte $12
PRG:057D2: 22       .byte $22
PRG:057D3: 84 2A    STY $2A
PRG:057D5: 9A       TXS
PRG:057D6: 32       .byte $32
PRG:057D7: 32       .byte $32
PRG:057D8: 9E       .byte $9E
PRG:057D9: 2A       ROL
PRG:057DA: 83       .byte $83
PRG:057DB: 22       .byte $22
PRG:057DC: 1A       NOP
PRG:057DD: 12       .byte $12
PRG:057DE: 83       .byte $83
PRG:057DF: 0A       ASL
PRG:057E0: 02       .byte $02
PRG:057E1: 59 84 51 EOR $5184
PRG:057E4: F9 F6 67 SBC $67F6
PRG:057E7: D8       CLD
PRG:057E8: 12       .byte $12
PRG:057E9: 0A       ASL
PRG:057EA: 02       .byte $02
PRG:057EB: 84 59    STY $59
PRG:057ED: 97       .byte $97
PRG:057EE: 51 94    EOR $94
PRG:057F0: 51 F9    EOR $F9
PRG:057F2: 83       .byte $83
PRG:057F3: 22       .byte $22
PRG:057F4: 3A       NOP
PRG:057F5: 52       .byte $52
PRG:057F6: 84 0B    STY $0B
PRG:057F8: 0B       .byte $0B
PRG:057F9: 85 52    STA $52
PRG:057FB: 84 52    STY $52
PRG:057FD: 3A       NOP
PRG:057FE: 85 3A    STA $3A
PRG:05800: 84 22    STY $22
PRG:05802: 22       .byte $22
PRG:05803: 85 0A    STA $0A
PRG:05805: 84 0A    STY $0A
PRG:05807: 51 85    EOR $85
PRG:05809: 51 FE    EOR $FE
PRG:0580B: FA       NOP
PRG:0580C: FF       .byte $FF
PRG:0580D: 84 52    STY $52
PRG:0580F: 5A       NOP
PRG:05810: 85 03    STA $03
PRG:05812: 84 0B    STY $0B
PRG:05814: 13       .byte $13
PRG:05815: 85 1B    STA $1B
PRG:05817: 84 23    STY $23
PRG:05819: 1B       .byte $1B
PRG:0581A: 85 13    STA $13
PRG:0581C: 84 0B    STY $0B
PRG:0581E: 03       .byte $03
PRG:0581F: 85 5A    STA $5A
PRG:05821: F3       .byte $F3
PRG:05822: 83       .byte $83
PRG:05823: 51 52    EOR $52
PRG:05825: 39 84 52 AND $5284
PRG:05828: 83       .byte $83
PRG:05829: 21 52    AND $52
PRG:0582B: 39 84 52 AND $5284
PRG:0582E: 83       .byte $83
PRG:0582F: 0A       ASL
PRG:05830: 0B       .byte $0B
PRG:05831: 51 84    EOR $84
PRG:05833: 0B       .byte $0B
PRG:05834: 83       .byte $83
PRG:05835: 39 0B 51 AND $510B
PRG:05838: 84 0B    STY $0B
PRG:0583A: 83       .byte $83
PRG:0583B: 22       .byte $22
PRG:0583C: 23       .byte $23
PRG:0583D: 0A       ASL
PRG:0583E: 84 23    STY $23
PRG:05840: 83       .byte $83
PRG:05841: 51 23    EOR $23
PRG:05843: 0A       ASL
PRG:05844: 84 23    STY $23
PRG:05846: 83       .byte $83
PRG:05847: 3A       NOP
PRG:05848: 3B       .byte $3B
PRG:05849: 22       .byte $22
PRG:0584A: 84 3B    STY $3B
PRG:0584C: 83       .byte $83
PRG:0584D: 0A       ASL
PRG:0584E: 3B       .byte $3B
PRG:0584F: 22       .byte $22
PRG:05850: 84 3B    STY $3B
PRG:05852: F3       .byte $F3
PRG:05853: FA       NOP
PRG:05854: FF       .byte $FF
PRG:05855: 91 22    STA $22
PRG:05857: 84 2A    STY $2A
PRG:05859: 85 32    STA $32
PRG:0585B: 84 3A    STY $3A
PRG:0585D: 42       .byte $42
PRG:0585E: 85 4A    STA $4A
PRG:05860: 84 52    STY $52
PRG:05862: 4A       LSR
PRG:05863: 85 42    STA $42
PRG:05865: 84 F3    STY $F3
PRG:05867: 8D 21 21 STA $2121
PRG:0586A: 39 39 51 AND $5139
PRG:0586D: 51 FA    EOR $FA
PRG:0586F: FF       .byte $FF
PRG:05870: 0A       ASL
PRG:05871: 83       .byte $83
PRG:05872: F3       .byte $F3
PRG:05873: F6 CE    INC $CE
PRG:05875: D8       CLD
PRG:05876: F4 03    NOP $03
PRG:05878: F6 CE    INC $CE
PRG:0587A: D8       CLD
PRG:0587B: F4 00    NOP $00
PRG:0587D: A4 3B    LDY $3B
PRG:0587F: 86 3B    STX $3B
PRG:05881: 3B       .byte $3B
PRG:05882: 88       DEY
PRG:05883: 3A       NOP
PRG:05884: 5A       NOP
PRG:05885: 13       .byte $13
PRG:05886: 3B       .byte $3B
PRG:05887: 7F       .byte $7F
PRG:05888: 13       .byte $13
PRG:05889: E0 4B    CPX $4B
PRG:0588B: FF       .byte $FF
PRG:0588C: F6 E9    INC $E9
PRG:0588E: D8       CLD
PRG:0588F: F4 03    NOP $03
PRG:05891: F6 E9    INC $E9
PRG:05893: D8       CLD
PRG:05894: F4 00    NOP $00
PRG:05896: A4 13    LDY $13
PRG:05898: 86 13    STX $13
PRG:0589A: 13       .byte $13
PRG:0589B: 88       DEY
PRG:0589C: 12       .byte $12
PRG:0589D: 3A       NOP
PRG:0589E: 5A       NOP
PRG:0589F: 13       .byte $13
PRG:058A0: 7F       .byte $7F
PRG:058A1: 5A       NOP
PRG:058A2: E0 23    CPX $23
PRG:058A4: FF       .byte $FF
PRG:058A5: 83       .byte $83
PRG:058A6: FD 10 11 SBC $1110
PRG:058A9: 12       .byte $12
PRG:058AA: FC FD 10 NOP $10FD
PRG:058AD: 29 2A    AND $2A
PRG:058AF: FC A4 5A NOP $5AA4
PRG:058B2: 86 5A    STX $5A
PRG:058B4: 5A       NOP
PRG:058B5: 88       DEY
PRG:058B6: 59 12 3A EOR $3A12
PRG:058B9: 5A       NOP
PRG:058BA: 7F       .byte $7F
PRG:058BB: 3A       NOP
PRG:058BC: E0 0B    CPX $0B
PRG:058BE: FF       .byte $FF
PRG:058BF: E0 02    CPX $02
PRG:058C1: 83       .byte $83
PRG:058C2: 1A       NOP
PRG:058C3: 86 7F    STX $7F
PRG:058C5: 12       .byte $12
PRG:058C6: 88       DEY
PRG:058C7: 14 7F    NOP $7F
PRG:058C9: 11 83    ORA $83
PRG:058CB: 1C 1C FF NOP $FF1C
PRG:058CE: 86 13    STX $13
PRG:058D0: 8C 4A 86 STY $864A
PRG:058D3: 4A       LSR
PRG:058D4: 8C 4A 32 STY $324A
PRG:058D7: FA       NOP
PRG:058D8: 20 90 4A JSR $4A90
PRG:058DB: 84 F9    STY $F9
PRG:058DD: 5A       NOP
PRG:058DE: 0B       .byte $0B
PRG:058DF: 83       .byte $83
PRG:058E0: 13       .byte $13
PRG:058E1: 23       .byte $23
PRG:058E2: 13       .byte $13
PRG:058E3: 23       .byte $23
PRG:058E4: 13       .byte $13
PRG:058E5: 23       .byte $23
PRG:058E6: 13       .byte $13
PRG:058E7: 23       .byte $23
PRG:058E8: F3       .byte $F3
PRG:058E9: 86 32    STX $32
PRG:058EB: 8C 12 86 STY $8612
PRG:058EE: 12       .byte $12
PRG:058EF: 8C 12 49 STY $4912
PRG:058F2: FA       NOP
PRG:058F3: 20 90 12 JSR $1290
PRG:058F6: 84 F9    STY $F9
PRG:058F8: 22       .byte $22
PRG:058F9: 2A       ROL
PRG:058FA: 83       .byte $83
PRG:058FB: 32       .byte $32
PRG:058FC: 3A       NOP
PRG:058FD: 32       .byte $32
PRG:058FE: 3A       NOP
PRG:058FF: 32       .byte $32
PRG:05900: 3A       NOP
PRG:05901: 32       .byte $32
PRG:05902: 3A       NOP
PRG:05903: F3       .byte $F3
PRG:05904: 87       .byte $87
PRG:05905: 03       .byte $03
PRG:05906: 8E 2B 87 STX $872B
PRG:05909: 2B       .byte $2B
PRG:0590A: 8E 2B 03 STX $032B
PRG:0590D: 9C       .byte $9C
PRG:0590E: 1B       .byte $1B
PRG:0590F: 53       .byte $53
PRG:05910: 87       .byte $87
PRG:05911: 4B       .byte $4B
PRG:05912: 7F       .byte $7F
PRG:05913: 2B       .byte $2B
PRG:05914: 4B       .byte $4B
PRG:05915: D4 F2    NOP $F2
PRG:05917: 04 FF    NOP $FF
PRG:05919: 87       .byte $87
PRG:0591A: 02       .byte $02
PRG:0591B: 8E 4A 87 STX $874A
PRG:0591E: 4A       LSR
PRG:0591F: 8E 4A 02 STX $024A
PRG:05922: 9C       .byte $9C
PRG:05923: 52       .byte $52
PRG:05924: 3B       .byte $3B
PRG:05925: 87       .byte $87
PRG:05926: 03       .byte $03
PRG:05927: 7F       .byte $7F
PRG:05928: 4A       LSR
PRG:05929: 03       .byte $03
PRG:0592A: D4 4B    NOP $4B
PRG:0592C: F2       .byte $F2
PRG:0592D: FF       .byte $FF
PRG:0592E: 87       .byte $87
PRG:0592F: 2B       .byte $2B
PRG:05930: 03       .byte $03
PRG:05931: 2B       .byte $2B
PRG:05932: 4B       .byte $4B
PRG:05933: 2B       .byte $2B
PRG:05934: 03       .byte $03
PRG:05935: 2B       .byte $2B
PRG:05936: 4B       .byte $4B
PRG:05937: 1B       .byte $1B
PRG:05938: 52       .byte $52
PRG:05939: 1B       .byte $1B
PRG:0593A: 3B       .byte $3B
PRG:0593B: 53       .byte $53
PRG:0593C: 3B       .byte $3B
PRG:0593D: 53       .byte $53
PRG:0593E: 1C 85 2A NOP $2A85
PRG:05941: 4A       LSR
PRG:05942: 84 03    STY $03
PRG:05944: 87       .byte $87
PRG:05945: 2B       .byte $2B
PRG:05946: 4B       .byte $4B
PRG:05947: D4 F2    NOP $F2
PRG:05949: 2A       ROL
PRG:0594A: FF       .byte $FF
PRG:0594B: 00 03    BRK $03
PRG:0594D: 05 02    ORA $02
PRG:0594F: 04 06    NOP $06
PRG:05951: 07       .byte $07
PRG:05952: 02       .byte $02
PRG:05953: 08       PHP
PRG:05954: 01 03    ORA $03
PRG:05956: 02       .byte $02
PRG:05957: 00 0A    BRK $0A
PRG:05959: 09 02    ORA $02
PRG:0595B: 04 07    NOP $07
PRG:0595D: 08       PHP
PRG:0595E: 02       .byte $02
PRG:0595F: 03       .byte $03
PRG:05960: 05 0A    ORA $0A
PRG:05962: 02       .byte $02
PRG:05963: 09 04    ORA $04
PRG:05965: 07       .byte $07
PRG:05966: 02       .byte $02
PRG:05967: 0A       ASL
PRG:05968: 03       .byte $03
PRG:05969: 08       PHP
PRG:0596A: 02       .byte $02
PRG:0596B: 0B       .byte $0B
PRG:0596C: 00 00    BRK $00
PRG:0596E: 05 59    ORA $59
PRG:05970: 59 22 27 EOR $2722
PRG:05973: 22       .byte $22
PRG:05974: 23       .byte $23
PRG:05975: 24 18    BIT $18
PRG:05977: 00 37    BRK $37
PRG:05979: E2       .byte $E2
PRG:0597A: 6A       ROR
PRG:0597B: E2       .byte $E2
PRG:0597C: E1 E2    SBC $E2
PRG:0597E: A0 E2    LDY $E2
PRG:05980: 53       .byte $53
PRG:05981: E3       .byte $E3
PRG:05982: 93       .byte $93
PRG:05983: E7       .byte $E7
PRG:05984: FB       .byte $FB
PRG:05985: EB       .byte $EB
PRG:05986: DA       NOP
PRG:05987: EC 2E EC CPX $EC2E
PRG:0598A: 94 EC    STY $EC
PRG:0598C: 1C ED DC NOP $DCED
PRG:0598F: F0 D7    BEQ $D7
PRG:05991: E7       .byte $E7
PRG:05992: FC E8 9C NOP $9CE8
PRG:05995: E8       INX
PRG:05996: 5B       .byte $5B
PRG:05997: E8       INX
PRG:05998: 42       .byte $42
PRG:05999: E9 D2    SBC $D2
PRG:0599B: EB       .byte $EB
PRG:0599C: F1 D9    SBC $D9
PRG:0599E: B1 DA    LDA $DA
PRG:059A0: 71 DB    ADC $DB
PRG:059A2: 37       .byte $37
PRG:059A3: DC F7 DC NOP $DCF7
PRG:059A6: 77       .byte $77
PRG:059A7: DE 37 DF DEC $DF37
PRG:059AA: F7       .byte $F7
PRG:059AB: DF       .byte $DF
PRG:059AC: B7       .byte $B7
PRG:059AD: E0 77    CPX $77
PRG:059AF: E1 B7    SBC $B7
PRG:059B1: DD 2B DC CMP $DC2B
PRG:059B4: CC D9 D0 CPY $D0D9
PRG:059B7: D9 CC D9 CMP $D9CC
PRG:059BA: D4 D9    NOP $D9
PRG:059BC: D5 D9    CMP $D9
PRG:059BE: D9 D9 DD CMP $DDD9
PRG:059C1: D9 E1 D9 CMP $D9E1
PRG:059C4: E5 D9    SBC $D9
PRG:059C6: E9 D9    SBC $D9
PRG:059C8: ED D9 D0 SBC $D0D9
PRG:059CB: D9 69 69 CMP $6969
PRG:059CE: 69 69    ADC $69
PRG:059D0: 5B       .byte $5B
PRG:059D1: 77       .byte $77
PRG:059D2: 77       .byte $77
PRG:059D3: 3F       .byte $3F
PRG:059D4: 40       RTI
PRG:059D5: 48       PHA
PRG:059D6: 48       PHA
PRG:059D7: 48       PHA
PRG:059D8: 48       PHA
PRG:059D9: 3E 3E 5A ROL $5A3E
PRG:059DC: 3E 4C 4C ROL $4C4C
PRG:059DF: 64 6C    NOP $6C
PRG:059E1: 4C 4C 68 JMP $684C
PRG:059E4: A4 68    LDY $68
PRG:059E6: 68       PLA
PRG:059E7: 84 64    STY $64
PRG:059E9: 4C 48 4C JMP $4C48
PRG:059EC: 48       PHA
PRG:059ED: 68       PLA
PRG:059EE: 64 64    NOP $64
PRG:059F0: 6C 00 00 JMP $0000
PRG:059F3: 00 00    BRK $00
PRG:059F5: 00 00    BRK $00
PRG:059F7: 00 00    BRK $00
PRG:059F9: 00 00    BRK $00
PRG:059FB: 00 00    BRK $00
PRG:059FD: 00 00    BRK $00
PRG:059FF: 00 00    BRK $00
PRG:05A01: 00 00    BRK $00
PRG:05A03: 00 00    BRK $00
PRG:05A05: 00 00    BRK $00
PRG:05A07: 00 00    BRK $00
PRG:05A09: 00 00    BRK $00
PRG:05A0B: 00 00    BRK $00
PRG:05A0D: 00 00    BRK $00
PRG:05A0F: 00 00    BRK $00
PRG:05A11: 00 00    BRK $00
PRG:05A13: 00 00    BRK $00
PRG:05A15: 00 00    BRK $00
PRG:05A17: 00 00    BRK $00
PRG:05A19: 00 00    BRK $00
PRG:05A1B: 00 00    BRK $00
PRG:05A1D: 00 00    BRK $00
PRG:05A1F: 00 00    BRK $00
PRG:05A21: 00 00    BRK $00
PRG:05A23: 00 00    BRK $00
PRG:05A25: 00 00    BRK $00
PRG:05A27: 00 00    BRK $00
PRG:05A29: 00 00    BRK $00
PRG:05A2B: 00 00    BRK $00
PRG:05A2D: 00 00    BRK $00
PRG:05A2F: 00 00    BRK $00
PRG:05A31: 00 00    BRK $00
PRG:05A33: 00 00    BRK $00
PRG:05A35: 00 00    BRK $00
PRG:05A37: 00 00    BRK $00
PRG:05A39: 00 00    BRK $00
PRG:05A3B: 00 00    BRK $00
PRG:05A3D: 00 00    BRK $00
PRG:05A3F: 00 00    BRK $00
PRG:05A41: 00 00    BRK $00
PRG:05A43: 00 00    BRK $00
PRG:05A45: 00 00    BRK $00
PRG:05A47: 00 00    BRK $00
PRG:05A49: 00 00    BRK $00
PRG:05A4B: 04 00    NOP $00
PRG:05A4D: 00 08    BRK $08
PRG:05A4F: 00 00    BRK $00
PRG:05A51: 08       PHP
PRG:05A52: 00 00    BRK $00
PRG:05A54: 08       PHP
PRG:05A55: 00 00    BRK $00
PRG:05A57: 0C 00 00 NOP $0000
PRG:05A5A: 10 00    BPL $00
PRG:05A5C: 00 0C    BRK $0C
PRG:05A5E: 00 00    BRK $00
PRG:05A60: 14 00    NOP $00
PRG:05A62: 00 18    BRK $18
PRG:05A64: 20 02 19 JSR $1902
PRG:05A67: 24 02    BIT $02
PRG:05A69: 19 24 02 ORA $0224
PRG:05A6C: 19 24 02 ORA $0224
PRG:05A6F: 19 24 02 ORA $0224
PRG:05A72: 19 24 02 ORA $0224
PRG:05A75: 19 24 02 ORA $0224
PRG:05A78: 09 04    ORA $04
PRG:05A7A: 00 08    BRK $08
PRG:05A7C: 00 00    BRK $00
PRG:05A7E: 08       PHP
PRG:05A7F: 00 00    BRK $00
PRG:05A81: 08       PHP
PRG:05A82: 00 00    BRK $00
PRG:05A84: 08       PHP
PRG:05A85: 00 00    BRK $00
PRG:05A87: 1C 00 07 NOP $0700
PRG:05A8A: 08       PHP
PRG:05A8B: 00 00    BRK $00
PRG:05A8D: 08       PHP
PRG:05A8E: 00 00    BRK $00
PRG:05A90: 20 00 0B JSR $0B00
PRG:05A93: 08       PHP
PRG:05A94: 00 00    BRK $00
PRG:05A96: 08       PHP
PRG:05A97: 00 00    BRK $00
PRG:05A99: 24 00    BIT $00
PRG:05A9B: 09 2C    ORA $2C
PRG:05A9D: 00 0A    BRK $0A
PRG:05A9F: 08       PHP
PRG:05AA0: 00 00    BRK $00
PRG:05AA2: 24 00    BIT $00
PRG:05AA4: 09 28    ORA $28
PRG:05AA6: 00 01    BRK $01
PRG:05AA8: 28       PLP
PRG:05AA9: 00 01    BRK $01
PRG:05AAB: 2C 00 0A BIT $0A00
PRG:05AAE: 08       PHP
PRG:05AAF: 00 00    BRK $00
PRG:05AB1: 08       PHP
PRG:05AB2: 00 00    BRK $00
PRG:05AB4: 08       PHP
PRG:05AB5: 00 00    BRK $00
PRG:05AB7: 18       CLC
PRG:05AB8: 20 02 19 JSR $1902
PRG:05ABB: 24 02    BIT $02
PRG:05ABD: 09 04    ORA $04
PRG:05ABF: 00 08    BRK $08
PRG:05AC1: 00 00    BRK $00
PRG:05AC3: 18       CLC
PRG:05AC4: 20 02 09 JSR $0902
PRG:05AC7: 04 00    NOP $00
PRG:05AC9: 18       CLC
PRG:05ACA: 20 02 19 JSR $1902
PRG:05ACD: 24 02    BIT $02
PRG:05ACF: 19 24 02 ORA $0224
PRG:05AD2: 09 04    ORA $04
PRG:05AD4: 00 30    BRK $30
PRG:05AD6: 40       RTI
PRG:05AD7: 03       .byte $03
PRG:05AD8: 0A       ASL
PRG:05AD9: 08       PHP
PRG:05ADA: 00 18    BRK $18
PRG:05ADC: 20 02 19 JSR $1902
PRG:05ADF: 24 02    BIT $02
PRG:05AE1: 19 24 02 ORA $0224
PRG:05AE4: 19 24 02 ORA $0224
PRG:05AE7: 19 24 02 ORA $0224
PRG:05AEA: 19 24 02 ORA $0224
PRG:05AED: 19 24 02 ORA $0224
PRG:05AF0: 19 24 02 ORA $0224
PRG:05AF3: 30 44    BMI $44
PRG:05AF5: 03       .byte $03
PRG:05AF6: 32       .byte $32
PRG:05AF7: 48       PHA
PRG:05AF8: 03       .byte $03
PRG:05AF9: 32       .byte $32
PRG:05AFA: 48       PHA
PRG:05AFB: 03       .byte $03
PRG:05AFC: 32       .byte $32
PRG:05AFD: 48       PHA
PRG:05AFE: 03       .byte $03
PRG:05AFF: 18       CLC
PRG:05B00: 28       PLP
PRG:05B01: 02       .byte $02
PRG:05B02: 19 24 02 ORA $0224
PRG:05B05: 19 24 02 ORA $0224
PRG:05B08: 19 24 02 ORA $0224
PRG:05B0B: 19 24 02 ORA $0224
PRG:05B0E: 09 04    ORA $04
PRG:05B10: 00 08    BRK $08
PRG:05B12: 00 00    BRK $00
PRG:05B14: 08       PHP
PRG:05B15: 00 00    BRK $00
PRG:05B17: 30 40    BMI $40
PRG:05B19: 03       .byte $03
PRG:05B1A: 32       .byte $32
PRG:05B1B: 48       PHA
PRG:05B1C: 03       .byte $03
PRG:05B1D: 1A       NOP
PRG:05B1E: 28       PLP
PRG:05B1F: 02       .byte $02
PRG:05B20: 19 24 02 ORA $0224
PRG:05B23: 30 44    BMI $44
PRG:05B25: 03       .byte $03
PRG:05B26: 32       .byte $32
PRG:05B27: 48       PHA
PRG:05B28: 03       .byte $03
PRG:05B29: 08       PHP
PRG:05B2A: 08       PHP
PRG:05B2B: 00 08    BRK $08
PRG:05B2D: 00 00    BRK $00
PRG:05B2F: 30 40    BMI $40
PRG:05B31: 03       .byte $03
PRG:05B32: 32       .byte $32
PRG:05B33: 48       PHA
PRG:05B34: 03       .byte $03
PRG:05B35: 32       .byte $32
PRG:05B36: 48       PHA
PRG:05B37: 03       .byte $03
PRG:05B38: 32       .byte $32
PRG:05B39: 48       PHA
PRG:05B3A: 03       .byte $03
PRG:05B3B: 32       .byte $32
PRG:05B3C: 48       PHA
PRG:05B3D: 03       .byte $03
PRG:05B3E: 32       .byte $32
PRG:05B3F: 48       PHA
PRG:05B40: 03       .byte $03
PRG:05B41: 32       .byte $32
PRG:05B42: 48       PHA
PRG:05B43: 03       .byte $03
PRG:05B44: 32       .byte $32
PRG:05B45: 48       PHA
PRG:05B46: 03       .byte $03
PRG:05B47: 32       .byte $32
PRG:05B48: 48       PHA
PRG:05B49: 03       .byte $03
PRG:05B4A: 32       .byte $32
PRG:05B4B: 48       PHA
PRG:05B4C: 03       .byte $03
PRG:05B4D: 1A       NOP
PRG:05B4E: 28       PLP
PRG:05B4F: 02       .byte $02
PRG:05B50: 19 24 02 ORA $0224
PRG:05B53: 30 44    BMI $44
PRG:05B55: 03       .byte $03
PRG:05B56: 32       .byte $32
PRG:05B57: 48       PHA
PRG:05B58: 03       .byte $03
PRG:05B59: 32       .byte $32
PRG:05B5A: 48       PHA
PRG:05B5B: 03       .byte $03
PRG:05B5C: 32       .byte $32
PRG:05B5D: 48       PHA
PRG:05B5E: 03       .byte $03
PRG:05B5F: 32       .byte $32
PRG:05B60: 48       PHA
PRG:05B61: 03       .byte $03
PRG:05B62: 32       .byte $32
PRG:05B63: 48       PHA
PRG:05B64: 03       .byte $03
PRG:05B65: 32       .byte $32
PRG:05B66: 48       PHA
PRG:05B67: 03       .byte $03
PRG:05B68: 32       .byte $32
PRG:05B69: 48       PHA
PRG:05B6A: 03       .byte $03
PRG:05B6B: 32       .byte $32
PRG:05B6C: 48       PHA
PRG:05B6D: 03       .byte $03
PRG:05B6E: 08       PHP
PRG:05B6F: 08       PHP
PRG:05B70: 00 34    BRK $34
PRG:05B72: 00 00    BRK $00
PRG:05B74: 34 00    NOP $00
PRG:05B76: 00 34    BRK $34
PRG:05B78: 00 00    BRK $00
PRG:05B7A: 34 00    NOP $00
PRG:05B7C: 00 34    BRK $34
PRG:05B7E: 00 00    BRK $00
PRG:05B80: 34 00    NOP $00
PRG:05B82: 00 34    BRK $34
PRG:05B84: 00 00    BRK $00
PRG:05B86: 34 00    NOP $00
PRG:05B88: 00 34    BRK $34
PRG:05B8A: 00 00    BRK $00
PRG:05B8C: 34 00    NOP $00
PRG:05B8E: 00 34    BRK $34
PRG:05B90: 00 00    BRK $00
PRG:05B92: 34 00    NOP $00
PRG:05B94: 00 34    BRK $34
PRG:05B96: 00 00    BRK $00
PRG:05B98: 34 00    NOP $00
PRG:05B9A: 00 34    BRK $34
PRG:05B9C: 00 00    BRK $00
PRG:05B9E: 34 00    NOP $00
PRG:05BA0: 00 34    BRK $34
PRG:05BA2: 00 00    BRK $00
PRG:05BA4: 34 00    NOP $00
PRG:05BA6: 00 34    BRK $34
PRG:05BA8: 00 00    BRK $00
PRG:05BAA: 34 00    NOP $00
PRG:05BAC: 00 34    BRK $34
PRG:05BAE: 00 00    BRK $00
PRG:05BB0: 34 00    NOP $00
PRG:05BB2: 00 34    BRK $34
PRG:05BB4: 00 00    BRK $00
PRG:05BB6: 34 00    NOP $00
PRG:05BB8: 00 34    BRK $34
PRG:05BBA: 00 00    BRK $00
PRG:05BBC: 34 00    NOP $00
PRG:05BBE: 00 34    BRK $34
PRG:05BC0: 00 00    BRK $00
PRG:05BC2: 34 00    NOP $00
PRG:05BC4: 00 34    BRK $34
PRG:05BC6: 00 00    BRK $00
PRG:05BC8: 34 00    NOP $00
PRG:05BCA: 00 34    BRK $34
PRG:05BCC: 00 00    BRK $00
PRG:05BCE: 34 00    NOP $00
PRG:05BD0: 00 34    BRK $34
PRG:05BD2: 00 00    BRK $00
PRG:05BD4: 34 00    NOP $00
PRG:05BD6: 00 34    BRK $34
PRG:05BD8: 00 00    BRK $00
PRG:05BDA: 34 00    NOP $00
PRG:05BDC: 00 34    BRK $34
PRG:05BDE: 00 00    BRK $00
PRG:05BE0: 34 00    NOP $00
PRG:05BE2: 00 34    BRK $34
PRG:05BE4: 00 00    BRK $00
PRG:05BE6: 34 00    NOP $00
PRG:05BE8: 00 34    BRK $34
PRG:05BEA: 00 00    BRK $00
PRG:05BEC: 34 00    NOP $00
PRG:05BEE: 00 04    BRK $04
PRG:05BF0: 00 00    BRK $00
PRG:05BF2: 08       PHP
PRG:05BF3: 00 00    BRK $00
PRG:05BF5: 08       PHP
PRG:05BF6: 00 00    BRK $00
PRG:05BF8: 08       PHP
PRG:05BF9: 00 00    BRK $00
PRG:05BFB: 08       PHP
PRG:05BFC: 00 00    BRK $00
PRG:05BFE: 08       PHP
PRG:05BFF: 00 00    BRK $00
PRG:05C01: 08       PHP
PRG:05C02: 00 00    BRK $00
PRG:05C04: 08       PHP
PRG:05C05: 00 00    BRK $00
PRG:05C07: 18       CLC
PRG:05C08: 20 02 18 JSR $1802
PRG:05C0B: 24 02    BIT $02
PRG:05C0D: 08       PHP
PRG:05C0E: 04 00    NOP $00
PRG:05C10: 30 40    BMI $40
PRG:05C12: 03       .byte $03
PRG:05C13: 08       PHP
PRG:05C14: 08       PHP
PRG:05C15: 00 08    BRK $08
PRG:05C17: 00 00    BRK $00
PRG:05C19: 18       CLC
PRG:05C1A: 20 02 30 JSR $3002
PRG:05C1D: 44 03    NOP $03
PRG:05C1F: 30 48    BMI $48
PRG:05C21: 03       .byte $03
PRG:05C22: 38       SEC
PRG:05C23: 08       PHP
PRG:05C24: 0C 28 14 NOP $1428
PRG:05C27: 01 28    ORA $28
PRG:05C29: 00 01    BRK $01
PRG:05C2B: 3C 00 00 NOP $0000
PRG:05C2E: 3C 00 00 NOP $0000
PRG:05C31: 40       RTI
PRG:05C32: 00 00    BRK $00
PRG:05C34: 3C AC 00 NOP $00AC
PRG:05C37: 00 00    BRK $00
PRG:05C39: 00 04    BRK $04
PRG:05C3B: 10 01    BPL $01
PRG:05C3D: 08       PHP
PRG:05C3E: 00 00    BRK $00
PRG:05C40: 04 00    NOP $00
PRG:05C42: 01 0C    ORA $0C
PRG:05C44: 00 01    BRK $01
PRG:05C46: 04 00    NOP $00
PRG:05C48: 01 0C    ORA $0C
PRG:05C4A: 00 21    BRK $21
PRG:05C4C: 04 00    NOP $00
PRG:05C4E: 11 0C    ORA $0C
PRG:05C50: 00 11    BRK $11
PRG:05C52: 10 00    BPL $00
PRG:05C54: 00 14    BRK $14
PRG:05C56: 00 00    BRK $00
PRG:05C58: 04 00    NOP $00
PRG:05C5A: 01 0C    ORA $0C
PRG:05C5C: 00 01    BRK $01
PRG:05C5E: 04 00    NOP $00
PRG:05C60: 01 0C    ORA $0C
PRG:05C62: 00 21    BRK $21
PRG:05C64: 18       CLC
PRG:05C65: 00 0D    BRK $0D
PRG:05C67: 14 00    NOP $00
PRG:05C69: 00 0C    BRK $0C
PRG:05C6B: 00 11    BRK $11
PRG:05C6D: 04 00    NOP $00
PRG:05C6F: 01 0C    ORA $0C
PRG:05C71: 00 11    BRK $11
PRG:05C73: 04 00    NOP $00
PRG:05C75: 11 0C    ORA $0C
PRG:05C77: 00 11    BRK $11
PRG:05C79: 04 00    NOP $00
PRG:05C7B: 11 0C    ORA $0C
PRG:05C7D: 00 11    BRK $11
PRG:05C7F: 04 00    NOP $00
PRG:05C81: 41 0C    EOR $0C
PRG:05C83: 00 31    BRK $31
PRG:05C85: 04 00    NOP $00
PRG:05C87: 01 0C    ORA $0C
PRG:05C89: 00 21    BRK $21
PRG:05C8B: 04 00    NOP $00
PRG:05C8D: 11 18    ORA $18
PRG:05C8F: 00 0D    BRK $0D
PRG:05C91: 1C 00 00 NOP $0000
PRG:05C94: 20 00 00 JSR $0000
PRG:05C97: 1C 00 00 NOP $0000
PRG:05C9A: 14 00    NOP $00
PRG:05C9C: 00 0C    BRK $0C
PRG:05C9E: 00 21    BRK $21
PRG:05CA0: 10 00    BPL $00
PRG:05CA2: 00 1C    BRK $1C
PRG:05CA4: 00 00    BRK $00
PRG:05CA6: 1C 00 00 NOP $0000
PRG:05CA9: 1C 00 00 NOP $0000
PRG:05CAC: 20 00 00 JSR $0000
PRG:05CAF: 20 00 00 JSR $0000
PRG:05CB2: 14 00    NOP $00
PRG:05CB4: 00 04    BRK $04
PRG:05CB6: 00 01    BRK $01
PRG:05CB8: 0C 00 01 NOP $0100
PRG:05CBB: 04 00    NOP $00
PRG:05CBD: 11 40    ORA $40
PRG:05CBF: 00 41    BRK $41
PRG:05CC1: 04 00    NOP $00
PRG:05CC3: 41 10    EOR $10
PRG:05CC5: 00 00    BRK $00
PRG:05CC7: 20 00 00 JSR $0000
PRG:05CCA: 14 00    NOP $00
PRG:05CCC: 00 04    BRK $04
PRG:05CCE: 00 01    BRK $01
PRG:05CD0: 0C 00 21 NOP $2100
PRG:05CD3: 04 00    NOP $00
PRG:05CD5: 21 0C    AND $0C
PRG:05CD7: 00 F1    BRK $F1
PRG:05CD9: 04 00    NOP $00
PRG:05CDB: F1 0C    SBC $0C
PRG:05CDD: 00 21    BRK $21
PRG:05CDF: 04 00    NOP $00
PRG:05CE1: 31 0C    AND $0C
PRG:05CE3: 00 31    BRK $31
PRG:05CE5: 04 00    NOP $00
PRG:05CE7: 31 0C    AND $0C
PRG:05CE9: 00 01    BRK $01
PRG:05CEB: 04 00    NOP $00
PRG:05CED: 21 0C    AND $0C
PRG:05CEF: 00 01    BRK $01
PRG:05CF1: 10 00    BPL $00
PRG:05CF3: 00 24    BRK $24
PRG:05CF5: 00 00    BRK $00
PRG:05CF7: 20 00 00 JSR $0000
PRG:05CFA: 1C 00 00 NOP $0000
PRG:05CFD: 1C 00 00 NOP $0000
PRG:05D00: 1C 00 00 NOP $0000
PRG:05D03: 1C 00 00 NOP $0000
PRG:05D06: 1C 00 00 NOP $0000
PRG:05D09: 1C 00 00 NOP $0000
PRG:05D0C: 14 00    NOP $00
PRG:05D0E: 00 04    BRK $04
PRG:05D10: 00 11    BRK $11
PRG:05D12: 0C 00 21 NOP $2100
PRG:05D15: 04 00    NOP $00
PRG:05D17: 01 0C    ORA $0C
PRG:05D19: 00 01    BRK $01
PRG:05D1B: 04 00    NOP $00
PRG:05D1D: 01 18    ORA $18
PRG:05D1F: 00 3D    BRK $3D
PRG:05D21: 1C 00 00 NOP $0000
PRG:05D24: 1C 00 00 NOP $0000
PRG:05D27: 1C 00 00 NOP $0000
PRG:05D2A: 14 00    NOP $00
PRG:05D2C: 00 04    BRK $04
PRG:05D2E: 00 41    BRK $41
PRG:05D30: 0C 00 D1 NOP $D100
PRG:05D33: 04 00    NOP $00
PRG:05D35: 01 0C    ORA $0C
PRG:05D37: 00 01    BRK $01
PRG:05D39: 10 00    BPL $00
PRG:05D3B: 00 1C    BRK $1C
PRG:05D3D: 00 00    BRK $00
PRG:05D3F: 1C 00 00 NOP $0000
PRG:05D42: 1C 00 00 NOP $0000
PRG:05D45: 1C 00 00 NOP $0000
PRG:05D48: 1C 00 00 NOP $0000
PRG:05D4B: 1C 00 00 NOP $0000
PRG:05D4E: 1C 00 00 NOP $0000
PRG:05D51: 1C 00 00 NOP $0000
PRG:05D54: 1C 00 00 NOP $0000
PRG:05D57: 1C 00 00 NOP $0000
PRG:05D5A: 1C 00 00 NOP $0000
PRG:05D5D: 14 00    NOP $00
PRG:05D5F: 40       RTI
PRG:05D60: 0C 00 51 NOP $5100
PRG:05D63: 08       PHP
PRG:05D64: 00 00    BRK $00
PRG:05D66: 0C 00 11 NOP $1100
PRG:05D69: 08       PHP
PRG:05D6A: 00 C0    BRK $C0
PRG:05D6C: 0C 00 01 NOP $0100
PRG:05D6F: 18       CLC
PRG:05D70: 00 0D    BRK $0D
PRG:05D72: 14 00    NOP $00
PRG:05D74: 00 04    BRK $04
PRG:05D76: 00 01    BRK $01
PRG:05D78: 0C 00 01 NOP $0100
PRG:05D7B: 08       PHP
PRG:05D7C: 00 10    BRK $10
PRG:05D7E: 0C 00 01 NOP $0100
PRG:05D81: 04 00    NOP $00
PRG:05D83: 11 10    ORA $10
PRG:05D85: 00 00    BRK $00
PRG:05D87: 14 00    NOP $00
PRG:05D89: 00 0C    BRK $0C
PRG:05D8B: 00 01    BRK $01
PRG:05D8D: 04 00    NOP $00
PRG:05D8F: 21 0C    AND $0C
PRG:05D91: 00 01    BRK $01
PRG:05D93: 04 00    NOP $00
PRG:05D95: 01 0C    ORA $0C
PRG:05D97: 00 01    BRK $01
PRG:05D99: 04 00    NOP $00
PRG:05D9B: 31 0C    AND $0C
PRG:05D9D: 00 21    BRK $21
PRG:05D9F: 04 00    NOP $00
PRG:05DA1: 01 0C    ORA $0C
PRG:05DA3: 00 01    BRK $01
PRG:05DA5: 04 00    NOP $00
PRG:05DA7: 01 0C    ORA $0C
PRG:05DA9: 00 C1    BRK $C1
PRG:05DAB: 04 00    NOP $00
PRG:05DAD: 01 18    ORA $18
PRG:05DAF: 00 0D    BRK $0D
PRG:05DB1: 1C 00 00 NOP $0000
PRG:05DB4: 24 00    BIT $00
PRG:05DB6: 00 28    BRK $28
PRG:05DB8: 00 00    BRK $00
PRG:05DBA: 2C 00 00 BIT $0000
PRG:05DBD: 28       PLP
PRG:05DBE: 64 00    NOP $00
PRG:05DC0: 2D 64 00 AND $0064
PRG:05DC3: 29 88    AND $88
PRG:05DC5: 00 2C    BRK $2C
PRG:05DC7: 00 00    BRK $00
PRG:05DC9: 28       PLP
PRG:05DCA: 64 00    NOP $00
PRG:05DCC: 2D 64 00 AND $0064
PRG:05DCF: 29 64    AND $64
PRG:05DD1: 00 35    BRK $35
PRG:05DD3: A4 04    LDY $04
PRG:05DD5: 29 6C    AND $6C
PRG:05DD7: 00 2D    BRK $2D
PRG:05DD9: 00 00    BRK $00
PRG:05DDB: 31 A4    AND $A4
PRG:05DDD: 04 2D    NOP $2D
PRG:05DDF: 04 00    NOP $00
PRG:05DE1: 29 64    AND $64
PRG:05DE3: 00 2D    BRK $2D
PRG:05DE5: 64 00    NOP $00
PRG:05DE7: 28       PLP
PRG:05DE8: 00 00    BRK $00
PRG:05DEA: 2C 00 00 BIT $0000
PRG:05DED: 31 A4    AND $A4
PRG:05DEF: 04 2D    NOP $2D
PRG:05DF1: 6C 00 29 JMP $2900
PRG:05DF4: 64 00    NOP $00
PRG:05DF6: 2D 00 00 AND $0000
PRG:05DF9: 29 64    AND $64
PRG:05DFB: 00 2C    BRK $2C
PRG:05DFD: 64 00    NOP $00
PRG:05DFF: 38       SEC
PRG:05E00: 88       DEY
PRG:05E01: 05 3A    ORA $3A
PRG:05E03: D0 05    BNE $05
PRG:05E05: 2A       ROL
PRG:05E06: 88       DEY
PRG:05E07: 00 2E    BRK $2E
PRG:05E09: 00 00    BRK $00
PRG:05E0B: 2A       ROL
PRG:05E0C: 00 00    BRK $00
PRG:05E0E: 38       SEC
PRG:05E0F: 88       DEY
PRG:05E10: 05 34    ORA $34
PRG:05E12: 08       PHP
PRG:05E13: 04 2D    NOP $2D
PRG:05E15: 6C 00 28 JMP $2800
PRG:05E18: 00 00    BRK $00
PRG:05E1A: 2C 00 00 BIT $0000
PRG:05E1D: 28       PLP
PRG:05E1E: 64 00    NOP $00
PRG:05E20: 38       SEC
PRG:05E21: 88       DEY
PRG:05E22: 05 2A    ORA $2A
PRG:05E24: 88       DEY
PRG:05E25: 00 36    BRK $36
PRG:05E27: 90 04    BCC $04
PRG:05E29: 32       .byte $32
PRG:05E2A: 88       DEY
PRG:05E2B: 04 34    NOP $34
PRG:05E2D: 00 04    BRK $04
PRG:05E2F: 32       .byte $32
PRG:05E30: 88       DEY
PRG:05E31: 04 3A    NOP $3A
PRG:05E33: 80 05    NOP $05
PRG:05E35: 38       SEC
PRG:05E36: 00 05    BRK $05
PRG:05E38: 2E 88 00 ROL $0088
PRG:05E3B: 3A       NOP
PRG:05E3C: 88       DEY
PRG:05E3D: 05 36    ORA $36
PRG:05E3F: 90 04    BCC $04
PRG:05E41: 2A       ROL
PRG:05E42: 80 00    NOP $00
PRG:05E44: 2E 88 00 ROL $0088
PRG:05E47: 28       PLP
PRG:05E48: 00 00    BRK $00
PRG:05E4A: 34 08    NOP $08
PRG:05E4C: 04 30    NOP $30
PRG:05E4E: 00 04    BRK $04
PRG:05E50: 36 88    ROL $88
PRG:05E52: 04 32    NOP $32
PRG:05E54: 00 04    BRK $04
PRG:05E56: 34 88    NOP $88
PRG:05E58: 04 32    NOP $32
PRG:05E5A: 88       DEY
PRG:05E5B: 04 36    NOP $36
PRG:05E5D: 88       DEY
PRG:05E5E: 04 2A    NOP $2A
PRG:05E60: 80 00    NOP $00
PRG:05E62: 2C 88 00 BIT $0088
PRG:05E65: 30 A4    BMI $A4
PRG:05E67: 04 3C    NOP $3C
PRG:05E69: 80 05    NOP $05
PRG:05E6B: 2A       ROL
PRG:05E6C: D0 00    BNE $00
PRG:05E6E: 2C 64 00 BIT $0064
PRG:05E71: 28       PLP
PRG:05E72: 00 00    BRK $00
PRG:05E74: 2C 00 00 BIT $0000
PRG:05E77: 00 00    BRK $00
PRG:05E79: 00 00    BRK $00
PRG:05E7B: 00 D0    BRK $D0
PRG:05E7D: 00 00    BRK $00
PRG:05E7F: 00 00    BRK $00
PRG:05E81: 00 00    BRK $00
PRG:05E83: 00 00    BRK $00
PRG:05E85: D0 00    BNE $00
PRG:05E87: 00 00    BRK $00
PRG:05E89: 00 00    BRK $00
PRG:05E8B: 00 00    BRK $00
PRG:05E8D: 00 00    BRK $00
PRG:05E8F: 00 00    BRK $00
PRG:05E91: 30 00    BMI $00
PRG:05E93: 00 00    BRK $00
PRG:05E95: 00 00    BRK $00
PRG:05E97: 00 00    BRK $00
PRG:05E99: 00 00    BRK $00
PRG:05E9B: 00 00    BRK $00
PRG:05E9D: 00 00    BRK $00
PRG:05E9F: 00 00    BRK $00
PRG:05EA1: 00 00    BRK $00
PRG:05EA3: 00 00    BRK $00
PRG:05EA5: 00 00    BRK $00
PRG:05EA7: 00 00    BRK $00
PRG:05EA9: 00 00    BRK $00
PRG:05EAB: 00 D0    BRK $D0
PRG:05EAD: 00 00    BRK $00
PRG:05EAF: 00 00    BRK $00
PRG:05EB1: 00 00    BRK $00
PRG:05EB3: 02       .byte $02
PRG:05EB4: 00 00    BRK $00
PRG:05EB6: 00 00    BRK $00
PRG:05EB8: 00 00    BRK $00
PRG:05EBA: 00 00    BRK $00
PRG:05EBC: 04 00    NOP $00
PRG:05EBE: 00 08    BRK $08
PRG:05EC0: 00 21    BRK $21
PRG:05EC2: 0C AC 00 NOP $00AC
PRG:05EC5: 0C 88 00 NOP $0088
PRG:05EC8: 0C 88 00 NOP $0088
PRG:05ECB: 0C 00 00 NOP $0000
PRG:05ECE: 10 00    BPL $00
PRG:05ED0: 11 14    ORA $14
PRG:05ED2: 01 00    ORA $00
PRG:05ED4: 14 01    NOP $01
PRG:05ED6: 00 18    BRK $18
PRG:05ED8: 01 00    ORA $00
PRG:05EDA: 18       CLC
PRG:05EDB: 01 00    ORA $00
PRG:05EDD: 18       CLC
PRG:05EDE: 65 00    ADC $00
PRG:05EE0: 18       CLC
PRG:05EE1: 01 00    ORA $00
PRG:05EE3: 18       CLC
PRG:05EE4: D1 00    CMP $00
PRG:05EE6: 18       CLC
PRG:05EE7: 01 00    ORA $00
PRG:05EE9: 18       CLC
PRG:05EEA: 01 00    ORA $00
PRG:05EEC: 18       CLC
PRG:05EED: 01 00    ORA $00
PRG:05EEF: 1C 01 00 NOP $0001
PRG:05EF2: 20 01 00 JSR $0001
PRG:05EF5: 1C 01 00 NOP $0001
PRG:05EF8: 24 01    BIT $01
PRG:05EFA: 00 20    BRK $20
PRG:05EFC: 01 00    ORA $00
PRG:05EFE: 18       CLC
PRG:05EFF: 01 00    ORA $00
PRG:05F01: 18       CLC
PRG:05F02: 01 00    ORA $00
PRG:05F04: 1C 01 00 NOP $0001
PRG:05F07: 18       CLC
PRG:05F08: 01 00    ORA $00
PRG:05F0A: 20 65 00 JSR $0065
PRG:05F0D: 1D 65 00 ORA $0065
PRG:05F10: 21 65    AND $65
PRG:05F12: 00 15    BRK $15
PRG:05F14: 65 00    ADC $00
PRG:05F16: 14 65    NOP $65
PRG:05F18: E0 10    CPX $10
PRG:05F1A: 00 01    BRK $01
PRG:05F1C: 0C 64 00 NOP $0064
PRG:05F1F: 28       PLP
PRG:05F20: D0 01    BNE $01
PRG:05F22: 6C 00 00 JMP $0000
PRG:05F25: 00 00    BRK $00
PRG:05F27: 00 01    BRK $01
PRG:05F29: 00 00    BRK $00
PRG:05F2B: 00 00    BRK $00
PRG:05F2D: 00 00    BRK $00
PRG:05F2F: 00 00    BRK $00
PRG:05F31: 00 00    BRK $00
PRG:05F33: 00 00    BRK $00
PRG:05F35: 00 00    BRK $00
PRG:05F37: 00 00    BRK $00
PRG:05F39: 00 00    BRK $00
PRG:05F3B: 00 00    BRK $00
PRG:05F3D: 00 00    BRK $00
PRG:05F3F: 00 00    BRK $00
PRG:05F41: 00 00    BRK $00
PRG:05F43: 00 00    BRK $00
PRG:05F45: D0 00    BNE $00
PRG:05F47: 00 00    BRK $00
PRG:05F49: 00 00    BRK $00
PRG:05F4B: 00 00    BRK $00
PRG:05F4D: 00 D0    BRK $D0
PRG:05F4F: 00 00    BRK $00
PRG:05F51: 00 00    BRK $00
PRG:05F53: 00 D0    BRK $D0
PRG:05F55: 02       .byte $02
PRG:05F56: 00 D0    BRK $D0
PRG:05F58: 02       .byte $02
PRG:05F59: 00 00    BRK $00
PRG:05F5B: 00 00    BRK $00
PRG:05F5D: 00 01    BRK $01
PRG:05F5F: 00 00    BRK $00
PRG:05F61: 01 00    ORA $00
PRG:05F63: D0 00    BNE $00
PRG:05F65: 00 00    BRK $00
PRG:05F67: 00 00    BRK $00
PRG:05F69: 00 06    BRK $06
PRG:05F6B: 00 00    BRK $00
PRG:05F6D: 08       PHP
PRG:05F6E: 00 01    BRK $01
PRG:05F70: 0C AC 00 NOP $00AC
PRG:05F73: 0C 88 00 NOP $0088
PRG:05F76: 0C 88 00 NOP $0088
PRG:05F79: 0C 00 00 NOP $0000
PRG:05F7C: 5C 64 00 NOP $0064
PRG:05F7F: 60       RTS
PRG:05F80: 00 00    BRK $00
PRG:05F82: 0C D0 00 NOP $00D0
PRG:05F85: 40       RTI
PRG:05F86: 00 00    BRK $00
PRG:05F88: 58       CLI
PRG:05F89: AC 00 40 LDY $4000
PRG:05F8C: 88       DEY
PRG:05F8D: 00 40    BRK $40
PRG:05F8F: 88       DEY
PRG:05F90: 00 58    BRK $58
PRG:05F92: 64 00    NOP $00
PRG:05F94: 59 64 00 EOR $0064
PRG:05F97: 40       RTI
PRG:05F98: 00 00    BRK $00
PRG:05F9A: 59 64 00 EOR $0064
PRG:05F9D: 41 00    EOR $00
PRG:05F9F: 00 58    BRK $58
PRG:05FA1: 64 00    NOP $00
PRG:05FA3: 59 64 00 EOR $0064
PRG:05FA6: 58       CLI
PRG:05FA7: 64 00    NOP $00
PRG:05FA9: 45 6C    EOR $6C
PRG:05FAB: 01 49    ORA $49
PRG:05FAD: 60       RTS
PRG:05FAE: 0D 40 00 ORA $0040
PRG:05FB1: 00 40    BRK $40
PRG:05FB3: 88       DEY
PRG:05FB4: 00 40    BRK $40
PRG:05FB6: 00 00    BRK $00
PRG:05FB8: 45 64    EOR $64
PRG:05FBA: 01 40    ORA $40
PRG:05FBC: 64 00    NOP $00
PRG:05FBE: 40       RTI
PRG:05FBF: 00 00    BRK $00
PRG:05FC1: 40       RTI
PRG:05FC2: 88       DEY
PRG:05FC3: 00 42    BRK $42
PRG:05FC5: 88       DEY
PRG:05FC6: 00 40    BRK $40
PRG:05FC8: 88       DEY
PRG:05FC9: 00 42    BRK $42
PRG:05FCB: 88       DEY
PRG:05FCC: 00 46    BRK $46
PRG:05FCE: 88       DEY
PRG:05FCF: 01 40    ORA $40
PRG:05FD1: 88       DEY
PRG:05FD2: 00 42    BRK $42
PRG:05FD4: 00 00    BRK $00
PRG:05FD6: 60       RTS
PRG:05FD7: 00 00    BRK $00
PRG:05FD9: 0E D0 00 ASL $00D0
PRG:05FDC: 5E 64 00 LSR $0064
PRG:05FDF: 0C 00 00 NOP $0000
PRG:05FE2: 5C 64 00 NOP $0064
PRG:05FE5: 0C 00 00 NOP $0000
PRG:05FE8: 28       PLP
PRG:05FE9: D0 01    BNE $01
PRG:05FEB: 6C 00 00 JMP $0000
PRG:05FEE: 02       .byte $02
PRG:05FEF: 00 00    BRK $00
PRG:05FF1: 00 00    BRK $00
PRG:05FF3: 00 00    BRK $00
PRG:05FF5: 00 00    BRK $00
PRG:05FF7: 00 00    BRK $00
PRG:05FF9: 00 00    BRK $00
PRG:05FFB: 00 00    BRK $00
PRG:05FFD: 00 00    BRK $00
PRG:05FFF: 00 64    BRK $64
PRG:06001: 00 0E    BRK $0E
PRG:06003: 00 00    BRK $00
PRG:06005: 00 04    BRK $04
PRG:06007: 00 00    BRK $00
PRG:06009: AC 00 01 LDY $0100
PRG:0600C: 68       PLA
PRG:0600D: 00 00    BRK $00
PRG:0600F: AC 00 01 LDY $0100
PRG:06012: 6C 00 00 JMP $0000
PRG:06015: 04 00    NOP $00
PRG:06017: 00 AC    BRK $AC
PRG:06019: 00 01    BRK $01
PRG:0601B: 6C 00 00 JMP $0000
PRG:0601E: 64 00    NOP $00
PRG:06020: 0E 64 00 ASL $0064
PRG:06023: 0E 00 00 ASL $0000
PRG:06026: 00 00    BRK $00
PRG:06028: 00 00    BRK $00
PRG:0602A: 04 00    NOP $00
PRG:0602C: 00 0A    BRK $0A
PRG:0602E: 00 01    BRK $01
PRG:06030: A4 AC    LDY $AC
PRG:06032: 00 A8    BRK $A8
PRG:06034: 00 00    BRK $00
PRG:06036: 78       SEI
PRG:06037: 00 00    BRK $00
PRG:06039: 7D 08 01 ADC $0108
PRG:0603C: 80 80    NOP $80
PRG:0603E: 00 84    BRK $84
PRG:06040: 08       PHP
PRG:06041: 01 8A    ORA $8A
PRG:06043: 80 00    NOP $00
PRG:06045: 74 00    NOP $00
PRG:06047: 00 74    BRK $74
PRG:06049: 00 00    BRK $00
PRG:0604B: 8C 00 00 STY $0000
PRG:0604E: 74 00    NOP $00
PRG:06050: 00 74    BRK $74
PRG:06052: 00 00    BRK $00
PRG:06054: 8C 00 00 STY $0000
PRG:06057: 74 00    NOP $00
PRG:06059: 00 78    BRK $78
PRG:0605B: 00 00    BRK $00
PRG:0605D: 7E 88 11 ROR $1188
PRG:06060: 82       .byte $82
PRG:06061: 00 00    BRK $00
PRG:06063: 84 88    STY $88
PRG:06065: 01 8A    ORA $8A
PRG:06067: 00 00    BRK $00
PRG:06069: 90 00    BCC $00
PRG:0606B: 0E 90 00 ASL $0090
PRG:0606E: 1E 94 00 ASL $0094
PRG:06071: 00 84    BRK $84
PRG:06073: 88       DEY
PRG:06074: 01 82    ORA $82
PRG:06076: 88       DEY
PRG:06077: 00 7E    BRK $7E
PRG:06079: 08       PHP
PRG:0607A: 01 86    ORA $86
PRG:0607C: 88       DEY
PRG:0607D: 01 86    ORA $86
PRG:0607F: 88       DEY
PRG:06080: 01 7E    ORA $7E
PRG:06082: 00 01    BRK $01
PRG:06084: 70 80    BVS $80
PRG:06086: 00 74    BRK $74
PRG:06088: 00 00    BRK $00
PRG:0608A: 98       TYA
PRG:0608B: 00 0E    BRK $0E
PRG:0608D: 78       SEI
PRG:0608E: 00 00    BRK $00
PRG:06090: 84 88    STY $88
PRG:06092: 01 7E    ORA $7E
PRG:06094: 88       DEY
PRG:06095: 01 86    ORA $86
PRG:06097: 88       DEY
PRG:06098: 01 86    ORA $86
PRG:0609A: 88       DEY
PRG:0609B: 01 7E    ORA $7E
PRG:0609D: 88       DEY
PRG:0609E: 11 72    ORA $72
PRG:060A0: 88       DEY
PRG:060A1: 00 78    BRK $78
PRG:060A3: 00 00    BRK $00
PRG:060A5: 7C 00 01 NOP $0100
PRG:060A8: 86 88    STX $88
PRG:060AA: 01 84    ORA $84
PRG:060AC: 00 01    BRK $01
PRG:060AE: 7E 88 01 ROR $0188
PRG:060B1: 9C       .byte $9C
PRG:060B2: 00 00    BRK $00
PRG:060B4: A0 00    LDY $00
PRG:060B6: 00 40    BRK $40
PRG:060B8: 00 00    BRK $00
PRG:060BA: 40       RTI
PRG:060BB: 00 00    BRK $00
PRG:060BD: 40       RTI
PRG:060BE: 00 00    BRK $00
PRG:060C0: 40       RTI
PRG:060C1: 00 00    BRK $00
PRG:060C3: 40       RTI
PRG:060C4: 00 00    BRK $00
PRG:060C6: 40       RTI
PRG:060C7: 00 00    BRK $00
PRG:060C9: 44 00    NOP $00
PRG:060CB: 01 48    ORA $48
PRG:060CD: 00 0D    BRK $0D
PRG:060CF: 40       RTI
PRG:060D0: 00 00    BRK $00
PRG:060D2: 42       .byte $42
PRG:060D3: 88       DEY
PRG:060D4: 00 40    BRK $40
PRG:060D6: 88       DEY
PRG:060D7: 00 40    BRK $40
PRG:060D9: 00 00    BRK $00
PRG:060DB: 40       RTI
PRG:060DC: 00 20    BRK $20
PRG:060DE: 4C B8 00 JMP $00B8
PRG:060E1: 40       RTI
PRG:060E2: 90 00    BCC $00
PRG:060E4: 41 00    EOR $00
PRG:060E6: 00 40    BRK $40
PRG:060E8: 00 00    BRK $00
PRG:060EA: 48       PHA
PRG:060EB: 00 0D    BRK $0D
PRG:060ED: 44 64    NOP $64
PRG:060EF: 11 48    ORA $48
PRG:060F1: 64 0D    NOP $0D
PRG:060F3: 40       RTI
PRG:060F4: 00 00    BRK $00
PRG:060F6: 40       RTI
PRG:060F7: 88       DEY
PRG:060F8: 00 42    BRK $42
PRG:060FA: 88       DEY
PRG:060FB: 00 42    BRK $42
PRG:060FD: 88       DEY
PRG:060FE: 00 42    BRK $42
PRG:06100: 88       DEY
PRG:06101: 00 52    BRK $52
PRG:06103: 00 00    BRK $00
PRG:06105: 56 1C    LSR $1C
PRG:06107: 00 58    BRK $58
PRG:06109: 18       CLC
PRG:0610A: 00 44    BRK $44
PRG:0610C: 08       PHP
PRG:0610D: C1 44    CMP $44
PRG:0610F: 00 E1    BRK $E1
PRG:06111: 48       PHA
PRG:06112: 80 0D    NOP $0D
PRG:06114: 40       RTI
PRG:06115: 00 00    BRK $00
PRG:06117: 40       RTI
PRG:06118: 00 00    BRK $00
PRG:0611A: 41 00    EOR $00
PRG:0611C: 00 44    BRK $44
PRG:0611E: 60       RTS
PRG:0611F: 01 44    ORA $44
PRG:06121: 04 E1    NOP $E1
PRG:06123: 45 00    EOR $00
PRG:06125: 11 44    ORA $44
PRG:06127: 00 01    BRK $01
PRG:06129: 44 60    NOP $60
PRG:0612B: 01 45    ORA $45
PRG:0612D: 64 11    NOP $11
PRG:0612F: 45 64    EOR $64
PRG:06131: 01 45    ORA $45
PRG:06133: 64 01    NOP $01
PRG:06135: 45 64    EOR $64
PRG:06137: 11 45    ORA $45
PRG:06139: 04 E1    NOP $E1
PRG:0613B: 44 00    NOP $00
PRG:0613D: D1 44    CMP $44
PRG:0613F: 00 01    BRK $01
PRG:06141: 41 64    EOR $64
PRG:06143: F0 58    BEQ $58
PRG:06145: 64 F0    NOP $F0
PRG:06147: 40       RTI
PRG:06148: 00 00    BRK $00
PRG:0614A: 41 00    EOR $00
PRG:0614C: F0 59    BEQ $59
PRG:0614E: 64 F0    NOP $F0
PRG:06150: 59 64 00 EOR $0064
PRG:06153: 58       CLI
PRG:06154: 64 00    NOP $00
PRG:06156: 44 00    NOP $00
PRG:06158: 01 45    ORA $45
PRG:0615A: 60       RTS
PRG:0615B: 01 45    ORA $45
PRG:0615D: 64 01    NOP $01
PRG:0615F: 45 64    EOR $64
PRG:06161: D1 45    CMP $45
PRG:06163: 64 D1    NOP $D1
PRG:06165: 44 00    NOP $00
PRG:06167: 01 44    ORA $44
PRG:06169: 00 01    BRK $01
PRG:0616B: 45 60    EOR $60
PRG:0616D: 01 48    ORA $48
PRG:0616F: 84 0D    STY $0D
PRG:06171: 40       RTI
PRG:06172: 00 00    BRK $00
PRG:06174: 40       RTI
PRG:06175: 00 00    BRK $00
PRG:06177: 1C 01 00 NOP $0001
PRG:0617A: 18       CLC
PRG:0617B: 01 00    ORA $00
PRG:0617D: 24 01    BIT $01
PRG:0617F: 00 18    BRK $18
PRG:06181: 01 00    ORA $00
PRG:06183: 24 01    BIT $01
PRG:06185: 00 18    BRK $18
PRG:06187: 01 00    ORA $00
PRG:06189: 24 01    BIT $01
PRG:0618B: 00 18    BRK $18
PRG:0618D: 01 00    ORA $00
PRG:0618F: 24 01    BIT $01
PRG:06191: 00 18    BRK $18
PRG:06193: 01 00    ORA $00
PRG:06195: 18       CLC
PRG:06196: 65 00    ADC $00
PRG:06198: 20 01 00 JSR $0001
PRG:0619B: 18       CLC
PRG:0619C: 89       .byte $89
PRG:0619D: 00 20    BRK $20
PRG:0619F: 65 00    ADC $00
PRG:061A1: 18       CLC
PRG:061A2: 89       .byte $89
PRG:061A3: 00 20    BRK $20
PRG:061A5: 65 00    ADC $00
PRG:061A7: 18       CLC
PRG:061A8: 01 00    ORA $00
PRG:061AA: 20 01 00 JSR $0001
PRG:061AD: 1C 89 00 NOP $0089
PRG:061B0: 1C 01 00 NOP $0001
PRG:061B3: 1C 01 00 NOP $0001
PRG:061B6: 1C 01 00 NOP $0001
PRG:061B9: 30 01    BMI $01
PRG:061BB: 0D 1C 01 ORA $011C
PRG:061BE: 00 30    BRK $30
PRG:061C0: 01 0D    ORA $0D
PRG:061C2: 20 65 00 JSR $0065
PRG:061C5: 34 89    NOP $89
PRG:061C7: 0F       .byte $0F
PRG:061C8: 24 01    BIT $01
PRG:061CA: 00 34    BRK $34
PRG:061CC: 01 0F    ORA $0F
PRG:061CE: 20 65 00 JSR $0065
PRG:061D1: 30 89    BMI $89
PRG:061D3: 0D 1C 01 ORA $011C
PRG:061D6: 00 20    BRK $20
PRG:061D8: 01 00    ORA $00
PRG:061DA: 20 65 00 JSR $0065
PRG:061DD: 21 65    AND $65
PRG:061DF: 00 21    BRK $21
PRG:061E1: 65 00    ADC $00
PRG:061E3: 38       SEC
PRG:061E4: 01 01    ORA $01
PRG:061E6: 38       SEC
PRG:061E7: 01 01    ORA $01
PRG:061E9: 39 01 01 AND $0101
PRG:061EC: 30 01    BMI $01
PRG:061EE: 0D 20 65 ORA $6520
PRG:061F1: 00 30    BRK $30
PRG:061F3: 89       .byte $89
PRG:061F4: 0D 30 01 ORA $0130
PRG:061F7: 0D 30 01 ORA $0130
PRG:061FA: 0D 30 01 ORA $0130
PRG:061FD: 0D 38 01 ORA $0138
PRG:06200: 01 1C    ORA $1C
PRG:06202: 01 00    ORA $00
PRG:06204: 20 65 00 JSR $0065
PRG:06207: 20 01 00 JSR $0001
PRG:0620A: 20 01 00 JSR $0001
PRG:0620D: 20 89 00 JSR $0089
PRG:06210: 22       .byte $22
PRG:06211: 89       .byte $89
PRG:06212: 00 22    BRK $22
PRG:06214: 89       .byte $89
PRG:06215: 00 22    BRK $22
PRG:06217: 89       .byte $89
PRG:06218: 00 22    BRK $22
PRG:0621A: 65 00    ADC $00
PRG:0621C: 20 65 00 JSR $0065
PRG:0621F: 21 65    AND $65
PRG:06221: 00 3D    BRK $3D
PRG:06223: 89       .byte $89
PRG:06224: 0D 30 89 ORA $8930
PRG:06227: 0D 30 89 ORA $8930
PRG:0622A: 0D 3A 01 ORA $013A
PRG:0622D: 01 38    ORA $38
PRG:0622F: 01 01    ORA $01
PRG:06231: 38       SEC
PRG:06232: 01 01    ORA $01
PRG:06234: 24 01    BIT $01
PRG:06236: 00 00    BRK $00
PRG:06238: 10 83    BPL $83
PRG:0623A: 10 51    BPL $51
PRG:0623C: 45 14    EOR $14
PRG:0623E: 51 45    EOR $45
PRG:06240: 18       CLC
PRG:06241: 72       .byte $72
PRG:06242: 09 48    ORA $48
PRG:06244: 82       .byte $82
PRG:06245: 4A       LSR
PRG:06246: 28       PLP
PRG:06247: 51 45    EOR $45
PRG:06249: 2C C2 CC BIT $CCC2
PRG:0624C: 14 F4    NOP $F4
PRG:0624E: 50 3D    BVC $3D
PRG:06250: 14 50    NOP $50
PRG:06252: 3D 14 51 AND $5114
PRG:06255: 45 14    EOR $14
PRG:06257: 51 40    EOR $40
PRG:06259: 51 45    EOR $45
PRG:0625B: 34 E3    NOP $E3
PRG:0625D: 4E 4C 15 LSR $154C
PRG:06260: 15 14    ORA $14
PRG:06262: 53       .byte $53
PRG:06263: D1 59    CMP $59
PRG:06265: 85 D8    STA $D8
PRG:06267: 59 86 5A EOR $5A86
PRG:0626A: 00 00    BRK $00
PRG:0626C: 01 00    ORA $00
PRG:0626E: 02       .byte $02
PRG:0626F: 00 03    BRK $03
PRG:06271: 00 04    BRK $04
PRG:06273: 01 05    ORA $05
PRG:06275: 02       .byte $02
PRG:06276: 06 03    ASL $03
PRG:06278: 07       .byte $07
PRG:06279: 00 08    BRK $08
PRG:0627B: 00 09    BRK $09
PRG:0627D: 00 0A    BRK $0A
PRG:0627F: 01 05    ORA $05
PRG:06281: 05 05    ORA $05
PRG:06283: 06 0B    ASL $0B
PRG:06285: 0A       ASL
PRG:06286: 05 07    ORA $07
PRG:06288: 05 08    ORA $08
PRG:0628A: 05 09    ORA $09
PRG:0628C: 05 04    ORA $04
PRG:0628E: 0C 00 0D NOP $0D00
PRG:06291: 00 0E    BRK $0E
PRG:06293: 00 0F    BRK $0F
PRG:06295: 00 10    BRK $10
PRG:06297: 0B       .byte $0B
PRG:06298: 11 0B    ORA $0B
PRG:0629A: 12       .byte $12
PRG:0629B: 0B       .byte $0B
PRG:0629C: 11 0C    ORA $0C
PRG:0629E: 12       .byte $12
PRG:0629F: 0C 05 06 NOP $0605
PRG:062A2: 07       .byte $07
PRG:062A3: 07       .byte $07
PRG:062A4: 07       .byte $07
PRG:062A5: 15 06    ORA $06
PRG:062A7: 07       .byte $07
PRG:062A8: 07       .byte $07
PRG:062A9: 07       .byte $07
PRG:062AA: 16 06    ASL $06
PRG:062AC: 07       .byte $07
PRG:062AD: 07       .byte $07
PRG:062AE: 07       .byte $07
PRG:062AF: 17       .byte $17
PRG:062B0: 06 07    ASL $07
PRG:062B2: 07       .byte $07
PRG:062B3: 07       .byte $07
PRG:062B4: 13       .byte $13
PRG:062B5: 13       .byte $13
PRG:062B6: 13       .byte $13
PRG:062B7: 13       .byte $13
PRG:062B8: 13       .byte $13
PRG:062B9: 20 21 22 JSR $2221
PRG:062BC: 23       .byte $23
PRG:062BD: 23       .byte $23
PRG:062BE: 24 25    BIT $25
PRG:062C0: 26 27    ROL $27
PRG:062C2: 27       .byte $27
PRG:062C3: 28       PLP
PRG:062C4: 29 2A    AND $2A
PRG:062C6: 2A       ROL
PRG:062C7: 2A       ROL
PRG:062C8: 2C 2D 2E BIT $2E2D
PRG:062CB: 2E 2E 2F ROL $2F2E
PRG:062CE: 30 31    BMI $31
PRG:062D0: 31 31    AND $31
PRG:062D2: 38       SEC
PRG:062D3: 39 3A 3A AND $3A3A
PRG:062D6: 3A       NOP
PRG:062D7: 42       .byte $42
PRG:062D8: 43       .byte $43
PRG:062D9: 43       .byte $43
PRG:062DA: 43       .byte $43
PRG:062DB: 43       .byte $43
PRG:062DC: 3C 3C 3C NOP $3C3C
PRG:062DF: 3C 3C 00 NOP $003C
PRG:062E2: 00 01    BRK $01
PRG:062E4: 02       .byte $02
PRG:062E5: 03       .byte $03
PRG:062E6: 04 00    NOP $00
PRG:062E8: 00 01    BRK $01
PRG:062EA: 08       PHP
PRG:062EB: 09 0A    ORA $0A
PRG:062ED: 00 00    BRK $00
PRG:062EF: 01 0B    ORA $0B
PRG:062F1: 0C 0D 00 NOP $000D
PRG:062F4: 00 01    BRK $01
PRG:062F6: 0E 0F 10 ASL $100F
PRG:062F9: 11 11    ORA $11
PRG:062FB: 12       .byte $12
PRG:062FC: 13       .byte $13
PRG:062FD: 13       .byte $13
PRG:062FE: 14 13    NOP $13
PRG:06300: 13       .byte $13
PRG:06301: 13       .byte $13
PRG:06302: 13       .byte $13
PRG:06303: 13       .byte $13
PRG:06304: 13       .byte $13
PRG:06305: 13       .byte $13
PRG:06306: 13       .byte $13
PRG:06307: 13       .byte $13
PRG:06308: 1C 13 18 NOP $1813
PRG:0630B: 13       .byte $13
PRG:0630C: 13       .byte $13
PRG:0630D: 13       .byte $13
PRG:0630E: 19 1A 1B ORA $1B1A
PRG:06311: 13       .byte $13
PRG:06312: 13       .byte $13
PRG:06313: 13       .byte $13
PRG:06314: 13       .byte $13
PRG:06315: 1C 1D 13 NOP $131D
PRG:06318: 13       .byte $13
PRG:06319: 13       .byte $13
PRG:0631A: 13       .byte $13
PRG:0631B: 19 1B 13 ORA $131B
PRG:0631E: 13       .byte $13
PRG:0631F: 13       .byte $13
PRG:06320: 13       .byte $13
PRG:06321: 13       .byte $13
PRG:06322: 1E 13 13 ASL $1313
PRG:06325: 13       .byte $13
PRG:06326: 13       .byte $13
PRG:06327: 13       .byte $13
PRG:06328: 2B       .byte $2B
PRG:06329: 13       .byte $13
PRG:0632A: 13       .byte $13
PRG:0632B: 13       .byte $13
PRG:0632C: 13       .byte $13
PRG:0632D: 13       .byte $13
PRG:0632E: 1D 00 00 ORA $0000
PRG:06331: 01 02    ORA $02
PRG:06333: 1F       .byte $1F
PRG:06334: 04 00    NOP $00
PRG:06336: 00 01    BRK $01
PRG:06338: 32       .byte $32
PRG:06339: 33       .byte $33
PRG:0633A: 34 00    NOP $00
PRG:0633C: 00 01    BRK $01
PRG:0633E: 35 36    AND $36
PRG:06340: 37       .byte $37
PRG:06341: 3B       .byte $3B
PRG:06342: 3B       .byte $3B
PRG:06343: 3D 3E 3F AND $3F3E
PRG:06346: 40       RTI
PRG:06347: 3B       .byte $3B
PRG:06348: 3B       .byte $3B
PRG:06349: 3C 41 3C NOP $3C41
PRG:0634C: 3C 3B 3B NOP $3B3B
PRG:0634F: 3C 3C 3C NOP $3C3C
PRG:06352: 3C 0F 0F NOP $0F0F
PRG:06355: 0F       .byte $0F
PRG:06356: 0F       .byte $0F
PRG:06357: 6E 6F 0F ROR $0F6F
PRG:0635A: 0F       .byte $0F
PRG:0635B: 7E 7F 0F ROR $0F7F
PRG:0635E: 0F       .byte $0F
PRG:0635F: 0F       .byte $0F
PRG:06360: 0F       .byte $0F
PRG:06361: 0F       .byte $0F
PRG:06362: 0F       .byte $0F
PRG:06363: 0F       .byte $0F
PRG:06364: 0F       .byte $0F
PRG:06365: 2E 2F 0F ROL $0F2F
PRG:06368: 0F       .byte $0F
PRG:06369: 3E 3F 0F ROL $0F3F
PRG:0636C: 0F       .byte $0F
PRG:0636D: 4E 4F 5C LSR $5C4F
PRG:06370: 5D 5E 5F EOR $5F5E
PRG:06373: 0F       .byte $0F
PRG:06374: 07       .byte $07
PRG:06375: 01 02    ORA $02
PRG:06377: 0F       .byte $0F
PRG:06378: 17       .byte $17
PRG:06379: 18       CLC
PRG:0637A: 12       .byte $12
PRG:0637B: DB       .byte $DB
PRG:0637C: DB       .byte $DB
PRG:0637D: 28       PLP
PRG:0637E: 12       .byte $12
PRG:0637F: DB       .byte $DB
PRG:06380: DB       .byte $DB
PRG:06381: 38       SEC
PRG:06382: 32       .byte $32
PRG:06383: DB       .byte $DB
PRG:06384: 26 48    ROL $48
PRG:06386: 42       .byte $42
PRG:06387: 26 0F    ROL $0F
PRG:06389: 51 52    EOR $52
PRG:0638B: 0F       .byte $0F
PRG:0638C: 0F       .byte $0F
PRG:0638D: 51 52    EOR $52
PRG:0638F: 0F       .byte $0F
PRG:06390: 0F       .byte $0F
PRG:06391: 61 62    ADC $62
PRG:06393: 0F       .byte $0F
PRG:06394: 0F       .byte $0F
PRG:06395: 61 62    ADC $62
PRG:06397: 0F       .byte $0F
PRG:06398: 0F       .byte $0F
PRG:06399: 61 62    ADC $62
PRG:0639B: 0F       .byte $0F
PRG:0639C: 0F       .byte $0F
PRG:0639D: 71 72    ADC $72
PRG:0639F: 0F       .byte $0F
PRG:063A0: 0F       .byte $0F
PRG:063A1: 0F       .byte $0F
PRG:063A2: 0F       .byte $0F
PRG:063A3: 0F       .byte $0F
PRG:063A4: 0F       .byte $0F
PRG:063A5: 0F       .byte $0F
PRG:063A6: 0F       .byte $0F
PRG:063A7: 80 81    NOP $81
PRG:063A9: 80 81    NOP $81
PRG:063AB: 90 91    BCC $91
PRG:063AD: 90 91    BCC $91
PRG:063AF: A0 A1    LDY $A1
PRG:063B1: A0 A1    LDY $A1
PRG:063B3: B0 B1    BCS $B1
PRG:063B5: B0 B1    BCS $B1
PRG:063B7: C0 C1    CPY $C1
PRG:063B9: C0 C1    CPY $C1
PRG:063BB: 84 85    STY $85
PRG:063BD: 86 87    STX $87
PRG:063BF: 94 95    STY $95
PRG:063C1: 96 97    STX $97
PRG:063C3: A4 A5    LDY $A5
PRG:063C5: A6 A7    LDX $A7
PRG:063C7: B4 B5    LDY $B5
PRG:063C9: B6 B7    LDX $B7
PRG:063CB: C4 C5    CPY $C5
PRG:063CD: C6 C7    DEC $C7
PRG:063CF: 94 95    STY $95
PRG:063D1: 96 97    STX $97
PRG:063D3: 03       .byte $03
PRG:063D4: 00 01    BRK $01
PRG:063D6: 02       .byte $02
PRG:063D7: 13       .byte $13
PRG:063D8: 10 11    BPL $11
PRG:063DA: 12       .byte $12
PRG:063DB: 23       .byte $23
PRG:063DC: 20 21 12 JSR $1221
PRG:063DF: 33       .byte $33
PRG:063E0: 30 31    BMI $31
PRG:063E2: 32       .byte $32
PRG:063E3: 43       .byte $43
PRG:063E4: 40       RTI
PRG:063E5: 41 42    EOR $42
PRG:063E7: 53       .byte $53
PRG:063E8: 50 51    BVC $51
PRG:063EA: 52       .byte $52
PRG:063EB: 53       .byte $53
PRG:063EC: 50 61    BVC $61
PRG:063EE: 52       .byte $52
PRG:063EF: 63       .byte $63
PRG:063F0: 60       RTS
PRG:063F1: 61 52    ADC $52
PRG:063F3: 63       .byte $63
PRG:063F4: 60       RTS
PRG:063F5: 61 52    ADC $52
PRG:063F7: 63       .byte $63
PRG:063F8: 60       RTS
PRG:063F9: 71 72    ADC $72
PRG:063FB: 73       .byte $73
PRG:063FC: 0F       .byte $0F
PRG:063FD: 0F       .byte $0F
PRG:063FE: 0F       .byte $0F
PRG:063FF: 0F       .byte $0F
PRG:06400: 0F       .byte $0F
PRG:06401: 0F       .byte $0F
PRG:06402: 0F       .byte $0F
PRG:06403: 0A       ASL
PRG:06404: 0B       .byte $0B
PRG:06405: 0F       .byte $0F
PRG:06406: 07       .byte $07
PRG:06407: 1A       NOP
PRG:06408: 1B       .byte $1B
PRG:06409: 0F       .byte $0F
PRG:0640A: 17       .byte $17
PRG:0640B: 1A       NOP
PRG:0640C: 2B       .byte $2B
PRG:0640D: 0F       .byte $0F
PRG:0640E: 0F       .byte $0F
PRG:0640F: 69 3B    ADC $3B
PRG:06411: 0F       .byte $0F
PRG:06412: 0F       .byte $0F
PRG:06413: 53       .byte $53
PRG:06414: 13       .byte $13
PRG:06415: 1C DB 53 NOP $53DB
PRG:06418: 33       .byte $33
PRG:06419: 0F       .byte $0F
PRG:0641A: 0D 63 43 ORA $4363
PRG:0641D: 0F       .byte $0F
PRG:0641E: 0F       .byte $0F
PRG:0641F: 63       .byte $63
PRG:06420: 43       .byte $43
PRG:06421: 0F       .byte $0F
PRG:06422: 0F       .byte $0F
PRG:06423: 63       .byte $63
PRG:06424: 43       .byte $43
PRG:06425: 0F       .byte $0F
PRG:06426: 0F       .byte $0F
PRG:06427: 73       .byte $73
PRG:06428: 73       .byte $73
PRG:06429: 0F       .byte $0F
PRG:0642A: 0F       .byte $0F
PRG:0642B: 0F       .byte $0F
PRG:0642C: 0F       .byte $0F
PRG:0642D: 0F       .byte $0F
PRG:0642E: 0F       .byte $0F
PRG:0642F: 0F       .byte $0F
PRG:06430: 0F       .byte $0F
PRG:06431: 0F       .byte $0F
PRG:06432: 0F       .byte $0F
PRG:06433: 01 09    ORA $09
PRG:06435: 0A       ASL
PRG:06436: 0B       .byte $0B
PRG:06437: 18       CLC
PRG:06438: 12       .byte $12
PRG:06439: 1A       NOP
PRG:0643A: 1B       .byte $1B
PRG:0643B: 28       PLP
PRG:0643C: 12       .byte $12
PRG:0643D: 1A       NOP
PRG:0643E: 2B       .byte $2B
PRG:0643F: 38       SEC
PRG:06440: 32       .byte $32
PRG:06441: DB       .byte $DB
PRG:06442: 3B       .byte $3B
PRG:06443: 48       PHA
PRG:06444: 42       .byte $42
PRG:06445: 69 13    ADC $13
PRG:06447: 51 42    EOR $42
PRG:06449: 69 33    ADC $33
PRG:0644B: 61 52    ADC $52
PRG:0644D: 53       .byte $53
PRG:0644E: 43       .byte $43
PRG:0644F: 61 52    ADC $52
PRG:06451: 53       .byte $53
PRG:06452: 43       .byte $43
PRG:06453: 61 52    ADC $52
PRG:06455: 53       .byte $53
PRG:06456: 43       .byte $43
PRG:06457: 61 52    ADC $52
PRG:06459: 53       .byte $53
PRG:0645A: 43       .byte $43
PRG:0645B: 78       SEI
PRG:0645C: 79 73 73 ADC $7373
PRG:0645F: 0F       .byte $0F
PRG:06460: 0F       .byte $0F
PRG:06461: 0F       .byte $0F
PRG:06462: 0F       .byte $0F
PRG:06463: 0F       .byte $0F
PRG:06464: 0F       .byte $0F
PRG:06465: 0F       .byte $0F
PRG:06466: FF       .byte $FF
PRG:06467: 0F       .byte $0F
PRG:06468: 0F       .byte $0F
PRG:06469: 9E       .byte $9E
PRG:0646A: 9F       .byte $9F
PRG:0646B: 0F       .byte $0F
PRG:0646C: 0F       .byte $0F
PRG:0646D: AE AF 0F LDX $0FAF
PRG:06470: 0F       .byte $0F
PRG:06471: BE BF 0F LDX $0FBF
PRG:06474: 0F       .byte $0F
PRG:06475: 0F       .byte $0F
PRG:06476: CF       .byte $CF
PRG:06477: 0F       .byte $0F
PRG:06478: 0F       .byte $0F
PRG:06479: DE DF 0F DEC $0FDF
PRG:0647C: ED EE DB SBC $DBEE
PRG:0647F: 5C FD FE NOP $FEFD
PRG:06482: DB       .byte $DB
PRG:06483: DB       .byte $DB
PRG:06484: DB       .byte $DB
PRG:06485: DB       .byte $DB
PRG:06486: DB       .byte $DB
PRG:06487: DB       .byte $DB
PRG:06488: DB       .byte $DB
PRG:06489: DB       .byte $DB
PRG:0648A: DB       .byte $DB
PRG:0648B: DB       .byte $DB
PRG:0648C: DB       .byte $DB
PRG:0648D: DB       .byte $DB
PRG:0648E: DB       .byte $DB
PRG:0648F: DB       .byte $DB
PRG:06490: DB       .byte $DB
PRG:06491: DB       .byte $DB
PRG:06492: DB       .byte $DB
PRG:06493: DB       .byte $DB
PRG:06494: DB       .byte $DB
PRG:06495: DB       .byte $DB
PRG:06496: DB       .byte $DB
PRG:06497: 0D DB DB ORA $DBDB
PRG:0649A: DB       .byte $DB
PRG:0649B: 0F       .byte $0F
PRG:0649C: F8       SED
PRG:0649D: DB       .byte $DB
PRG:0649E: DB       .byte $DB
PRG:0649F: 0F       .byte $0F
PRG:064A0: 0F       .byte $0F
PRG:064A1: 1C DB 0F NOP $0FDB
PRG:064A4: 0F       .byte $0F
PRG:064A5: 0F       .byte $0F
PRG:064A6: 1C 80 81 NOP $8180
PRG:064A9: 80 81    NOP $81
PRG:064AB: 90 91    BCC $91
PRG:064AD: 90 91    BCC $91
PRG:064AF: A0 A1    LDY $A1
PRG:064B1: A0 A1    LDY $A1
PRG:064B3: DB       .byte $DB
PRG:064B4: DB       .byte $DB
PRG:064B5: DB       .byte $DB
PRG:064B6: DB       .byte $DB
PRG:064B7: FB       .byte $FB
PRG:064B8: FC FB FC NOP $FCFB
PRG:064BB: 90 91    BCC $91
PRG:064BD: 90 91    BCC $91
PRG:064BF: A0 A1    LDY $A1
PRG:064C1: A0 A1    LDY $A1
PRG:064C3: 73       .byte $73
PRG:064C4: 0F       .byte $0F
PRG:064C5: 0F       .byte $0F
PRG:064C6: 0F       .byte $0F
PRG:064C7: 80 81    NOP $81
PRG:064C9: 80 81    NOP $81
PRG:064CB: 90 91    BCC $91
PRG:064CD: 90 91    BCC $91
PRG:064CF: A0 A1    LDY $A1
PRG:064D1: A0 A1    LDY $A1
PRG:064D3: DB       .byte $DB
PRG:064D4: DB       .byte $DB
PRG:064D5: DB       .byte $DB
PRG:064D6: DB       .byte $DB
PRG:064D7: DB       .byte $DB
PRG:064D8: DB       .byte $DB
PRG:064D9: DB       .byte $DB
PRG:064DA: DB       .byte $DB
PRG:064DB: DB       .byte $DB
PRG:064DC: DB       .byte $DB
PRG:064DD: DB       .byte $DB
PRG:064DE: DB       .byte $DB
PRG:064DF: DB       .byte $DB
PRG:064E0: F1 26    SBC $26
PRG:064E2: 27       .byte $27
PRG:064E3: 0F       .byte $0F
PRG:064E4: 0F       .byte $0F
PRG:064E5: 0F       .byte $0F
PRG:064E6: 0F       .byte $0F
PRG:064E7: E1 E2    SBC $E2
PRG:064E9: 0F       .byte $0F
PRG:064EA: 0F       .byte $0F
PRG:064EB: 7A       NOP
PRG:064EC: 2D 1E 0E AND $0E1E
PRG:064EF: F9 FA 0F SBC $0FFA
PRG:064F2: 0F       .byte $0F
PRG:064F3: F2       .byte $F2
PRG:064F4: F3       .byte $F3
PRG:064F5: 0F       .byte $0F
PRG:064F6: 0F       .byte $0F
PRG:064F7: 19 2A 0F ORA $0F2A
PRG:064FA: 0F       .byte $0F
PRG:064FB: 74 75    NOP $75
PRG:064FD: 0F       .byte $0F
PRG:064FE: 0F       .byte $0F
PRG:064FF: F9 FA 0F SBC $0FFA
PRG:06502: 0F       .byte $0F
PRG:06503: 7A       NOP
PRG:06504: 75 0F    ADC $0F
PRG:06506: 0F       .byte $0F
PRG:06507: 19 2A 0F ORA $0F2A
PRG:0650A: 0F       .byte $0F
PRG:0650B: E3       .byte $E3
PRG:0650C: E4 DB    CPX $DB
PRG:0650E: DB       .byte $DB
PRG:0650F: E1 E2    SBC $E2
PRG:06511: 27       .byte $27
PRG:06512: F4 0F    NOP $0F
PRG:06514: 0F       .byte $0F
PRG:06515: 0F       .byte $0F
PRG:06516: 0F       .byte $0F
PRG:06517: 0F       .byte $0F
PRG:06518: 0F       .byte $0F
PRG:06519: 0F       .byte $0F
PRG:0651A: 0F       .byte $0F
PRG:0651B: 0F       .byte $0F
PRG:0651C: 0F       .byte $0F
PRG:0651D: 08       PHP
PRG:0651E: 1E 0F 0F ASL $0F0F
PRG:06521: 0F       .byte $0F
PRG:06522: 0F       .byte $0F
PRG:06523: DB       .byte $DB
PRG:06524: DB       .byte $DB
PRG:06525: DB       .byte $DB
PRG:06526: DB       .byte $DB
PRG:06527: DB       .byte $DB
PRG:06528: DB       .byte $DB
PRG:06529: DB       .byte $DB
PRG:0652A: DB       .byte $DB
PRG:0652B: DB       .byte $DB
PRG:0652C: DB       .byte $DB
PRG:0652D: DB       .byte $DB
PRG:0652E: DB       .byte $DB
PRG:0652F: 27       .byte $27
PRG:06530: F4 27    NOP $27
PRG:06532: F4 DB    NOP $DB
PRG:06534: DB       .byte $DB
PRG:06535: DB       .byte $DB
PRG:06536: DB       .byte $DB
PRG:06537: DB       .byte $DB
PRG:06538: DB       .byte $DB
PRG:06539: DB       .byte $DB
PRG:0653A: DB       .byte $DB
PRG:0653B: DB       .byte $DB
PRG:0653C: DB       .byte $DB
PRG:0653D: DB       .byte $DB
PRG:0653E: DB       .byte $DB
PRG:0653F: F5 F6    SBC $F6
PRG:06541: F7       .byte $F7
PRG:06542: DB       .byte $DB
PRG:06543: DB       .byte $DB
PRG:06544: D0 48    BNE $48
PRG:06546: 42       .byte $42
PRG:06547: D0 0F    BNE $0F
PRG:06549: 51 52    EOR $52
PRG:0654B: 0F       .byte $0F
PRG:0654C: 0F       .byte $0F
PRG:0654D: 51 52    EOR $52
PRG:0654F: 0F       .byte $0F
PRG:06550: 0F       .byte $0F
PRG:06551: 61 62    ADC $62
PRG:06553: DB       .byte $DB
PRG:06554: DB       .byte $DB
PRG:06555: DB       .byte $DB
PRG:06556: DB       .byte $DB
PRG:06557: DB       .byte $DB
PRG:06558: DB       .byte $DB
PRG:06559: DB       .byte $DB
PRG:0655A: DB       .byte $DB
PRG:0655B: 88       DEY
PRG:0655C: 89       .byte $89
PRG:0655D: 8A       TXA
PRG:0655E: 8B       .byte $8B
PRG:0655F: 98       TYA
PRG:06560: 99 9A 9B STA $9B9A
PRG:06563: A8       TAY
PRG:06564: A9 AA    LDA $AA
PRG:06566: AB       .byte $AB
PRG:06567: B8       CLV
PRG:06568: B9 BA BB LDA $BBBA
PRG:0656B: C8       INY
PRG:0656C: C9 CA    CMP $CA
PRG:0656E: CB       .byte $CB
PRG:0656F: F0 F0    BEQ $F0
PRG:06571: F0 8C    BEQ $8C
PRG:06573: 84 85    STY $85
PRG:06575: 86 9C    STX $9C
PRG:06577: 94 95    STY $95
PRG:06579: 96 AC    STX $AC
PRG:0657B: A4 A5    LDY $A5
PRG:0657D: A6 BC    LDX $BC
PRG:0657F: B4 B5    LDY $B5
PRG:06581: B6 8C    LDX $8C
PRG:06583: C4 C5    CPY $C5
PRG:06585: C6 9C    DEC $9C
PRG:06587: 94 95    STY $95
PRG:06589: 96 AC    STX $AC
PRG:0658B: A4 A5    LDY $A5
PRG:0658D: A6 BC    LDX $BC
PRG:0658F: B4 B5    LDY $B5
PRG:06591: B6 8C    LDX $8C
PRG:06593: DB       .byte $DB
PRG:06594: DB       .byte $DB
PRG:06595: DB       .byte $DB
PRG:06596: DB       .byte $DB
PRG:06597: 88       DEY
PRG:06598: 89       .byte $89
PRG:06599: 8A       TXA
PRG:0659A: 8B       .byte $8B
PRG:0659B: 98       TYA
PRG:0659C: 99 9A 9B STA $9B9A
PRG:0659F: A8       TAY
PRG:065A0: A9 AA    LDA $AA
PRG:065A2: AB       .byte $AB
PRG:065A3: B8       CLV
PRG:065A4: B9 BA BB LDA $BBBA
PRG:065A7: C8       INY
PRG:065A8: C9 CA    CMP $CA
PRG:065AA: CB       .byte $CB
PRG:065AB: F0 F0    BEQ $F0
PRG:065AD: F0 8C    BEQ $8C
PRG:065AF: 84 85    STY $85
PRG:065B1: 86 9C    STX $9C
PRG:065B3: 94 95    STY $95
PRG:065B5: 96 AC    STX $AC
PRG:065B7: A4 A5    LDY $A5
PRG:065B9: A6 BC    LDX $BC
PRG:065BB: B4 B5    LDY $B5
PRG:065BD: B6 8C    LDX $8C
PRG:065BF: C4 C5    CPY $C5
PRG:065C1: C6 9C    DEC $9C
PRG:065C3: 94 95    STY $95
PRG:065C5: 96 AC    STX $AC
PRG:065C7: A4 A5    LDY $A5
PRG:065C9: A6 BC    LDX $BC
PRG:065CB: B4 B5    LDY $B5
PRG:065CD: B6 8C    LDX $8C
PRG:065CF: C4 C5    CPY $C5
PRG:065D1: C6 9C    DEC $9C
PRG:065D3: 82       .byte $82
PRG:065D4: 83       .byte $83
PRG:065D5: 36 37    ROL $37
PRG:065D7: 92       .byte $92
PRG:065D8: 93       .byte $93
PRG:065D9: 46 47    LSR $47
PRG:065DB: A2 A3    LDX $A3
PRG:065DD: 56 57    LSR $57
PRG:065DF: B2       .byte $B2
PRG:065E0: B3       .byte $B3
PRG:065E1: 66 67    ROR $67
PRG:065E3: D4 D5    NOP $D5
PRG:065E5: D6 D7    DEC $D7
PRG:065E7: 84 E0    STY $E0
PRG:065E9: E0 E0    CPX $E0
PRG:065EB: 94 85    STY $85
PRG:065ED: 86 87    STX $87
PRG:065EF: A4 95    LDY $95
PRG:065F1: 96 97    STX $97
PRG:065F3: B4 A5    LDY $A5
PRG:065F5: A6 A7    LDX $A7
PRG:065F7: C4 B5    CPY $B5
PRG:065F9: B6 B7    LDX $B7
PRG:065FB: 94 C5    STY $C5
PRG:065FD: C6 C7    DEC $C7
PRG:065FF: A4 95    LDY $95
PRG:06601: 96 97    STX $97
PRG:06603: DB       .byte $DB
PRG:06604: DB       .byte $DB
PRG:06605: DB       .byte $DB
PRG:06606: DB       .byte $DB
PRG:06607: DB       .byte $DB
PRG:06608: DB       .byte $DB
PRG:06609: DB       .byte $DB
PRG:0660A: DB       .byte $DB
PRG:0660B: DB       .byte $DB
PRG:0660C: DB       .byte $DB
PRG:0660D: DB       .byte $DB
PRG:0660E: DB       .byte $DB
PRG:0660F: 82       .byte $82
PRG:06610: 83       .byte $83
PRG:06611: 36 37    ROL $37
PRG:06613: DB       .byte $DB
PRG:06614: DB       .byte $DB
PRG:06615: DB       .byte $DB
PRG:06616: DB       .byte $DB
PRG:06617: 6D DB DB ADC $DBDB
PRG:0661A: DB       .byte $DB
PRG:0661B: 7D 0F 0F ADC $0F0F
PRG:0661E: 0F       .byte $0F
PRG:0661F: 8D 0F 0F STA $0F0F
PRG:06622: 0F       .byte $0F
PRG:06623: 9D 0F 0F STA $0F0F
PRG:06626: 0F       .byte $0F
PRG:06627: 9D 0F 0F STA $0F0F
PRG:0662A: 0F       .byte $0F
PRG:0662B: BD 0F 0F LDA $0F0F
PRG:0662E: 0F       .byte $0F
PRG:0662F: BD 0F 0F LDA $0F0F
PRG:06632: 0F       .byte $0F
PRG:06633: DD 0F 0F CMP $0F0F
PRG:06636: 0F       .byte $0F
PRG:06637: 9D 0F 0F STA $0F0F
PRG:0663A: 0F       .byte $0F
PRG:0663B: BD 0F 0F LDA $0F0F
PRG:0663E: 0F       .byte $0F
PRG:0663F: BD 0F 0F LDA $0F0F
PRG:06642: 0F       .byte $0F
PRG:06643: DB       .byte $DB
PRG:06644: DB       .byte $DB
PRG:06645: DB       .byte $DB
PRG:06646: DB       .byte $DB
PRG:06647: DB       .byte $DB
PRG:06648: E5 FB    SBC $FB
PRG:0664A: FC 0F E6 NOP $E60F
PRG:0664D: 90 91    BCC $91
PRG:0664F: 0F       .byte $0F
PRG:06650: E7       .byte $E7
PRG:06651: A0 A1    LDY $A1
PRG:06653: 0F       .byte $0F
PRG:06654: E8       INX
PRG:06655: B0 B1    BCS $B1
PRG:06657: 0F       .byte $0F
PRG:06658: E9 C0    SBC $C0
PRG:0665A: C1 0F    CMP $0F
PRG:0665C: EA       NOP
PRG:0665D: 86 87    STX $87
PRG:0665F: 0F       .byte $0F
PRG:06660: EB       .byte $EB
PRG:06661: 96 97    STX $97
PRG:06663: 0F       .byte $0F
PRG:06664: EC A6 A7 CPX $A7A6
PRG:06667: 0F       .byte $0F
PRG:06668: ED B6 B7 SBC $B7B6
PRG:0666B: 0F       .byte $0F
PRG:0666C: EA       NOP
PRG:0666D: C6 C7    DEC $C7
PRG:0666F: 0F       .byte $0F
PRG:06670: EB       .byte $EB
PRG:06671: 96 97    STX $97
PRG:06673: 0A       ASL
PRG:06674: 0B       .byte $0B
PRG:06675: 04 05    NOP $05
PRG:06677: 1A       NOP
PRG:06678: 1B       .byte $1B
PRG:06679: 14 15    NOP $15
PRG:0667B: 1A       NOP
PRG:0667C: 2B       .byte $2B
PRG:0667D: 24 25    BIT $25
PRG:0667F: DB       .byte $DB
PRG:06680: 3B       .byte $3B
PRG:06681: 34 25    NOP $25
PRG:06683: 69 13    ADC $13
PRG:06685: 44 45    NOP $45
PRG:06687: 53       .byte $53
PRG:06688: 33       .byte $33
PRG:06689: 54 55    NOP $55
PRG:0668B: 53       .byte $53
PRG:0668C: 43       .byte $43
PRG:0668D: 0F       .byte $0F
PRG:0668E: 0F       .byte $0F
PRG:0668F: 53       .byte $53
PRG:06690: 43       .byte $43
PRG:06691: 0F       .byte $0F
PRG:06692: 0F       .byte $0F
PRG:06693: 53       .byte $53
PRG:06694: 43       .byte $43
PRG:06695: 0F       .byte $0F
PRG:06696: 0F       .byte $0F
PRG:06697: 72       .byte $72
PRG:06698: 73       .byte $73
PRG:06699: 0F       .byte $0F
PRG:0669A: 0F       .byte $0F
PRG:0669B: 0F       .byte $0F
PRG:0669C: 0F       .byte $0F
PRG:0669D: 0F       .byte $0F
PRG:0669E: 0F       .byte $0F
PRG:0669F: 0F       .byte $0F
PRG:066A0: 0F       .byte $0F
PRG:066A1: 0F       .byte $0F
PRG:066A2: 0F       .byte $0F
PRG:066A3: D1 09    CMP $09
PRG:066A5: 0A       ASL
PRG:066A6: 0B       .byte $0B
PRG:066A7: 28       PLP
PRG:066A8: 12       .byte $12
PRG:066A9: 1A       NOP
PRG:066AA: 1B       .byte $1B
PRG:066AB: 28       PLP
PRG:066AC: 12       .byte $12
PRG:066AD: 1A       NOP
PRG:066AE: 2B       .byte $2B
PRG:066AF: 38       SEC
PRG:066B0: 12       .byte $12
PRG:066B1: 1A       NOP
PRG:066B2: 3B       .byte $3B
PRG:066B3: 48       PHA
PRG:066B4: 32       .byte $32
PRG:066B5: 69 13    ADC $13
PRG:066B7: 51 42    EOR $42
PRG:066B9: 69 33    ADC $33
PRG:066BB: 61 52    ADC $52
PRG:066BD: 53       .byte $53
PRG:066BE: 43       .byte $43
PRG:066BF: 61 52    ADC $52
PRG:066C1: 53       .byte $53
PRG:066C2: 43       .byte $43
PRG:066C3: 61 52    ADC $52
PRG:066C5: 53       .byte $53
PRG:066C6: 43       .byte $43
PRG:066C7: 61 52    ADC $52
PRG:066C9: 53       .byte $53
PRG:066CA: 43       .byte $43
PRG:066CB: 78       SEI
PRG:066CC: 79 73 73 ADC $7373
PRG:066CF: 0F       .byte $0F
PRG:066D0: 0F       .byte $0F
PRG:066D1: 0F       .byte $0F
PRG:066D2: 0F       .byte $0F
PRG:066D3: 92       .byte $92
PRG:066D4: 93       .byte $93
PRG:066D5: 46 47    LSR $47
PRG:066D7: A2 A3    LDX $A3
PRG:066D9: 56 57    LSR $57
PRG:066DB: B2       .byte $B2
PRG:066DC: B3       .byte $B3
PRG:066DD: 66 67    ROR $67
PRG:066DF: D4 D5    NOP $D5
PRG:066E1: D6 D7    DEC $D7
PRG:066E3: 84 E0    STY $E0
PRG:066E5: E0 E0    CPX $E0
PRG:066E7: 94 85    STY $85
PRG:066E9: 86 87    STX $87
PRG:066EB: A4 95    LDY $95
PRG:066ED: 96 97    STX $97
PRG:066EF: B4 A5    LDY $A5
PRG:066F1: A6 A7    LDX $A7
PRG:066F3: C4 B5    CPY $B5
PRG:066F5: B6 B7    LDX $B7
PRG:066F7: 94 C5    STY $C5
PRG:066F9: C6 C7    DEC $C7
PRG:066FB: A4 95    LDY $95
PRG:066FD: 96 97    STX $97
PRG:066FF: B4 A5    LDY $A5
PRG:06701: A6 A7    LDX $A7
PRG:06703: 00 01    BRK $01
PRG:06705: 00 01    BRK $01
PRG:06707: 10 11    BPL $11
PRG:06709: 10 11    BPL $11
PRG:0670B: 00 01    BRK $01
PRG:0670D: 00 01    BRK $01
PRG:0670F: 10 11    BPL $11
PRG:06711: 10 11    BPL $11
PRG:06713: 04 05    NOP $05
PRG:06715: 04 05    NOP $05
PRG:06717: 05 04    ORA $04
PRG:06719: 05 04    ORA $04
PRG:0671B: 04 05    NOP $05
PRG:0671D: 04 05    NOP $05
PRG:0671F: 05 04    ORA $04
PRG:06721: 05 04    ORA $04
PRG:06723: 08       PHP
PRG:06724: 09 0A    ORA $0A
PRG:06726: 0B       .byte $0B
PRG:06727: 18       CLC
PRG:06728: 19 1A 1B ORA $1B1A
PRG:0672B: 28       PLP
PRG:0672C: 29 2A    AND $2A
PRG:0672E: 2B       .byte $2B
PRG:0672F: 38       SEC
PRG:06730: 39 3A 3B AND $3B3A
PRG:06733: 48       PHA
PRG:06734: 49 4A    EOR $4A
PRG:06736: 4B       .byte $4B
PRG:06737: 58       CLI
PRG:06738: 59 5A 5B EOR $5B5A
PRG:0673B: 68       PLA
PRG:0673C: 59 5A 6B EOR $6B5A
PRG:0673F: 58       CLI
PRG:06740: 59 5A 5B EOR $5B5A
PRG:06743: 68       PLA
PRG:06744: 59 5A 6B EOR $6B5A
PRG:06747: 58       CLI
PRG:06748: 59 5A 5B EOR $5B5A
PRG:0674B: 68       PLA
PRG:0674C: 59 5A 6B EOR $6B5A
PRG:0674F: 58       CLI
PRG:06750: 59 5A 5B EOR $5B5A
PRG:06753: 68       PLA
PRG:06754: 59 5A 6B EOR $6B5A
PRG:06757: 58       CLI
PRG:06758: 59 5A 5B EOR $5B5A
PRG:0675B: 68       PLA
PRG:0675C: 59 5A 6B EOR $6B5A
PRG:0675F: 78       SEI
PRG:06760: 79 7A 7B ADC $7B7A
PRG:06763: 0C 0D 0E NOP $0E0D
PRG:06766: 98       TYA
PRG:06767: 1C 1D 1E NOP $1E1D
PRG:0676A: 1F       .byte $1F
PRG:0676B: 2C 2D 2E BIT $2E2D
PRG:0676E: 2F       .byte $2F
PRG:0676F: 3C 3D 3E NOP $3E3D
PRG:06772: 3F       .byte $3F
PRG:06773: 89       .byte $89
PRG:06774: 89       .byte $89
PRG:06775: 89       .byte $89
PRG:06776: 89       .byte $89
PRG:06777: 14 15    NOP $15
PRG:06779: 14 15    NOP $15
PRG:0677B: 15 14    ORA $14
PRG:0677D: 15 14    ORA $14
PRG:0677F: 14 15    NOP $15
PRG:06781: 14 15    NOP $15
PRG:06783: 15 14    ORA $14
PRG:06785: 15 14    ORA $14
PRG:06787: 14 15    NOP $15
PRG:06789: 14 15    NOP $15
PRG:0678B: 15 14    ORA $14
PRG:0678D: 15 14    ORA $14
PRG:0678F: 14 15    NOP $15
PRG:06791: 14 15    NOP $15
PRG:06793: 00 00    BRK $00
PRG:06795: 45 AB    EOR $AB
PRG:06797: AA       TAX
PRG:06798: AA       TAX
PRG:06799: AA       TAX
PRG:0679A: AA       TAX
PRG:0679B: 55 AA    EOR $AA
PRG:0679D: AA       TAX
PRG:0679E: 55 AE    EOR $AE
PRG:067A0: AA       TAX
PRG:067A1: 55 55    EOR $55
PRG:067A3: AA       TAX
PRG:067A4: 00 00    BRK $00
PRG:067A6: 00 FF    BRK $FF
PRG:067A8: AF       .byte $AF
PRG:067A9: AF       .byte $AF
PRG:067AA: AF       .byte $AF
PRG:067AB: FF       .byte $FF
PRG:067AC: 55 55    EOR $55
PRG:067AE: D5 55    CMP $55
PRG:067B0: F0 F0    BEQ $F0
PRG:067B2: AB       .byte $AB
PRG:067B3: FF       .byte $FF
PRG:067B4: AA       TAX
PRG:067B5: 55 55    EOR $55
PRG:067B7: AF       .byte $AF
PRG:067B8: AA       TAX
PRG:067B9: 55 55    EOR $55
PRG:067BB: AF       .byte $AF
PRG:067BC: AA       TAX
PRG:067BD: 55 FF    EOR $FF
PRG:067BF: 53       .byte $53
PRG:067C0: 55 55    EOR $55
PRG:067C2: 9F       .byte $9F
PRG:067C3: 99 55 55 STA $5555
PRG:067C6: AA       TAX
PRG:067C7: AA       TAX
PRG:067C8: 55 55    EOR $55
PRG:067CA: AA       TAX
PRG:067CB: AA       TAX
PRG:067CC: AA       TAX
PRG:067CD: 55 AA    EOR $AA
PRG:067CF: FF       .byte $FF
PRG:067D0: FF       .byte $FF
PRG:067D1: FF       .byte $FF
PRG:067D2: FF       .byte $FF
PRG:067D3: FF       .byte $FF
PRG:067D4: FF       .byte $FF
PRG:067D5: AA       TAX
PRG:067D6: AA       TAX
PRG:067D7: 00 00    BRK $00
PRG:067D9: 00 00    BRK $00
PRG:067DB: 00 01    BRK $01
PRG:067DD: 08       PHP
PRG:067DE: 20 83 10 JSR $1083
PRG:067E1: 41 04    EOR $04
PRG:067E3: 14 51    NOP $51
PRG:067E5: 45 18    EOR $18
PRG:067E7: 61 86    ADC $86
PRG:067E9: 1C 71 C7 NOP $C771
PRG:067EC: 20 91 C7 JSR $C791
PRG:067EF: 1C A2 C7 NOP $C7A2
PRG:067F2: 20 92 09 JSR $0992
PRG:067F5: 30 20    BMI $20
PRG:067F7: 82       .byte $82
PRG:067F8: 34 00    NOP $00
PRG:067FA: 00 38    BRK $38
PRG:067FC: E1 C7    SBC $C7
PRG:067FE: 38       SEC
PRG:067FF: E3       .byte $E3
PRG:06800: 87       .byte $87
PRG:06801: 38       SEC
PRG:06802: E3       .byte $E3
PRG:06803: 8E 38 F2 STX $F238
PRG:06806: 47       .byte $47
PRG:06807: 45 14    EOR $14
PRG:06809: 51 41    EOR $41
PRG:0680B: 04 10    NOP $10
PRG:0680D: 41 04    EOR $04
PRG:0680F: 51 49    EOR $49
PRG:06811: 24 92    BIT $92
PRG:06813: 45 14    EOR $14
PRG:06815: 53       .byte $53
PRG:06816: 8A       TXA
PRG:06817: 28       PLP
PRG:06818: A2 4D    LDX $4D
PRG:0681A: 14 51    NOP $51
PRG:0681C: 50 41    BVC $41
PRG:0681E: 04 10    NOP $10
PRG:06820: 41 14    EOR $14
PRG:06822: 04 20    NOP $20
PRG:06824: 9D 74 00 STA $0074
PRG:06827: 01 74    ORA $74
PRG:06829: 00 00    BRK $00
PRG:0682B: 55 65    EOR $65
PRG:0682D: 96 59    STX $59
PRG:0682F: 65 96    ADC $96
PRG:06831: 59 65 97 EOR $9765
PRG:06834: 61 96    ADC $96
PRG:06836: 98       TYA
PRG:06837: 55 65    EOR $65
PRG:06839: 97       .byte $97
PRG:0683A: 61 86    ADC $86
PRG:0683C: 18       CLC
PRG:0683D: 55 B7    EOR $B7
PRG:0683F: 16 59    ASL $59
PRG:06841: B7       .byte $B7
PRG:06842: 16 5D    ASL $5D
PRG:06844: 86 15    STX $15
PRG:06846: 59 B7 17 EOR $17B7
PRG:06849: 5D 96 95 EOR $9596
PRG:0684C: 59 E7 DF EOR $DFE7
PRG:0684F: 7D F7 DF ADC $DFF7
PRG:06852: 81 F7    STA $F7
PRG:06854: DF       .byte $DF
PRG:06855: 7D F8 56 ADC $56F8
PRG:06858: 08       PHP
PRG:06859: 20 82 06 JSR $0682
PRG:0685C: 07       .byte $07
PRG:0685D: 07       .byte $07
PRG:0685E: 07       .byte $07
PRG:0685F: 07       .byte $07
PRG:06860: 08       PHP
PRG:06861: 09 09    ORA $09
PRG:06863: 09 09    ORA $09
PRG:06865: 0A       ASL
PRG:06866: 0A       ASL
PRG:06867: 0A       ASL
PRG:06868: 0A       ASL
PRG:06869: 0A       ASL
PRG:0686A: 0C 0D 0D NOP $0D0D
PRG:0686D: 0D 0D 0B ORA $0B0D
PRG:06870: 0B       .byte $0B
PRG:06871: 0B       .byte $0B
PRG:06872: 0B       .byte $0B
PRG:06873: 0B       .byte $0B
PRG:06874: 0E 0E 0E ASL $0E0E
PRG:06877: 0E 0E 10 ASL $100E
PRG:0687A: 10 10    BPL $10
PRG:0687C: 10 10    BPL $10
PRG:0687E: 24 24    BIT $24
PRG:06880: 24 24    BIT $24
PRG:06882: 24 0C    BIT $0C
PRG:06884: 0D 0D 0D ORA $0D0D
PRG:06887: 0D 24 24 ORA $2424
PRG:0688A: 24 0C    BIT $0C
PRG:0688C: 0D 25 26 ORA $2625
PRG:0688F: 26 26    ROL $26
PRG:06891: 26 21    ROL $21
PRG:06893: 21 21    AND $21
PRG:06895: 21 21    AND $21
PRG:06897: 0D 0D 0D ORA $0D0D
PRG:0689A: 0D 0D 00 ORA $000D
PRG:0689D: 01 02    ORA $02
PRG:0689F: 03       .byte $03
PRG:068A0: 04 05    NOP $05
PRG:068A2: 00 01    BRK $01
PRG:068A4: 1D 1E 04 ORA $041E
PRG:068A7: 05 0B    ORA $0B
PRG:068A9: 0B       .byte $0B
PRG:068AA: 0B       .byte $0B
PRG:068AB: 0B       .byte $0B
PRG:068AC: 0B       .byte $0B
PRG:068AD: 0B       .byte $0B
PRG:068AE: 0E 0E 0F ASL $0F0E
PRG:068B1: 10 10    BPL $10
PRG:068B3: 10 0E    BPL $0E
PRG:068B5: 0E 0F 11 ASL $110F
PRG:068B8: 12       .byte $12
PRG:068B9: 13       .byte $13
PRG:068BA: 0E 0E 0F ASL $0F0E
PRG:068BD: 14 15    NOP $15
PRG:068BF: 16 0E    ASL $0E
PRG:068C1: 0E 0F 17 ASL $170F
PRG:068C4: 18       CLC
PRG:068C5: 19 0E 0E ORA $0E0E
PRG:068C8: 0F       .byte $0F
PRG:068C9: 1A       NOP
PRG:068CA: 1B       .byte $1B
PRG:068CB: 1C 00 01 NOP $0100
PRG:068CE: 1F       .byte $1F
PRG:068CF: 20 04 05 JSR $0504
PRG:068D2: 24 24    BIT $24
PRG:068D4: 24 24    BIT $24
PRG:068D6: 24 24    BIT $24
PRG:068D8: 24 24    BIT $24
PRG:068DA: 24 24    BIT $24
PRG:068DC: 24 0C    BIT $0C
PRG:068DE: 21 21    AND $21
PRG:068E0: 21 21    AND $21
PRG:068E2: 21 21    AND $21
PRG:068E4: 22       .byte $22
PRG:068E5: 22       .byte $22
PRG:068E6: 22       .byte $22
PRG:068E7: 22       .byte $22
PRG:068E8: 22       .byte $22
PRG:068E9: 22       .byte $22
PRG:068EA: 23       .byte $23
PRG:068EB: 23       .byte $23
PRG:068EC: 23       .byte $23
PRG:068ED: 23       .byte $23
PRG:068EE: 23       .byte $23
PRG:068EF: 23       .byte $23
PRG:068F0: 28       PLP
PRG:068F1: 28       PLP
PRG:068F2: 28       PLP
PRG:068F3: 28       PLP
PRG:068F4: 28       PLP
PRG:068F5: 28       PLP
PRG:068F6: 27       .byte $27
PRG:068F7: 27       .byte $27
PRG:068F8: 27       .byte $27
PRG:068F9: 27       .byte $27
PRG:068FA: 27       .byte $27
PRG:068FB: 27       .byte $27
PRG:068FC: 00 00    BRK $00
PRG:068FE: 00 01    BRK $01
PRG:06900: 00 02    BRK $02
PRG:06902: 01 02    ORA $02
PRG:06904: 02       .byte $02
PRG:06905: 03       .byte $03
PRG:06906: 02       .byte $02
PRG:06907: 04 02    NOP $02
PRG:06909: 05 03    ORA $03
PRG:0690B: 05 04    ORA $04
PRG:0690D: 05 05    ORA $05
PRG:0690F: 05 06    ORA $06
PRG:06911: 05 07    ORA $07
PRG:06913: 05 08    ORA $08
PRG:06915: 02       .byte $02
PRG:06916: 00 03    BRK $03
PRG:06918: 03       .byte $03
PRG:06919: 06 04    ASL $04
PRG:0691B: 06 09    ASL $09
PRG:0691D: 07       .byte $07
PRG:0691E: 09 03    ORA $03
PRG:06920: 0A       ASL
PRG:06921: 0C 09 08 NOP $0809
PRG:06924: 02       .byte $02
PRG:06925: 08       PHP
PRG:06926: 0B       .byte $0B
PRG:06927: 0A       ASL
PRG:06928: 0B       .byte $0B
PRG:06929: 00 0B    BRK $0B
PRG:0692B: 01 0B    ORA $0B
PRG:0692D: 0B       .byte $0B
PRG:0692E: 0C 0B 0D NOP $0D0B
PRG:06931: 0B       .byte $0B
PRG:06932: 0C 00 0D NOP $0D00
PRG:06935: 00 00    BRK $00
PRG:06937: 0A       ASL
PRG:06938: 0E 00 02 ASL $0200
PRG:0693B: 00 02    BRK $02
PRG:0693D: 0A       ASL
PRG:0693E: 0F       .byte $0F
PRG:0693F: 00 09    BRK $09
PRG:06941: 09 02    ORA $02
PRG:06943: 02       .byte $02
PRG:06944: 02       .byte $02
PRG:06945: 02       .byte $02
PRG:06946: 02       .byte $02
PRG:06947: 02       .byte $02
PRG:06948: 02       .byte $02
PRG:06949: 02       .byte $02
PRG:0694A: 02       .byte $02
PRG:0694B: 02       .byte $02
PRG:0694C: 02       .byte $02
PRG:0694D: 02       .byte $02
PRG:0694E: 02       .byte $02
PRG:0694F: 02       .byte $02
PRG:06950: 02       .byte $02
PRG:06951: 02       .byte $02
PRG:06952: 10 11    BPL $11
PRG:06954: 12       .byte $12
PRG:06955: 13       .byte $13
PRG:06956: 20 21 22 JSR $2221
PRG:06959: 23       .byte $23
PRG:0695A: 30 31    BMI $31
PRG:0695C: 00 00    BRK $00
PRG:0695E: 40       RTI
PRG:0695F: 41 00    EOR $00
PRG:06961: 00 04    BRK $04
PRG:06963: 05 06    ORA $06
PRG:06965: 07       .byte $07
PRG:06966: 14 15    NOP $15
PRG:06968: 16 17    ASL $17
PRG:0696A: 24 25    BIT $25
PRG:0696C: 26 27    ROL $27
PRG:0696E: 34 35    NOP $35
PRG:06970: 36 37    ROL $37
PRG:06972: 08       PHP
PRG:06973: 09 0A    ORA $0A
PRG:06975: 0B       .byte $0B
PRG:06976: 18       CLC
PRG:06977: 19 1A 1B ORA $1B1A
PRG:0697A: 28       PLP
PRG:0697B: 29 2A    AND $2A
PRG:0697D: 2B       .byte $2B
PRG:0697E: 38       SEC
PRG:0697F: 39 3A 3B AND $3B3A
PRG:06982: 0C 0D 0E NOP $0E0D
PRG:06985: 0F       .byte $0F
PRG:06986: 1C 1D 1E NOP $1E1D
PRG:06989: 1F       .byte $1F
PRG:0698A: 2C 2D 2E BIT $2E2D
PRG:0698D: 2F       .byte $2F
PRG:0698E: 3C 3D 3E NOP $3E3D
PRG:06991: 3F       .byte $3F
PRG:06992: 50 51    BVC $51
PRG:06994: 52       .byte $52
PRG:06995: 53       .byte $53
PRG:06996: 60       RTS
PRG:06997: 61 62    ADC $62
PRG:06999: 63       .byte $63
PRG:0699A: 70 71    BVS $71
PRG:0699C: 72       .byte $72
PRG:0699D: 73       .byte $73
PRG:0699E: 80 81    NOP $81
PRG:069A0: 82       .byte $82
PRG:069A1: 83       .byte $83
PRG:069A2: 44 45    NOP $45
PRG:069A4: 46 47    LSR $47
PRG:069A6: 54 55    NOP $55
PRG:069A8: 56 57    LSR $57
PRG:069AA: 64 65    NOP $65
PRG:069AC: 66 67    ROR $67
PRG:069AE: 74 75    NOP $75
PRG:069B0: 76 77    ROR $77
PRG:069B2: 84 85    STY $85
PRG:069B4: 86 87    STX $87
PRG:069B6: 54 55    NOP $55
PRG:069B8: 56 57    LSR $57
PRG:069BA: 64 65    NOP $65
PRG:069BC: 66 67    ROR $67
PRG:069BE: 74 75    NOP $75
PRG:069C0: 76 77    ROR $77
PRG:069C2: 44 45    NOP $45
PRG:069C4: 46 49    LSR $49
PRG:069C6: 54 55    NOP $55
PRG:069C8: 56 59    LSR $59
PRG:069CA: 64 65    NOP $65
PRG:069CC: 66 69    ROR $69
PRG:069CE: 74 75    NOP $75
PRG:069D0: 76 79    ROR $79
PRG:069D2: 84 85    STY $85
PRG:069D4: 86 89    STX $89
PRG:069D6: 54 55    NOP $55
PRG:069D8: 56 59    LSR $59
PRG:069DA: 64 65    NOP $65
PRG:069DC: 66 69    ROR $69
PRG:069DE: 74 75    NOP $75
PRG:069E0: 76 79    ROR $79
PRG:069E2: 4A       LSR
PRG:069E3: 4B       .byte $4B
PRG:069E4: 4C 4D 5A JMP $5A4D
PRG:069E7: 5B       .byte $5B
PRG:069E8: 5C 5D 4A NOP $4A5D
PRG:069EB: 4B       .byte $4B
PRG:069EC: 4C 4D 5A JMP $5A4D
PRG:069EF: 5B       .byte $5B
PRG:069F0: 5C 5D 00 NOP $005D
PRG:069F3: 00 00    BRK $00
PRG:069F5: 00 00    BRK $00
PRG:069F7: 00 00    BRK $00
PRG:069F9: 00 00    BRK $00
PRG:069FB: 00 00    BRK $00
PRG:069FD: 00 00    BRK $00
PRG:069FF: 00 00    BRK $00
PRG:06A01: 00 6B    BRK $6B
PRG:06A03: 6B       .byte $6B
PRG:06A04: 6B       .byte $6B
PRG:06A05: 6B       .byte $6B
PRG:06A06: 33       .byte $33
PRG:06A07: 32       .byte $32
PRG:06A08: 33       .byte $33
PRG:06A09: 32       .byte $32
PRG:06A0A: 32       .byte $32
PRG:06A0B: 33       .byte $33
PRG:06A0C: 32       .byte $32
PRG:06A0D: 33       .byte $33
PRG:06A0E: 33       .byte $33
PRG:06A0F: 32       .byte $32
PRG:06A10: 33       .byte $33
PRG:06A11: 32       .byte $32
PRG:06A12: 32       .byte $32
PRG:06A13: 33       .byte $33
PRG:06A14: 32       .byte $32
PRG:06A15: 33       .byte $33
PRG:06A16: 33       .byte $33
PRG:06A17: 32       .byte $32
PRG:06A18: 33       .byte $33
PRG:06A19: 32       .byte $32
PRG:06A1A: 32       .byte $32
PRG:06A1B: 33       .byte $33
PRG:06A1C: 32       .byte $32
PRG:06A1D: 33       .byte $33
PRG:06A1E: 33       .byte $33
PRG:06A1F: 32       .byte $32
PRG:06A20: 33       .byte $33
PRG:06A21: 32       .byte $32
PRG:06A22: 4E 4F 4E LSR $4E4F
PRG:06A25: 4F       .byte $4F
PRG:06A26: 5E 5F 5E LSR $5E5F
PRG:06A29: 5F       .byte $5F
PRG:06A2A: 4E 4F 4E LSR $4E4F
PRG:06A2D: 4F       .byte $4F
PRG:06A2E: 5E 5F 5E LSR $5E5F
PRG:06A31: 5F       .byte $5F
PRG:06A32: 7F       .byte $7F
PRG:06A33: 7E 7F 7E ROR $7E7F
PRG:06A36: 6E 6F 6E ROR $6E6F
PRG:06A39: 6F       .byte $6F
PRG:06A3A: 6F       .byte $6F
PRG:06A3B: 6E 6F 6E ROR $6E6F
PRG:06A3E: 6E 6F 6E ROR $6E6F
PRG:06A41: 6F       .byte $6F
PRG:06A42: 6F       .byte $6F
PRG:06A43: 6E 6F 6E ROR $6E6F
PRG:06A46: 6E 6F 6E ROR $6E6F
PRG:06A49: 6F       .byte $6F
PRG:06A4A: 6F       .byte $6F
PRG:06A4B: 6E 6F 6E ROR $6E6F
PRG:06A4E: 6E 6F 6E ROR $6E6F
PRG:06A51: 6F       .byte $6F
PRG:06A52: 6F       .byte $6F
PRG:06A53: 6E 90 91 ROR $9190
PRG:06A56: 6E 6F A0 ROR $A06F
PRG:06A59: A1 6F    LDA $6F
PRG:06A5B: 6E B0 B1 ROR $B1B0
PRG:06A5E: 6E 6F C0 ROR $C06F
PRG:06A61: C1 6F    CMP $6F
PRG:06A63: 6E D0 D1 ROR $D1D0
PRG:06A66: 6E 6F E0 ROR $E06F
PRG:06A69: E1 6F    SBC $6F
PRG:06A6B: 6E 96 97 ROR $9796
PRG:06A6E: 6E 6F A6 ROR $A66F
PRG:06A71: A7       .byte $A7
PRG:06A72: 6F       .byte $6F
PRG:06A73: 6E B6 A7 ROR $A7B6
PRG:06A76: 6E 6F A6 ROR $A66F
PRG:06A79: A7       .byte $A7
PRG:06A7A: 6F       .byte $6F
PRG:06A7B: 6E B6 A7 ROR $A7B6
PRG:06A7E: 6E 6F E6 ROR $E66F
PRG:06A81: E7       .byte $E7
PRG:06A82: 92       .byte $92
PRG:06A83: 93       .byte $93
PRG:06A84: 94 95    STY $95
PRG:06A86: A2 A3    LDX $A3
PRG:06A88: A4 A5    LDY $A5
PRG:06A8A: B2       .byte $B2
PRG:06A8B: B3       .byte $B3
PRG:06A8C: B4 B5    LDY $B5
PRG:06A8E: C2       .byte $C2
PRG:06A8F: C3       .byte $C3
PRG:06A90: C4 C5    CPY $C5
PRG:06A92: D2       .byte $D2
PRG:06A93: D3       .byte $D3
PRG:06A94: D4 D5    NOP $D5
PRG:06A96: E2       .byte $E2
PRG:06A97: E3       .byte $E3
PRG:06A98: E4 E5    CPX $E5
PRG:06A9A: 98       TYA
PRG:06A9B: 99 9A 9B STA $9B9A
PRG:06A9E: A8       TAY
PRG:06A9F: A9 AA    LDA $AA
PRG:06AA1: AB       .byte $AB
PRG:06AA2: A8       TAY
PRG:06AA3: A9 AA    LDA $AA
PRG:06AA5: BB       .byte $BB
PRG:06AA6: A8       TAY
PRG:06AA7: A9 AA    LDA $AA
PRG:06AA9: AB       .byte $AB
PRG:06AAA: A8       TAY
PRG:06AAB: A9 AA    LDA $AA
PRG:06AAD: BB       .byte $BB
PRG:06AAE: E7       .byte $E7
PRG:06AAF: E7       .byte $E7
PRG:06AB0: E7       .byte $E7
PRG:06AB1: EB       .byte $EB
PRG:06AB2: 6F       .byte $6F
PRG:06AB3: 6E 6F 6E ROR $6E6F
PRG:06AB6: 6E 6F 6E ROR $6E6F
PRG:06AB9: 6F       .byte $6F
PRG:06ABA: 6F       .byte $6F
PRG:06ABB: 6E 90 91 ROR $9190
PRG:06ABE: 6E 6F A0 ROR $A06F
PRG:06AC1: A1 6F    LDA $6F
PRG:06AC3: 6E B0 B1 ROR $B1B0
PRG:06AC6: 6E 6F C0 ROR $C06F
PRG:06AC9: C1 6F    CMP $6F
PRG:06ACB: 6E D0 D1 ROR $D1D0
PRG:06ACE: 6E 6F E0 ROR $E06F
PRG:06AD1: E1 6F    SBC $6F
PRG:06AD3: 6E 96 97 ROR $9796
PRG:06AD6: 6E 6F A6 ROR $A66F
PRG:06AD9: A7       .byte $A7
PRG:06ADA: 6F       .byte $6F
PRG:06ADB: 6E B6 A7 ROR $A7B6
PRG:06ADE: 6E 6F E6 ROR $E66F
PRG:06AE1: E7       .byte $E7
PRG:06AE2: 6F       .byte $6F
PRG:06AE3: 6E 6F 6E ROR $6E6F
PRG:06AE6: 6E 6F 6E ROR $6E6F
PRG:06AE9: 6F       .byte $6F
PRG:06AEA: 92       .byte $92
PRG:06AEB: 93       .byte $93
PRG:06AEC: 94 95    STY $95
PRG:06AEE: A2 A3    LDX $A3
PRG:06AF0: A4 A5    LDY $A5
PRG:06AF2: B2       .byte $B2
PRG:06AF3: B3       .byte $B3
PRG:06AF4: B4 B5    LDY $B5
PRG:06AF6: C2       .byte $C2
PRG:06AF7: C3       .byte $C3
PRG:06AF8: C4 C5    CPY $C5
PRG:06AFA: D2       .byte $D2
PRG:06AFB: D3       .byte $D3
PRG:06AFC: D4 D5    NOP $D5
PRG:06AFE: E2       .byte $E2
PRG:06AFF: E3       .byte $E3
PRG:06B00: E4 E5    CPX $E5
PRG:06B02: 98       TYA
PRG:06B03: 99 9A 9B STA $9B9A
PRG:06B06: A8       TAY
PRG:06B07: A9 AA    LDA $AA
PRG:06B09: AB       .byte $AB
PRG:06B0A: A8       TAY
PRG:06B0B: A9 AA    LDA $AA
PRG:06B0D: BB       .byte $BB
PRG:06B0E: E7       .byte $E7
PRG:06B0F: E7       .byte $E7
PRG:06B10: E7       .byte $E7
PRG:06B11: EB       .byte $EB
PRG:06B12: 04 05    NOP $05
PRG:06B14: 06 9E    ASL $9E
PRG:06B16: 14 15    NOP $15
PRG:06B18: 16 AE    ASL $AE
PRG:06B1A: 24 25    BIT $25
PRG:06B1C: 26 BE    ROL $BE
PRG:06B1E: 34 35    NOP $35
PRG:06B20: 36 CE    ROL $CE
PRG:06B22: 08       PHP
PRG:06B23: 09 0A    ORA $0A
PRG:06B25: DE 18 19 DEC $1918
PRG:06B28: 1A       NOP
PRG:06B29: EE 28 29 INC $2928
PRG:06B2C: 2A       ROL
PRG:06B2D: 9F       .byte $9F
PRG:06B2E: 38       SEC
PRG:06B2F: 39 3A AF AND $AF3A
PRG:06B32: 9C       .byte $9C
PRG:06B33: 05 06    ORA $06
PRG:06B35: 07       .byte $07
PRG:06B36: AC 15 16 LDY $1615
PRG:06B39: 17       .byte $17
PRG:06B3A: BC 25 26 LDY $2625
PRG:06B3D: 27       .byte $27
PRG:06B3E: CC 35 36 CPY $3635
PRG:06B41: 37       .byte $37
PRG:06B42: DC 09 0A NOP $0A09
PRG:06B45: 0B       .byte $0B
PRG:06B46: EC 19 1A CPX $1A19
PRG:06B49: 1B       .byte $1B
PRG:06B4A: 9D 29 2A STA $2A29
PRG:06B4D: 2B       .byte $2B
PRG:06B4E: AD 39 3A LDA $3A39
PRG:06B51: 3B       .byte $3B
PRG:06B52: F0 F1    BEQ $F1
PRG:06B54: F1 F2    SBC $F2
PRG:06B56: F3       .byte $F3
PRG:06B57: F4 F4    NOP $F4
PRG:06B59: F5 F1    SBC $F1
PRG:06B5B: F2       .byte $F2
PRG:06B5C: F0 F1    BEQ $F1
PRG:06B5E: F4 F5    NOP $F5
PRG:06B60: F3       .byte $F3
PRG:06B61: F4 F8    NOP $F8
PRG:06B63: F9 FA FB SBC $FBFA
PRG:06B66: FC FD FE NOP $FEFD
PRG:06B69: FF       .byte $FF
PRG:06B6A: F1 F2    SBC $F2
PRG:06B6C: F8       SED
PRG:06B6D: F9 F4 F5 SBC $F5F4
PRG:06B70: FC FD F8 NOP $F8FD
PRG:06B73: F9 FA FB SBC $FBFA
PRG:06B76: FC FD FE NOP $FEFD
PRG:06B79: FF       .byte $FF
PRG:06B7A: FA       NOP
PRG:06B7B: FB       .byte $FB
PRG:06B7C: F0 F1    BEQ $F1
PRG:06B7E: FE FF F3 INC $F3FF
PRG:06B81: F4 8C    NOP $8C
PRG:06B83: 8D 8C 8D STA $8D8C
PRG:06B86: 8D 8C 8D STA $8D8C
PRG:06B89: 8C 8C 8D STY $8D8C
PRG:06B8C: 8C 8D 8D STY $8D8D
PRG:06B8F: 8C 8D 8C STY $8C8D
PRG:06B92: 48       PHA
PRG:06B93: 45 46    EOR $46
PRG:06B95: 47       .byte $47
PRG:06B96: 58       CLI
PRG:06B97: 55 56    EOR $56
PRG:06B99: 57       .byte $57
PRG:06B9A: 68       PLA
PRG:06B9B: 65 66    ADC $66
PRG:06B9D: 67       .byte $67
PRG:06B9E: 78       SEI
PRG:06B9F: 75 76    ADC $76
PRG:06BA1: 77       .byte $77
PRG:06BA2: 7A       NOP
PRG:06BA3: 85 86    STA $86
PRG:06BA5: 87       .byte $87
PRG:06BA6: 58       CLI
PRG:06BA7: 55 56    EOR $56
PRG:06BA9: 57       .byte $57
PRG:06BAA: 68       PLA
PRG:06BAB: 65 66    ADC $66
PRG:06BAD: 67       .byte $67
PRG:06BAE: 78       SEI
PRG:06BAF: 75 76    ADC $76
PRG:06BB1: 77       .byte $77
PRG:06BB2: F0 F1    BEQ $F1
PRG:06BB4: F1 F2    SBC $F2
PRG:06BB6: F3       .byte $F3
PRG:06BB7: F4 F4    NOP $F4
PRG:06BB9: F5 00    SBC $00
PRG:06BBB: 00 F0    BRK $F0
PRG:06BBD: F1 00    SBC $00
PRG:06BBF: 00 F3    BRK $F3
PRG:06BC1: F4 F0    NOP $F0
PRG:06BC3: F1 F1    SBC $F1
PRG:06BC5: F2       .byte $F2
PRG:06BC6: F3       .byte $F3
PRG:06BC7: F4 F4    NOP $F4
PRG:06BC9: F5 F1    SBC $F1
PRG:06BCB: F2       .byte $F2
PRG:06BCC: 00 00    BRK $00
PRG:06BCE: F4 F5    NOP $F5
PRG:06BD0: 00 00    BRK $00
PRG:06BD2: 55 55    EOR $55
PRG:06BD4: 00 00    BRK $00
PRG:06BD6: 00 00    BRK $00
PRG:06BD8: 55 55    EOR $55
PRG:06BDA: 55 55    EOR $55
PRG:06BDC: 00 00    BRK $00
PRG:06BDE: 00 00    BRK $00
PRG:06BE0: AA       TAX
PRG:06BE1: FF       .byte $FF
PRG:06BE2: FF       .byte $FF
PRG:06BE3: FF       .byte $FF
PRG:06BE4: FF       .byte $FF
PRG:06BE5: FF       .byte $FF
PRG:06BE6: FF       .byte $FF
PRG:06BE7: FF       .byte $FF
PRG:06BE8: FF       .byte $FF
PRG:06BE9: FF       .byte $FF
PRG:06BEA: FF       .byte $FF
PRG:06BEB: FF       .byte $FF
PRG:06BEC: FF       .byte $FF
PRG:06BED: FF       .byte $FF
PRG:06BEE: FF       .byte $FF
PRG:06BEF: 00 00    BRK $00
PRG:06BF1: 00 00    BRK $00
PRG:06BF3: 00 00    BRK $00
PRG:06BF5: 00 FF    BRK $FF
PRG:06BF7: 55 55    EOR $55
PRG:06BF9: 00 00    BRK $00
PRG:06BFB: 00 00    BRK $00
PRG:06BFD: 42       .byte $42
PRG:06BFE: 0C 31 03 NOP $0331
PRG:06C01: 14 61    NOP $61
PRG:06C03: 87       .byte $87
PRG:06C04: 0C 82 43 NOP $4382
PRG:06C07: 14 61    NOP $61
PRG:06C09: 86 18    STX $18
PRG:06C0B: 61 87    ADC $87
PRG:06C0D: 0C 31 46 NOP $4631
PRG:06C10: 18       CLC
PRG:06C11: 61 86    ADC $86
PRG:06C13: 18       CLC
PRG:06C14: A4 0B    LDY $0B
PRG:06C16: 30 D3    BMI $D3
PRG:06C18: 8F       .byte $8F
PRG:06C19: 45 24    EOR $24
PRG:06C1B: D4 45    NOP $45
PRG:06C1D: 55 94    EOR $94
PRG:06C1F: 5D 86 54 EOR $5486
PRG:06C22: 5E 06 94 LSR $9406
PRG:06C25: 45 B7    EOR $B7
PRG:06C27: 1D 45 E7 ORA $E745
PRG:06C2A: DD 0C 30 CMP $300C
PRG:06C2D: C3       .byte $C3
PRG:06C2E: 00 00    BRK $00
PRG:06C30: 00 01    BRK $01
PRG:06C32: 02       .byte $02
PRG:06C33: 03       .byte $03
PRG:06C34: 00 00    BRK $00
PRG:06C36: 00 06    BRK $06
PRG:06C38: 07       .byte $07
PRG:06C39: 08       PHP
PRG:06C3A: 00 00    BRK $00
PRG:06C3C: 00 09    BRK $09
PRG:06C3E: 00 00    BRK $00
PRG:06C40: 00 00    BRK $00
PRG:06C42: 00 00    BRK $00
PRG:06C44: 00 00    BRK $00
PRG:06C46: 00 00    BRK $00
PRG:06C48: 0B       .byte $0B
PRG:06C49: 00 00    BRK $00
PRG:06C4B: 00 00    BRK $00
PRG:06C4D: 00 00    BRK $00
PRG:06C4F: 00 00    BRK $00
PRG:06C51: 0C 00 00 NOP $0000
PRG:06C54: 00 00    BRK $00
PRG:06C56: 00 0D    BRK $0D
PRG:06C58: 00 00    BRK $00
PRG:06C5A: 00 00    BRK $00
PRG:06C5C: 00 0E    BRK $0E
PRG:06C5E: 00 00    BRK $00
PRG:06C60: 0F       .byte $0F
PRG:06C61: 10 00    BPL $00
PRG:06C63: 00 00    BRK $00
PRG:06C65: 00 11    BRK $11
PRG:06C67: 12       .byte $12
PRG:06C68: 00 00    BRK $00
PRG:06C6A: 00 00    BRK $00
PRG:06C6C: 13       .byte $13
PRG:06C6D: 14 15    NOP $15
PRG:06C6F: 0D 00 00 ORA $0000
PRG:06C72: 16 00    ASL $00
PRG:06C74: 00 0D    BRK $0D
PRG:06C76: 00 17    BRK $17
PRG:06C78: 18       CLC
PRG:06C79: 19 1A 28 ORA $281A
PRG:06C7C: 00 1B    BRK $1B
PRG:06C7E: 1C 1D 1E NOP $1E1D
PRG:06C81: 28       PLP
PRG:06C82: 00 1F    BRK $1F
PRG:06C84: 20 21 22 JSR $2221
PRG:06C87: 28       PLP
PRG:06C88: 00 1F    BRK $1F
PRG:06C8A: 23       .byte $23
PRG:06C8B: 24 25    BIT $25
PRG:06C8D: 28       PLP
PRG:06C8E: 00 00    BRK $00
PRG:06C90: 26 27    ROL $27
PRG:06C92: 27       .byte $27
PRG:06C93: 0D 05 05 ORA $0505
PRG:06C96: 05 05    ORA $05
PRG:06C98: 05 0A    ORA $0A
PRG:06C9A: 05 05    ORA $05
PRG:06C9C: 05 05    ORA $05
PRG:06C9E: 29 05    AND $05
PRG:06CA0: 05 05    ORA $05
PRG:06CA2: 05 2A    ORA $2A
PRG:06CA4: 05 05    ORA $05
PRG:06CA6: 05 05    ORA $05
PRG:06CA8: 2B       .byte $2B
PRG:06CA9: 2C 2C 2C BIT $2C2C
PRG:06CAC: 2C 2D 2E BIT $2E2D
PRG:06CAF: 2E 2E 2E ROL $2E2E
PRG:06CB2: 3B       .byte $3B
PRG:06CB3: 04 04    NOP $04
PRG:06CB5: 04 04    NOP $04
PRG:06CB7: 2F       .byte $2F
PRG:06CB8: 30 30    BMI $30
PRG:06CBA: 30 30    BMI $30
PRG:06CBC: 00 2F    BRK $2F
PRG:06CBE: 30 30    BMI $30
PRG:06CC0: 30 00    BMI $00
PRG:06CC2: 2F       .byte $2F
PRG:06CC3: 31 32    AND $32
PRG:06CC5: 32       .byte $32
PRG:06CC6: 2F       .byte $2F
PRG:06CC7: 30 33    BMI $33
PRG:06CC9: 34 34    NOP $34
PRG:06CCB: 3B       .byte $3B
PRG:06CCC: 04 35    NOP $35
PRG:06CCE: 36 36    ROL $36
PRG:06CD0: 00 37    BRK $37
PRG:06CD2: 38       SEC
PRG:06CD3: 39 39 00 AND $0039
PRG:06CD6: 37       .byte $37
PRG:06CD7: 3A       NOP
PRG:06CD8: 3A       NOP
PRG:06CD9: 3A       NOP
PRG:06CDA: 00 00    BRK $00
PRG:06CDC: 01 01    ORA $01
PRG:06CDE: 02       .byte $02
PRG:06CDF: 01 03    ORA $03
PRG:06CE1: 01 04    ORA $04
PRG:06CE3: 01 05    ORA $05
PRG:06CE5: 02       .byte $02
PRG:06CE6: 06 00    ASL $00
PRG:06CE8: 07       .byte $07
PRG:06CE9: 03       .byte $03
PRG:06CEA: 08       PHP
PRG:06CEB: 01 09    ORA $09
PRG:06CED: 01 0A    ORA $0A
PRG:06CEF: 00 0B    BRK $0B
PRG:06CF1: 00 0C    BRK $0C
PRG:06CF3: 00 0D    BRK $0D
PRG:06CF5: 00 0E    BRK $0E
PRG:06CF7: 00 0F    BRK $0F
PRG:06CF9: 00 10    BRK $10
PRG:06CFB: 00 03    BRK $03
PRG:06CFD: 04 03    NOP $03
PRG:06CFF: 05 04    ORA $04
PRG:06D01: 06 03    ASL $03
PRG:06D03: 07       .byte $07
PRG:06D04: 08       PHP
PRG:06D05: 05 09    ORA $09
PRG:06D07: 06 03    ASL $03
PRG:06D09: 08       PHP
PRG:06D0A: 08       PHP
PRG:06D0B: 09 09    ORA $09
PRG:06D0D: 0A       ASL
PRG:06D0E: 03       .byte $03
PRG:06D0F: 0A       ASL
PRG:06D10: 03       .byte $03
PRG:06D11: 0B       .byte $0B
PRG:06D12: 04 0C    NOP $0C
PRG:06D14: 03       .byte $03
PRG:06D15: 0D 08 0B ORA $0B08
PRG:06D18: 09 0C    ORA $0C
PRG:06D1A: 04 09    NOP $09
PRG:06D1C: 03       .byte $03
PRG:06D1D: 03       .byte $03
PRG:06D1E: 03       .byte $03
PRG:06D1F: 03       .byte $03
PRG:06D20: 03       .byte $03
PRG:06D21: 03       .byte $03
PRG:06D22: 03       .byte $03
PRG:06D23: 03       .byte $03
PRG:06D24: 03       .byte $03
PRG:06D25: 03       .byte $03
PRG:06D26: 03       .byte $03
PRG:06D27: 03       .byte $03
PRG:06D28: 03       .byte $03
PRG:06D29: 03       .byte $03
PRG:06D2A: 03       .byte $03
PRG:06D2B: 03       .byte $03
PRG:06D2C: 10 11    BPL $11
PRG:06D2E: 12       .byte $12
PRG:06D2F: 13       .byte $13
PRG:06D30: 20 21 22 JSR $2221
PRG:06D33: 23       .byte $23
PRG:06D34: 30 31    BMI $31
PRG:06D36: 32       .byte $32
PRG:06D37: 33       .byte $33
PRG:06D38: 40       RTI
PRG:06D39: 41 42    EOR $42
PRG:06D3B: 43       .byte $43
PRG:06D3C: 50 51    BVC $51
PRG:06D3E: 52       .byte $52
PRG:06D3F: 53       .byte $53
PRG:06D40: 20 21 22 JSR $2221
PRG:06D43: 23       .byte $23
PRG:06D44: 30 31    BMI $31
PRG:06D46: 32       .byte $32
PRG:06D47: 33       .byte $33
PRG:06D48: 40       RTI
PRG:06D49: 41 42    EOR $42
PRG:06D4B: 43       .byte $43
PRG:06D4C: 50 51    BVC $51
PRG:06D4E: 52       .byte $52
PRG:06D4F: 53       .byte $53
PRG:06D50: 20 21 22 JSR $2221
PRG:06D53: 23       .byte $23
PRG:06D54: 30 31    BMI $31
PRG:06D56: 32       .byte $32
PRG:06D57: 33       .byte $33
PRG:06D58: 60       RTS
PRG:06D59: 61 62    ADC $62
PRG:06D5B: 63       .byte $63
PRG:06D5C: 9C       .byte $9C
PRG:06D5D: DC DC DD NOP $DDDC
PRG:06D60: 9C       .byte $9C
PRG:06D61: DC DC DD NOP $DDDC
PRG:06D64: 9C       .byte $9C
PRG:06D65: DC DC DD NOP $DDDC
PRG:06D68: 9C       .byte $9C
PRG:06D69: DC DC DD NOP $DDDC
PRG:06D6C: 5A       NOP
PRG:06D6D: 5B       .byte $5B
PRG:06D6E: 5C 6A 6A NOP $6A6A
PRG:06D71: 6B       .byte $6B
PRG:06D72: 6A       ROR
PRG:06D73: 6D 6A 6D ADC $6D6A
PRG:06D76: 6A       ROR
PRG:06D77: 6D 7A 6A ADC $6A7A
PRG:06D7A: 7B       .byte $7B
PRG:06D7B: 6A       ROR
PRG:06D7C: 10 11    BPL $11
PRG:06D7E: 12       .byte $12
PRG:06D7F: 13       .byte $13
PRG:06D80: 20 21 22 JSR $2221
PRG:06D83: 23       .byte $23
PRG:06D84: 30 31    BMI $31
PRG:06D86: 32       .byte $32
PRG:06D87: 33       .byte $33
PRG:06D88: 60       RTS
PRG:06D89: 61 62    ADC $62
PRG:06D8B: 25 50    AND $50
PRG:06D8D: 51 25    EOR $25
PRG:06D8F: 03       .byte $03
PRG:06D90: 20 05 03 JSR $0305
PRG:06D93: 03       .byte $03
PRG:06D94: 04 03    NOP $03
PRG:06D96: 03       .byte $03
PRG:06D97: 03       .byte $03
PRG:06D98: 14 03    NOP $03
PRG:06D9A: 03       .byte $03
PRG:06D9B: 03       .byte $03
PRG:06D9C: 24 03    BIT $03
PRG:06D9E: 03       .byte $03
PRG:06D9F: 03       .byte $03
PRG:06DA0: 34 03    NOP $03
PRG:06DA2: 03       .byte $03
PRG:06DA3: 03       .byte $03
PRG:06DA4: 44 03    NOP $03
PRG:06DA6: 03       .byte $03
PRG:06DA7: 03       .byte $03
PRG:06DA8: 54 03    NOP $03
PRG:06DAA: 03       .byte $03
PRG:06DAB: 03       .byte $03
PRG:06DAC: 10 06    BPL $06
PRG:06DAE: 07       .byte $07
PRG:06DAF: 08       PHP
PRG:06DB0: 20 16 17 JSR $1716
PRG:06DB3: 03       .byte $03
PRG:06DB4: 15 03    ORA $03
PRG:06DB6: 03       .byte $03
PRG:06DB7: 03       .byte $03
PRG:06DB8: 03       .byte $03
PRG:06DB9: 03       .byte $03
PRG:06DBA: 03       .byte $03
PRG:06DBB: 03       .byte $03
PRG:06DBC: 4A       LSR
PRG:06DBD: 4B       .byte $4B
PRG:06DBE: 4C 4D 5A JMP $5A4D
PRG:06DC1: 5B       .byte $5B
PRG:06DC2: 5C 6A 6A NOP $6A6A
PRG:06DC5: 6B       .byte $6B
PRG:06DC6: 6A       ROR
PRG:06DC7: 6D 7A 7B ADC $7B7A
PRG:06DCA: 6A       ROR
PRG:06DCB: 6A       ROR
PRG:06DCC: 70 71    BVS $71
PRG:06DCE: 72       .byte $72
PRG:06DCF: 73       .byte $73
PRG:06DD0: 80 81    NOP $81
PRG:06DD2: 01 83    ORA $83
PRG:06DD4: 90 91    BCC $91
PRG:06DD6: 92       .byte $92
PRG:06DD7: 93       .byte $93
PRG:06DD8: 70 70    BVS $70
PRG:06DDA: 70 70    BVS $70
PRG:06DDC: 09 0A    ORA $0A
PRG:06DDE: 0B       .byte $0B
PRG:06DDF: 0C 19 1A NOP $1A19
PRG:06DE2: 1B       .byte $1B
PRG:06DE3: 1C 29 2A NOP $2A29
PRG:06DE6: 2B       .byte $2B
PRG:06DE7: 2C 39 3A BIT $3A39
PRG:06DEA: 3B       .byte $3B
PRG:06DEB: 3C 0D 0A NOP $0A0D
PRG:06DEE: 0B       .byte $0B
PRG:06DEF: 0C 1D 1A NOP $1A1D
PRG:06DF2: 1B       .byte $1B
PRG:06DF3: 1C 2D 2A NOP $2A2D
PRG:06DF6: 2B       .byte $2B
PRG:06DF7: 2C 3D 3A BIT $3A3D
PRG:06DFA: 3B       .byte $3B
PRG:06DFB: 3C 0D 0A NOP $0A0D
PRG:06DFE: 0B       .byte $0B
PRG:06DFF: 0E 1D 1A ASL $1A1D
PRG:06E02: 1B       .byte $1B
PRG:06E03: 1E 2D 2A ASL $2A2D
PRG:06E06: 2B       .byte $2B
PRG:06E07: 2E 3D 3A ROL $3A3D
PRG:06E0A: 3B       .byte $3B
PRG:06E0B: 3E 70 70 ROL $7070
PRG:06E0E: 70 70    BVS $70
PRG:06E10: 64 65    NOP $65
PRG:06E12: 66 67    ROR $67
PRG:06E14: 74 01    NOP $01
PRG:06E16: 01 01    ORA $01
PRG:06E18: 84 01    STY $01
PRG:06E1A: 01 01    ORA $01
PRG:06E1C: 94 95    STY $95
PRG:06E1E: 96 97    STX $97
PRG:06E20: 70 70    BVS $70
PRG:06E22: 70 70    BVS $70
PRG:06E24: 70 70    BVS $70
PRG:06E26: 70 70    BVS $70
PRG:06E28: 70 70    BVS $70
PRG:06E2A: 70 70    BVS $70
PRG:06E2C: 70 70    BVS $70
PRG:06E2E: 70 70    BVS $70
PRG:06E30: 68       PLA
PRG:06E31: 70 70    BVS $70
PRG:06E33: 70 78    BVS $78
PRG:06E35: 79 70 70 ADC $7070
PRG:06E38: 01 89    ORA $89
PRG:06E3A: 8A       TXA
PRG:06E3B: 70 98    BVS $98
PRG:06E3D: 99 9A 70 STA $709A
PRG:06E40: 70 70    BVS $70
PRG:06E42: 70 70    BVS $70
PRG:06E44: 70 70    BVS $70
PRG:06E46: 70 70    BVS $70
PRG:06E48: 70 70    BVS $70
PRG:06E4A: 70 70    BVS $70
PRG:06E4C: A7       .byte $A7
PRG:06E4D: A0 A1    LDY $A1
PRG:06E4F: A2 A7    LDX $A7
PRG:06E51: B0 B1    BCS $B1
PRG:06E53: B2       .byte $B2
PRG:06E54: A7       .byte $A7
PRG:06E55: C0 C1    CPY $C1
PRG:06E57: C2       .byte $C2
PRG:06E58: A7       .byte $A7
PRG:06E59: D0 D1    BNE $D1
PRG:06E5B: D2       .byte $D2
PRG:06E5C: 01 01    ORA $01
PRG:06E5E: 01 E2    ORA $E2
PRG:06E60: 01 01    ORA $01
PRG:06E62: 01 F2    ORA $F2
PRG:06E64: 01 01    ORA $01
PRG:06E66: 01 F2    ORA $F2
PRG:06E68: 01 01    ORA $01
PRG:06E6A: 01 F2    ORA $F2
PRG:06E6C: 01 01    ORA $01
PRG:06E6E: 01 F2    ORA $F2
PRG:06E70: 01 01    ORA $01
PRG:06E72: 01 F2    ORA $F2
PRG:06E74: 01 01    ORA $01
PRG:06E76: F0 E0    BEQ $E0
PRG:06E78: 01 01    ORA $01
PRG:06E7A: F1 E1    SBC $E1
PRG:06E7C: A7       .byte $A7
PRG:06E7D: A7       .byte $A7
PRG:06E7E: A7       .byte $A7
PRG:06E7F: A7       .byte $A7
PRG:06E80: B7       .byte $B7
PRG:06E81: A7       .byte $A7
PRG:06E82: A7       .byte $A7
PRG:06E83: A7       .byte $A7
PRG:06E84: C7       .byte $C7
PRG:06E85: A7       .byte $A7
PRG:06E86: A7       .byte $A7
PRG:06E87: A7       .byte $A7
PRG:06E88: D7       .byte $D7
PRG:06E89: A7       .byte $A7
PRG:06E8A: A7       .byte $A7
PRG:06E8B: A7       .byte $A7
PRG:06E8C: 03       .byte $03
PRG:06E8D: 03       .byte $03
PRG:06E8E: 03       .byte $03
PRG:06E8F: 03       .byte $03
PRG:06E90: 03       .byte $03
PRG:06E91: 03       .byte $03
PRG:06E92: 03       .byte $03
PRG:06E93: 03       .byte $03
PRG:06E94: 03       .byte $03
PRG:06E95: 03       .byte $03
PRG:06E96: 03       .byte $03
PRG:06E97: 58       CLI
PRG:06E98: 03       .byte $03
PRG:06E99: 03       .byte $03
PRG:06E9A: 03       .byte $03
PRG:06E9B: 48       PHA
PRG:06E9C: 03       .byte $03
PRG:06E9D: 03       .byte $03
PRG:06E9E: 03       .byte $03
PRG:06E9F: 69 03    ADC $03
PRG:06EA1: 03       .byte $03
PRG:06EA2: 48       PHA
PRG:06EA3: 20 03 03 JSR $0303
PRG:06EA6: 59 30 03 EOR $0330
PRG:06EA9: 03       .byte $03
PRG:06EAA: 69 40    ADC $40
PRG:06EAC: 03       .byte $03
PRG:06EAD: 58       CLI
PRG:06EAE: 53       .byte $53
PRG:06EAF: 50 48    BVC $48
PRG:06EB1: 22       .byte $22
PRG:06EB2: 23       .byte $23
PRG:06EB3: 20 37 32 JSR $3237
PRG:06EB6: 33       .byte $33
PRG:06EB7: 30 37    BMI $37
PRG:06EB9: 42       .byte $42
PRG:06EBA: 43       .byte $43
PRG:06EBB: 40       RTI
PRG:06EBC: 37       .byte $37
PRG:06EBD: 52       .byte $52
PRG:06EBE: 53       .byte $53
PRG:06EBF: 50 47    BVC $47
PRG:06EC1: 22       .byte $22
PRG:06EC2: 23       .byte $23
PRG:06EC3: 20 57 32 JSR $3257
PRG:06EC6: 33       .byte $33
PRG:06EC7: 30 55    BMI $55
PRG:06EC9: 62       .byte $62
PRG:06ECA: 63       .byte $63
PRG:06ECB: 60       RTS
PRG:06ECC: 57       .byte $57
PRG:06ECD: 12       .byte $12
PRG:06ECE: 13       .byte $13
PRG:06ECF: 10 37    BPL $37
PRG:06ED1: 22       .byte $22
PRG:06ED2: 23       .byte $23
PRG:06ED3: 20 31 32 JSR $3231
PRG:06ED6: 33       .byte $33
PRG:06ED7: 30 41    BMI $41
PRG:06ED9: 42       .byte $42
PRG:06EDA: 43       .byte $43
PRG:06EDB: 40       RTI
PRG:06EDC: 51 52    EOR $52
PRG:06EDE: 53       .byte $53
PRG:06EDF: 50 21    BVC $21
PRG:06EE1: 22       .byte $22
PRG:06EE2: 23       .byte $23
PRG:06EE3: 20 31 A8 JSR $A831
PRG:06EE6: A9 AA    LDA $AA
PRG:06EE8: 41 B8    EOR $B8
PRG:06EEA: B9 BA 51 LDA $51BA
PRG:06EED: 52       .byte $52
PRG:06EEE: 53       .byte $53
PRG:06EEF: 50 21    BVC $21
PRG:06EF1: 22       .byte $22
PRG:06EF2: 23       .byte $23
PRG:06EF3: 20 31 32 JSR $3231
PRG:06EF6: 33       .byte $33
PRG:06EF7: 36 41    ROL $41
PRG:06EF9: 42       .byte $42
PRG:06EFA: 43       .byte $43
PRG:06EFB: 46 51    LSR $51
PRG:06EFD: 52       .byte $52
PRG:06EFE: 53       .byte $53
PRG:06EFF: 36 21    ROL $21
PRG:06F01: 22       .byte $22
PRG:06F02: 23       .byte $23
PRG:06F03: 46 31    LSR $31
PRG:06F05: 32       .byte $32
PRG:06F06: 33       .byte $33
PRG:06F07: 36 61    ROL $61
PRG:06F09: 62       .byte $62
PRG:06F0A: 63       .byte $63
PRG:06F0B: 46 11    LSR $11
PRG:06F0D: 12       .byte $12
PRG:06F0E: 13       .byte $13
PRG:06F0F: 10 21    BPL $21
PRG:06F11: 22       .byte $22
PRG:06F12: 23       .byte $23
PRG:06F13: 20 31 32 JSR $3231
PRG:06F16: 33       .byte $33
PRG:06F17: 30 41    BMI $41
PRG:06F19: 42       .byte $42
PRG:06F1A: 43       .byte $43
PRG:06F1B: 40       RTI
PRG:06F1C: 51 52    EOR $52
PRG:06F1E: 53       .byte $53
PRG:06F1F: 50 21    BVC $21
PRG:06F21: 22       .byte $22
PRG:06F22: 23       .byte $23
PRG:06F23: 20 AB 32 JSR $32AB
PRG:06F26: 33       .byte $33
PRG:06F27: C8       INY
PRG:06F28: BB       .byte $BB
PRG:06F29: 42       .byte $42
PRG:06F2A: 43       .byte $43
PRG:06F2B: D8       CLD
PRG:06F2C: 51 52    EOR $52
PRG:06F2E: 53       .byte $53
PRG:06F2F: 50 27    BVC $27
PRG:06F31: 26 27    ROL $27
PRG:06F33: 26 82    ROL $82
PRG:06F35: 82       .byte $82
PRG:06F36: 82       .byte $82
PRG:06F37: 82       .byte $82
PRG:06F38: 82       .byte $82
PRG:06F39: 82       .byte $82
PRG:06F3A: 82       .byte $82
PRG:06F3B: 82       .byte $82
PRG:06F3C: 82       .byte $82
PRG:06F3D: 82       .byte $82
PRG:06F3E: 82       .byte $82
PRG:06F3F: 82       .byte $82
PRG:06F40: 82       .byte $82
PRG:06F41: 82       .byte $82
PRG:06F42: 82       .byte $82
PRG:06F43: 82       .byte $82
PRG:06F44: 82       .byte $82
PRG:06F45: 82       .byte $82
PRG:06F46: 82       .byte $82
PRG:06F47: 82       .byte $82
PRG:06F48: 82       .byte $82
PRG:06F49: 82       .byte $82
PRG:06F4A: 82       .byte $82
PRG:06F4B: 82       .byte $82
PRG:06F4C: 51 52    EOR $52
PRG:06F4E: 53       .byte $53
PRG:06F4F: 50 21    BVC $21
PRG:06F51: 22       .byte $22
PRG:06F52: 23       .byte $23
PRG:06F53: 20 C9 CA JSR $CAC9
PRG:06F56: CB       .byte $CB
PRG:06F57: 30 D9    BMI $D9
PRG:06F59: DA       NOP
PRG:06F5A: DB       .byte $DB
PRG:06F5B: 40       RTI
PRG:06F5C: 51 52    EOR $52
PRG:06F5E: 53       .byte $53
PRG:06F5F: 50 21    BVC $21
PRG:06F61: 22       .byte $22
PRG:06F62: 23       .byte $23
PRG:06F63: 20 46 32 JSR $3246
PRG:06F66: 33       .byte $33
PRG:06F67: 30 36    BMI $36
PRG:06F69: 42       .byte $42
PRG:06F6A: 43       .byte $43
PRG:06F6B: 40       RTI
PRG:06F6C: 46 52    LSR $52
PRG:06F6E: 53       .byte $53
PRG:06F6F: 50 36    BVC $36
PRG:06F71: 22       .byte $22
PRG:06F72: 23       .byte $23
PRG:06F73: 20 46 32 JSR $3246
PRG:06F76: 33       .byte $33
PRG:06F77: 30 36    BMI $36
PRG:06F79: 62       .byte $62
PRG:06F7A: 63       .byte $63
PRG:06F7B: 60       RTS
PRG:06F7C: A3       .byte $A3
PRG:06F7D: A4 A5    LDY $A5
PRG:06F7F: A6 B3    LDX $B3
PRG:06F81: B4 B5    LDY $B5
PRG:06F83: B6 C3    LDX $C3
PRG:06F85: C4 C5    CPY $C5
PRG:06F87: C6 D3    DEC $D3
PRG:06F89: D4 D5    NOP $D5
PRG:06F8B: D6 F3    DEC $F3
PRG:06F8D: 01 01    ORA $01
PRG:06F8F: 01 F3    ORA $F3
PRG:06F91: 01 01    ORA $01
PRG:06F93: 01 F3    ORA $F3
PRG:06F95: 01 01    ORA $01
PRG:06F97: 01 F3    ORA $F3
PRG:06F99: 01 01    ORA $01
PRG:06F9B: 01 18    ORA $18
PRG:06F9D: 28       PLP
PRG:06F9E: 38       SEC
PRG:06F9F: 18       CLC
PRG:06FA0: 1D 1A 1B ORA $1B1A
PRG:06FA3: 1C 2D 2A NOP $2A2D
PRG:06FA6: 2B       .byte $2B
PRG:06FA7: 2C 3D 3A BIT $3A3D
PRG:06FAA: 3B       .byte $3B
PRG:06FAB: 3C 4A 6A NOP $6A4A
PRG:06FAE: 6A       ROR
PRG:06FAF: 6A       ROR
PRG:06FB0: 5A       NOP
PRG:06FB1: 5B       .byte $5B
PRG:06FB2: 5C 6A 6A NOP $6A6A
PRG:06FB5: 6B       .byte $6B
PRG:06FB6: 6A       ROR
PRG:06FB7: 6D 7A 7B ADC $7B7A
PRG:06FBA: 6A       ROR
PRG:06FBB: 6A       ROR
PRG:06FBC: 6A       ROR
PRG:06FBD: 6A       ROR
PRG:06FBE: 6A       ROR
PRG:06FBF: 4A       LSR
PRG:06FC0: 5A       NOP
PRG:06FC1: 5B       .byte $5B
PRG:06FC2: 5C 6A 6A NOP $6A6A
PRG:06FC5: 6B       .byte $6B
PRG:06FC6: 6A       ROR
PRG:06FC7: 6D 7A 7B ADC $7B7A
PRG:06FCA: 6A       ROR
PRG:06FCB: 6A       ROR
PRG:06FCC: 8B       .byte $8B
PRG:06FCD: 8C CD 8B STY $8BCD
PRG:06FD0: 9B       .byte $9B
PRG:06FD1: 9C       .byte $9C
PRG:06FD2: DD 9B 8D CMP $8D9B
PRG:06FD5: 9C       .byte $9C
PRG:06FD6: DD 8D 9B CMP $9B8D
PRG:06FD9: 9C       .byte $9C
PRG:06FDA: DD 9B 8D CMP $8D9B
PRG:06FDD: 9C       .byte $9C
PRG:06FDE: DD 8D 9B CMP $9B8D
PRG:06FE1: 9C       .byte $9C
PRG:06FE2: DD 9B 8D CMP $8D9B
PRG:06FE5: 9C       .byte $9C
PRG:06FE6: DD 8D 9B CMP $9B8D
PRG:06FE9: 9C       .byte $9C
PRG:06FEA: DD 9B 8C CMP $8C9B
PRG:06FED: CC CD 8B CPY $8BCD
PRG:06FF0: 9C       .byte $9C
PRG:06FF1: DC DD 9B NOP $9BDD
PRG:06FF4: 9C       .byte $9C
PRG:06FF5: DC DD 8D NOP $8DDD
PRG:06FF8: 9C       .byte $9C
PRG:06FF9: DC DD 9B NOP $9BDD
PRG:06FFC: 9C       .byte $9C
PRG:06FFD: DC DD 9B NOP $9BDD
PRG:07000: 9C       .byte $9C
PRG:07001: DC DD 8D NOP $8DDD
PRG:07004: 9C       .byte $9C
PRG:07005: DC DD 9B NOP $9BDD
PRG:07008: 9C       .byte $9C
PRG:07009: DC DD 8D NOP $8DDD
PRG:0700C: 8B       .byte $8B
PRG:0700D: 8C CC CD STY $CDCC
PRG:07010: 9B       .byte $9B
PRG:07011: 9C       .byte $9C
PRG:07012: DC DD 8D NOP $8DDD
PRG:07015: 9C       .byte $9C
PRG:07016: DC DD 9B NOP $9BDD
PRG:07019: 9C       .byte $9C
PRG:0701A: DC DD 8D NOP $8DDD
PRG:0701D: 9C       .byte $9C
PRG:0701E: DC DD 9B NOP $9BDD
PRG:07021: 9C       .byte $9C
PRG:07022: DC DD 8D NOP $8DDD
PRG:07025: 9C       .byte $9C
PRG:07026: DC DD 9B NOP $9BDD
PRG:07029: 9C       .byte $9C
PRG:0702A: DC DD 8D NOP $8DDD
PRG:0702D: 9C       .byte $9C
PRG:0702E: 9D 9E 9B STA $9B9E
PRG:07031: 9C       .byte $9C
PRG:07032: 8D 8E 8D STA $8D8E
PRG:07035: 9C       .byte $9C
PRG:07036: 8D 8E 9B STA $9B8E
PRG:07039: 9C       .byte $9C
PRG:0703A: 8D 8E 8D STA $8D8E
PRG:0703D: 9C       .byte $9C
PRG:0703E: 8D 8E 9B STA $9B8E
PRG:07041: 9C       .byte $9C
PRG:07042: 8D 8E 8D STA $8D8E
PRG:07045: 9C       .byte $9C
PRG:07046: 8D 8E 9B STA $9B8E
PRG:07049: 9C       .byte $9C
PRG:0704A: 8D 8E AE STA $AE8E
PRG:0704D: AF       .byte $AF
PRG:0704E: DC DD DC NOP $DCDD
PRG:07051: 9F       .byte $9F
PRG:07052: DC DD DC NOP $DCDD
PRG:07055: 9F       .byte $9F
PRG:07056: DC DD DC NOP $DCDD
PRG:07059: 9F       .byte $9F
PRG:0705A: DC DD DC NOP $DCDD
PRG:0705D: 9F       .byte $9F
PRG:0705E: DC DD DC NOP $DCDD
PRG:07061: 9F       .byte $9F
PRG:07062: DC DD DC NOP $DCDD
PRG:07065: 9F       .byte $9F
PRG:07066: DC DD DC NOP $DCDD
PRG:07069: 9F       .byte $9F
PRG:0706A: DC DD 9C NOP $9CDD
PRG:0706D: DC 9D 9E NOP $9E9D
PRG:07070: 9C       .byte $9C
PRG:07071: DC 8D 8E NOP $8E8D
PRG:07074: 9C       .byte $9C
PRG:07075: DC 8D 8E NOP $8E8D
PRG:07078: 9C       .byte $9C
PRG:07079: DC 8D 8E NOP $8E8D
PRG:0707C: 9C       .byte $9C
PRG:0707D: DC 8D 8E NOP $8E8D
PRG:07080: 9C       .byte $9C
PRG:07081: DC 8D 8E NOP $8E8D
PRG:07084: 9C       .byte $9C
PRG:07085: DC 8D 8E NOP $8E8D
PRG:07088: 9C       .byte $9C
PRG:07089: DC 8D 8E NOP $8E8D
PRG:0708C: 8B       .byte $8B
PRG:0708D: 8C CC CD STY $CDCC
PRG:07090: 9B       .byte $9B
PRG:07091: 9C       .byte $9C
PRG:07092: DC DD 8D NOP $8DDD
PRG:07095: 9C       .byte $9C
PRG:07096: DC DD 9B NOP $9BDD
PRG:07099: 9C       .byte $9C
PRG:0709A: DC DD AE NOP $AEDD
PRG:0709D: AF       .byte $AF
PRG:0709E: DC DD DC NOP $DCDD
PRG:070A1: 9F       .byte $9F
PRG:070A2: DC DD DC NOP $DCDD
PRG:070A5: 9F       .byte $9F
PRG:070A6: DC DD DC NOP $DCDD
PRG:070A9: 9F       .byte $9F
PRG:070AA: DC DD DC NOP $DCDD
PRG:070AD: 9F       .byte $9F
PRG:070AE: DC DD DC NOP $DCDD
PRG:070B1: 9F       .byte $9F
PRG:070B2: DC DD DC NOP $DCDD
PRG:070B5: 9F       .byte $9F
PRG:070B6: DC DD DC NOP $DCDD
PRG:070B9: 9F       .byte $9F
PRG:070BA: DC DD 8D NOP $8DDD
PRG:070BD: 9C       .byte $9C
PRG:070BE: DC DD 9B NOP $9BDD
PRG:070C1: 9C       .byte $9C
PRG:070C2: DC DD 8D NOP $8DDD
PRG:070C5: 9C       .byte $9C
PRG:070C6: DC DD 9B NOP $9BDD
PRG:070C9: 9C       .byte $9C
PRG:070CA: DC DD 8C NOP $8CDD
PRG:070CD: CC CC CD CPY $CDCC
PRG:070D0: 9C       .byte $9C
PRG:070D1: DC DC DD NOP $DDDC
PRG:070D4: 9C       .byte $9C
PRG:070D5: DC DC DD NOP $DDDC
PRG:070D8: 9C       .byte $9C
PRG:070D9: DC DC DD NOP $DDDC
PRG:070DC: 00 55    BRK $55
PRG:070DE: 55 55    EOR $55
PRG:070E0: 55 00    EOR $00
PRG:070E2: 55 55    EOR $55
PRG:070E4: 55 55    EOR $55
PRG:070E6: 00 00    BRK $00
PRG:070E8: AF       .byte $AF
PRG:070E9: AF       .byte $AF
PRG:070EA: AF       .byte $AF
PRG:070EB: 00 00    BRK $00
PRG:070ED: 00 00    BRK $00
PRG:070EF: FF       .byte $FF
PRG:070F0: AA       TAX
PRG:070F1: AA       TAX
PRG:070F2: FF       .byte $FF
PRG:070F3: 55 55    EOR $55
PRG:070F5: 55 55    EOR $55
PRG:070F7: 55 55    EOR $55
PRG:070F9: 55 55    EOR $55
PRG:070FB: 55 55    EOR $55
PRG:070FD: 55 55    EOR $55
PRG:070FF: 55 55    EOR $55
PRG:07101: 55 EF    EOR $EF
PRG:07103: AA       TAX
PRG:07104: AF       .byte $AF
PRG:07105: 00 00    BRK $00
PRG:07107: 55 55    EOR $55
PRG:07109: 55 55    EOR $55
PRG:0710B: 55 55    EOR $55
PRG:0710D: 55 55    EOR $55
PRG:0710F: 55 55    EOR $55
PRG:07111: 55 55    EOR $55
PRG:07113: 55 55    EOR $55
PRG:07115: 55 55    EOR $55
PRG:07117: 55 0E    EOR $0E
PRG:07119: F2       .byte $F2
PRG:0711A: 29 F2    AND $F2
PRG:0711C: 68       PLA
PRG:0711D: F2       .byte $F2
PRG:0711E: B4 F4    LDY $F4
PRG:07120: 00 00    BRK $00
PRG:07122: A7       .byte $A7
PRG:07123: F5 B8    SBC $B8
PRG:07125: F7       .byte $F7
PRG:07126: 16 F8    ASL $F8
PRG:07128: 56 F8    LSR $F8
PRG:0712A: F0 FC    BEQ $FC
PRG:0712C: 79 FF E4 ADC $E4FF
PRG:0712F: FD 14 F6 SBC $F614
PRG:07132: 00 00    BRK $00
PRG:07134: D7       .byte $D7
PRG:07135: F6 99    INC $99
PRG:07137: F8       SED
PRG:07138: B0 F8    BCS $F8
PRG:0713A: F3       .byte $F3
PRG:0713B: F8       SED
PRG:0713C: 4A       LSR
PRG:0713D: F9 AD F9 SBC $F9AD
PRG:07140: FA       NOP
PRG:07141: F9 F0 FC SBC $FCF0
PRG:07144: 79 FF FF ADC $FFFF
PRG:07147: FD 8A FA SBC $FA8A
PRG:0714A: E9 FA    SBC $FA
PRG:0714C: 41 FB    EOR $FB
PRG:0714E: 00 00    BRK $00
PRG:07150: 29 F2    AND $F2
PRG:07152: FC F2 B4 NOP $B4F2
PRG:07155: F4 00    NOP $00
PRG:07157: 00 F4    BRK $F4
PRG:07159: F6 F0    INC $F0
PRG:0715B: FC 80 FF NOP $FF80
PRG:0715E: 2C FE A6 BIT $A6FE
PRG:07161: F2       .byte $F2
PRG:07162: 29 F2    AND $F2
PRG:07164: 68       PLA
PRG:07165: F2       .byte $F2
PRG:07166: 69 F3    ADC $F3
PRG:07168: 00 00    BRK $00
PRG:0716A: DB       .byte $DB
PRG:0716B: F3       .byte $F3
PRG:0716C: D8       CLD
PRG:0716D: FB       .byte $FB
PRG:0716E: 19 FC 54 ORA $54FC
PRG:07171: FC F0 FC NOP $FCF0
PRG:07174: 80 FF    NOP $FF
PRG:07176: 74 FE    NOP $FE
PRG:07178: 14 F6    NOP $F6
PRG:0717A: 58       CLI
PRG:0717B: F7       .byte $F7
PRG:0717C: 74 F7    NOP $F7
PRG:0717E: 4A       LSR
PRG:0717F: F9 AD F9 SBC $F9AD
PRG:07182: 09 FA    ORA $FA
PRG:07184: 8A       TXA
PRG:07185: FA       NOP
PRG:07186: E9 FA    SBC $FA
PRG:07188: 5B       .byte $5B
PRG:07189: FB       .byte $FB
PRG:0718A: F0 FC    BEQ $FC
PRG:0718C: 80 FF    NOP $FF
PRG:0718E: C2       .byte $C2
PRG:0718F: FE B4 F4 INC $F4B4
PRG:07192: 9D F5 CA STA $CAF5
PRG:07195: F5 B8    SBC $B8
PRG:07197: F7       .byte $F7
PRG:07198: 16 F8    ASL $F8
PRG:0719A: 65 F8    ADC $F8
PRG:0719C: 69 F3    ADC $F3
PRG:0719E: 7E F4 0E ROR $0EF4
PRG:071A1: F4 F0    NOP $F0
PRG:071A3: FC 7B FD NOP $FD7B
PRG:071A6: F8       SED
PRG:071A7: FE D8 FB INC $FBD8
PRG:071AA: 19 FC 91 ORA $91FC
PRG:071AD: FC 14 F6 NOP $F614
PRG:071B0: 58       CLI
PRG:071B1: F7       .byte $F7
PRG:071B2: 8E F7 4A STX $4AF7
PRG:071B5: F9 AD F9 SBC $F9AD
PRG:071B8: 3C FA F0 NOP $F0FA
PRG:071BB: FC 7B FD NOP $FD7B
PRG:071BE: 05 FF    ORA $FF
PRG:071C0: 69 F3    ADC $F3
PRG:071C2: 87       .byte $87
PRG:071C3: F4 0E    NOP $0E
PRG:071C5: F4 B4    NOP $B4
PRG:071C7: F4 CA    NOP $CA
PRG:071C9: F5 2C    SBC $2C
PRG:071CB: F7       .byte $F7
PRG:071CC: 8A       TXA
PRG:071CD: FA       NOP
PRG:071CE: E9 FA    SBC $FA
PRG:071D0: 8C FB F0 STY $F0FB
PRG:071D3: FC 7B FD NOP $FD7B
PRG:071D6: 4C FF 87 JMP $87FF
PRG:071D9: FF       .byte $FF
PRG:071DA: 00 00    BRK $00
PRG:071DC: 00 00    BRK $00
PRG:071DE: 87       .byte $87
PRG:071DF: FF       .byte $FF
PRG:071E0: AD FF 00 LDA $00FF
PRG:071E3: 00 87    BRK $87
PRG:071E5: FF       .byte $FF
PRG:071E6: C1 FF    CMP $FF
PRG:071E8: 00 00    BRK $00
PRG:071EA: 87       .byte $87
PRG:071EB: FF       .byte $FF
PRG:071EC: D5 FF    CMP $FF
PRG:071EE: 00 00    BRK $00
PRG:071F0: 87       .byte $87
PRG:071F1: FF       .byte $FF
PRG:071F2: AD FF 00 LDA $00FF
PRG:071F5: 00 87    BRK $87
PRG:071F7: FF       .byte $FF
PRG:071F8: C1 FF    CMP $FF
PRG:071FA: 00 00    BRK $00
PRG:071FC: 87       .byte $87
PRG:071FD: FF       .byte $FF
PRG:071FE: D5 FF    CMP $FF
PRG:07200: AD FF 87 LDA $87FF
PRG:07203: FF       .byte $FF
PRG:07204: C1 FF    CMP $FF
PRG:07206: D5 FF    CMP $FF
PRG:07208: 87       .byte $87
PRG:07209: FF       .byte $FF
PRG:0720A: AD FF C1 LDA $C1FF
PRG:0720D: FF       .byte $FF
PRG:0720E: 62       .byte $62
PRG:0720F: 19 C9 58 ORA $58C9
PRG:07212: 75 6E    ADC $6E
PRG:07214: C2       .byte $C2
PRG:07215: 14 32    NOP $32
PRG:07217: 2B       .byte $2B
PRG:07218: 60       RTS
PRG:07219: 9C       .byte $9C
PRG:0721A: A0 2C    LDY $2C
PRG:0721C: EF       .byte $EF
PRG:0721D: E0 67    CPX $67
PRG:0721F: 7D 03 3B ADC $3B03
PRG:07222: F2       .byte $F2
PRG:07223: 19 D8 80 ORA $80D8
PRG:07226: 86 A0    STX $A0
PRG:07228: 00 0A    BRK $0A
PRG:0722A: 51 28    EOR $28
PRG:0722C: 83       .byte $83
PRG:0722D: B4 11    LDY $11
PRG:0722F: 20 79 13 JSR $1379
PRG:07232: 29 1F    AND $1F
PRG:07234: 41 AA    EOR $AA
PRG:07236: 21 D0    AND $D0
PRG:07238: 4C 90 34 JMP $3490
PRG:0723B: 04 A2    NOP $A2
PRG:0723D: 55 11    EOR $11
PRG:0723F: 28       PLP
PRG:07240: 05 4E    ORA $4E
PRG:07242: E3       .byte $E3
PRG:07243: 22       .byte $22
PRG:07244: 61 00    ADC $00
PRG:07246: 69 92    ADC $92
PRG:07248: 40       RTI
PRG:07249: 42       .byte $42
PRG:0724A: 26 91    ROL $91
PRG:0724C: 2E 80 F5 ROL $F580
PRG:0724F: 06 A6    ASL $A6
PRG:07251: 3D 22 A8 AND $A822
PRG:07254: 0C 44 B2 NOP $B244
PRG:07257: 4D 51 5E EOR $5E51
PRG:0725A: 88       DEY
PRG:0725B: 34 59    NOP $59
PRG:0725D: A4 11    LDY $11
PRG:0725F: 32       .byte $32
PRG:07260: 48       PHA
PRG:07261: A6 43    LDX $43
PRG:07263: E8       INX
PRG:07264: 28       PLP
PRG:07265: 51 38    EOR $38
PRG:07267: 00 14    BRK $14
PRG:07269: 1C 38 71 NOP $7138
PRG:0726C: 83       .byte $83
PRG:0726D: 84 1C    STY $1C
PRG:0726F: 40       RTI
PRG:07270: 23       .byte $23
PRG:07271: 81 10    STA $10
PRG:07273: 38       SEC
PRG:07274: E1 C2    SBC $C2
PRG:07276: 0E 12 75 ASL $7512
PRG:07279: 38       SEC
PRG:0727A: 72       .byte $72
PRG:0727B: C8       INY
PRG:0727C: 12       .byte $12
PRG:0727D: 90 93    BCC $93
PRG:0727F: 41 0E    EOR $0E
PRG:07281: 24 B0    BIT $B0
PRG:07283: 49 98    EOR $98
PRG:07285: 18       CLC
PRG:07286: 10 80    BPL $80
PRG:07288: 87       .byte $87
PRG:07289: 02       .byte $02
PRG:0728A: 78       SEI
PRG:0728B: 36 02    ROL $02
PRG:0728D: 14 10    NOP $10
PRG:0728F: A0 82    LDY $82
PRG:07291: 1C 40 18 NOP $1840
PRG:07294: C0 D7    CPY $D7
PRG:07296: 30 20    BMI $20
PRG:07298: 13       .byte $13
PRG:07299: C7       .byte $C7
PRG:0729A: 0E 08 F0 ASL $F008
PRG:0729D: 41 02    EOR $02
PRG:0729F: 14 70    NOP $70
PRG:072A1: 63       .byte $63
PRG:072A2: 97       .byte $97
PRG:072A3: 1B       .byte $1B
PRG:072A4: 00 00    BRK $00
PRG:072A6: 0B       .byte $0B
PRG:072A7: 83       .byte $83
PRG:072A8: 10 18    BPL $18
PRG:072AA: 80 C0    NOP $C0
PRG:072AC: 14 D0    NOP $D0
PRG:072AE: E0 C7    CPX $C7
PRG:072B0: 2E 05 61 ROL $6105
PRG:072B3: C2       .byte $C2
PRG:072B4: 0A       ASL
PRG:072B5: 10 49    BPL $49
PRG:072B7: 02       .byte $02
PRG:072B8: 82       .byte $82
PRG:072B9: 14 F0    NOP $F0
PRG:072BB: 11 81    ORA $81
PRG:072BD: 14 08    NOP $08
PRG:072BF: 20 43 02 JSR $0243
PRG:072C2: 08       PHP
PRG:072C3: 10 C0    BPL $C0
PRG:072C5: 82       .byte $82
PRG:072C6: 04 30    NOP $30
PRG:072C8: 12       .byte $12
PRG:072C9: C4 80    CPY $80
PRG:072CB: 28       PLP
PRG:072CC: 11 20    ORA $20
PRG:072CE: 89       .byte $89
PRG:072CF: 44 48    NOP $48
PRG:072D1: 42       .byte $42
PRG:072D2: 42       .byte $42
PRG:072D3: 12       .byte $12
PRG:072D4: 50 90    BVC $90
PRG:072D6: 05 02    ORA $02
PRG:072D8: 24 70    BIT $70
PRG:072DA: 2F       .byte $2F
PRG:072DB: 81 3C    STA $3C
PRG:072DD: CA       DEX
PRG:072DE: E1 08    SBC $08
PRG:072E0: 0A       ASL
PRG:072E1: 60       RTS
PRG:072E2: 52       .byte $52
PRG:072E3: 82       .byte $82
PRG:072E4: AE 0C 60 LDX $600C
PRG:072E7: 62       .byte $62
PRG:072E8: 03       .byte $03
PRG:072E9: 58       CLI
PRG:072EA: 12       .byte $12
PRG:072EB: C0 51    CPY $51
PRG:072ED: 62       .byte $62
PRG:072EE: 5B       .byte $5B
PRG:072EF: 63       .byte $63
PRG:072F0: 83       .byte $83
PRG:072F1: 9A       TXS
PRG:072F2: EC 40 87 CPX $8740
PRG:072F5: 60       RTS
PRG:072F6: 44 3B    NOP $3B
PRG:072F8: 03       .byte $03
PRG:072F9: 24 CC    BIT $CC
PRG:072FB: 00 05    BRK $05
PRG:072FD: 9C       .byte $9C
PRG:072FE: 30 11    BMI $11
PRG:07300: 41 0C    EOR $0C
PRG:07302: 14 10    NOP $10
PRG:07304: 90 85    BCC $85
PRG:07306: 10 11    BPL $11
PRG:07308: 00 84    BRK $84
PRG:0730A: 04 20    NOP $20
PRG:0730C: 22       .byte $22
PRG:0730D: 00 C6    BRK $C6
PRG:0730F: 06 50    ASL $50
PRG:07311: 55 0E    EOR $0E
PRG:07313: 24 11    BIT $11
PRG:07315: 00 A5    BRK $A5
PRG:07317: 01 18    ORA $18
PRG:07319: 08       PHP
PRG:0731A: C0 44    CPY $44
PRG:0731C: 32       .byte $32
PRG:0731D: 58       CLI
PRG:0731E: 22       .byte $22
PRG:0731F: 41 04    EOR $04
PRG:07321: 0C 20 A2 NOP $A220
PRG:07324: 02       .byte $02
PRG:07325: 08       PHP
PRG:07326: 18       CLC
PRG:07327: C0 82    CPY $82
PRG:07329: 06 30    ASL $30
PRG:0732B: 20 81 A4 JSR $A481
PRG:0732E: 60       RTS
PRG:0732F: 93       .byte $93
PRG:07330: 81 A0    STA $A0
PRG:07332: 19 01 40 ORA $4001
PRG:07335: 8E 0E 72 STX $720E
PRG:07338: 24 81    BIT $81
PRG:0733A: 8C 04 60 STY $6004
PRG:0733D: 63       .byte $63
PRG:0733E: 02       .byte $02
PRG:0733F: 18       CLC
PRG:07340: 18       CLC
PRG:07341: C0 46    CPY $46
PRG:07343: 06 B1    ASL $B1
PRG:07345: C1 01    CMP $01
PRG:07347: 04 08    NOP $08
PRG:07349: 20 41 02 JSR $0241
PRG:0734C: 28       PLP
PRG:0734D: 08       PHP
PRG:0734E: 40       RTI
PRG:0734F: 42       .byte $42
PRG:07350: 04 10    NOP $10
PRG:07352: 23       .byte $23
PRG:07353: 06 08    ASL $08
PRG:07355: 30 41    BMI $41
PRG:07357: 82       .byte $82
PRG:07358: 0C 10 60 NOP $6010
PRG:0735B: 83       .byte $83
PRG:0735C: 04 18    NOP $18
PRG:0735E: 20 C1 87 JSR $87C1
PRG:07361: 88       DEY
PRG:07362: 3C 41 E2 NOP $E241
PRG:07365: 0F       .byte $0F
PRG:07366: 0A       ASL
PRG:07367: 7C 00 05 NOP $0500
PRG:0736A: 91 18    STA $18
PRG:0736C: 81 41    STA $41
PRG:0736E: 40       RTI
PRG:0736F: 88       DEY
PRG:07370: 15 C0    ORA $C0
PRG:07372: 08       PHP
PRG:07373: 06 4C    ASL $4C
PRG:07375: 40       RTI
PRG:07376: 22       .byte $22
PRG:07377: 02       .byte $02
PRG:07378: 00 90    BRK $90
PRG:0737A: 84 80    STY $80
PRG:0737C: 04 30    NOP $30
PRG:0737E: E1 84    SBC $84
PRG:07380: 88       DEY
PRG:07381: 24 72    BIT $72
PRG:07383: 07       .byte $07
PRG:07384: 87       .byte $87
PRG:07385: 00 29    BRK $29
PRG:07387: 04 42    NOP $42
PRG:07389: 22       .byte $22
PRG:0738A: 20 71 81 JSR $8171
PRG:0738D: 88       DEY
PRG:0738E: 08       PHP
PRG:0738F: 12       .byte $12
PRG:07390: 00 83    BRK $83
PRG:07392: 28       PLP
PRG:07393: 9D 36 10 STA $1036
PRG:07396: A0 41    LDY $41
PRG:07398: 01 18    ORA $18
PRG:0739A: 08       PHP
PRG:0739B: C0 86    CPY $86
PRG:0739D: 2A       ROL
PRG:0739E: 11 50    ORA $50
PRG:073A0: 8A       TXA
PRG:073A1: A0 70    LDY $70
PRG:073A3: 80 62    NOP $62
PRG:073A5: 03       .byte $03
PRG:073A6: 08       PHP
PRG:073A7: 18       CLC
PRG:073A8: 11 07    ORA $07
PRG:073AA: 98       TYA
PRG:073AB: 10 C0    BPL $C0
PRG:073AD: 86 62    STX $62
PRG:073AF: B1 11    LDA $11
PRG:073B1: B8       CLV
PRG:073B2: 30 20    BMI $20
PRG:073B4: 88       DEY
PRG:073B5: 0C 08 22 NOP $2208
PRG:073B8: 03       .byte $03
PRG:073B9: 02       .byte $02
PRG:073BA: 08       PHP
PRG:073BB: 80 C0    NOP $C0
PRG:073BD: 82       .byte $82
PRG:073BE: 20 51 43 JSR $4351
PRG:073C1: 22       .byte $22
PRG:073C2: 07       .byte $07
PRG:073C3: 44 42    NOP $42
PRG:073C5: 22       .byte $22
PRG:073C6: 11 E2    ORA $E2
PRG:073C8: 88       DEY
PRG:073C9: 10 40    BPL $40
PRG:073CB: 82       .byte $82
PRG:073CC: 04 10    NOP $10
PRG:073CE: 20 91 04 JSR $0491
PRG:073D1: 88       DEY
PRG:073D2: 24 58    BIT $58
PRG:073D4: F5 09    SBC $09
PRG:073D6: 88       DEY
PRG:073D7: 4C 42 70 JMP $7042
PRG:073DA: 00 24    BRK $24
PRG:073DC: 98       TYA
PRG:073DD: AA       TAX
PRG:073DE: CC A0 C5 CPY $C5A0
PRG:073E1: 00 E5    BRK $E5
PRG:073E3: 15 10    ORA $10
PRG:073E5: A8       TAY
PRG:073E6: 85 58    STA $58
PRG:073E8: 1C F0 1D NOP $1DF0
PRG:073EB: 44 09    NOP $09
PRG:073ED: 03       .byte $03
PRG:073EE: C2       .byte $C2
PRG:073EF: 1E A0 11 ASL $11A0
PRG:073F2: 87       .byte $87
PRG:073F3: F2       .byte $F2
PRG:073F4: E2       .byte $E2
PRG:073F5: 88       DEY
PRG:073F6: 14 30    NOP $30
PRG:073F8: 90 84    BCC $84
PRG:073FA: 90 28    BCC $28
PRG:073FC: 01 28    ORA $28
PRG:073FE: 0B       .byte $0B
PRG:073FF: 20 59 D1 JSR $D159
PRG:07402: 4B       .byte $4B
PRG:07403: AA       TAX
PRG:07404: 11 50    ORA $50
PRG:07406: 8A       TXA
PRG:07407: 8C 3C 41 STY $413C
PRG:0740A: E3       .byte $E3
PRG:0740B: 0A       ASL
PRG:0740C: 80 00    NOP $00
PRG:0740E: 1D 89 10 ORA $1089
PRG:07411: 48       PHA
PRG:07412: 42       .byte $42
PRG:07413: 84 14    STY $14
PRG:07415: 30 91    BMI $91
PRG:07417: 04 9A    NOP $9A
PRG:07419: 34 30    NOP $30
PRG:0741B: 4A       LSR
PRG:0741C: 02       .byte $02
PRG:0741D: 20 22 40 JSR $4022
PRG:07420: 82       .byte $82
PRG:07421: 30 10    BMI $10
PRG:07423: F1 07    SBC $07
PRG:07425: 88       DEY
PRG:07426: 3C 81 E5 NOP $E581
PRG:07429: 01 38    ORA $38
PRG:0742B: 78       SEI
PRG:0742C: 43       .byte $43
PRG:0742D: C2       .byte $C2
PRG:0742E: 1E 10 F2 ASL $F210
PRG:07431: 03       .byte $03
PRG:07432: 88       DEY
PRG:07433: 1C C0 43 NOP $43C0
PRG:07436: 02       .byte $02
PRG:07437: 60       RTS
PRG:07438: 78       SEI
PRG:07439: 83       .byte $83
PRG:0743A: F2       .byte $F2
PRG:0743B: B1 E2    LDA $E2
PRG:0743D: 0F       .byte $0F
PRG:0743E: 10 78    BPL $78
PRG:07440: 83       .byte $83
PRG:07441: C8       INY
PRG:07442: 1E 20 F1 ASL $F120
PRG:07445: 07       .byte $07
PRG:07446: 8C 3C 21 STY $213C
PRG:07449: E1 02    SBC $02
PRG:0744B: 10 78    BPL $78
PRG:0744D: 43       .byte $43
PRG:0744E: D4 16    NOP $16
PRG:07450: 08       PHP
PRG:07451: B0 4E    BCS $4E
PRG:07453: 90 08    BCC $08
PRG:07455: 60       RTS
PRG:07456: 47       .byte $47
PRG:07457: B6 14    LDX $14
PRG:07459: 08       PHP
PRG:0745A: 6D 85 02 ADC $0285
PRG:0745D: 1B       .byte $1B
PRG:0745E: 61 40    ADC $40
PRG:07460: 86 D8    STX $D8
PRG:07462: 50 21    BVC $21
PRG:07464: B6 14    LDX $14
PRG:07466: 08       PHP
PRG:07467: 6D 85 02 ADC $0285
PRG:0746A: 1B       .byte $1B
PRG:0746B: 61 0E    ADC $0E
PRG:0746D: 12       .byte $12
PRG:0746E: D8       CLD
PRG:0746F: 40       RTI
PRG:07470: 41 02    EOR $02
PRG:07472: 08       PHP
PRG:07473: E9 83    SBC $83
PRG:07475: C4 1E    CPY $1E
PRG:07477: 20 F0 E7 JSR $E7F0
PRG:0747A: A5 16    LDA $16
PRG:0747C: 00 00    BRK $00
PRG:0747E: 89       .byte $89
PRG:0747F: 98       TYA
PRG:07480: D4 C1    NOP $C1
PRG:07482: 10 C9    BPL $C9
PRG:07484: 43       .byte $43
PRG:07485: 30 00    BMI $00
PRG:07487: 1A       NOP
PRG:07488: 87       .byte $87
PRG:07489: 38       SEC
PRG:0748A: 38       SEC
PRG:0748B: 46 52    LSR $52
PRG:0748D: 0E 88 1A ASL $1A88
PRG:07490: 28       PLP
PRG:07491: A9 21    LDA $21
PRG:07493: C4 0E    CPY $0E
PRG:07495: 30 70    BMI $70
PRG:07497: 83       .byte $83
PRG:07498: D8       CLD
PRG:07499: 61 EF    ADC $EF
PRG:0749B: 13       .byte $13
PRG:0749C: 2E 19 D2 ROL $D219
PRG:0749F: 47       .byte $47
PRG:074A0: 94 C5    STY $C5
PRG:074A2: 06 1C    ASL $1C
PRG:074A4: B3       .byte $B3
PRG:074A5: 8A       TXA
PRG:074A6: 94 1C    STY $1C
PRG:074A8: 54 A0    NOP $A0
PRG:074AA: E2       .byte $E2
PRG:074AB: A5 B0    LDA $B0
PRG:074AD: E3       .byte $E3
PRG:074AE: 07       .byte $07
PRG:074AF: 58       CLI
PRG:074B0: 39 41 E0 AND $E041
PRG:074B3: 00 0A    BRK $0A
PRG:074B5: 91 16    STA $16
PRG:074B7: 80 3E    NOP $3E
PRG:074B9: C0 03    CPY $03
PRG:074BB: 46 1B    LSR $1B
PRG:074BD: BF       .byte $BF
PRG:074BE: 81 08    STA $08
PRG:074C0: 04 EC    NOP $EC
PRG:074C2: 20 67 7F JSR $7F67
PRG:074C5: 03       .byte $03
PRG:074C6: 3B       .byte $3B
PRG:074C7: 08       PHP
PRG:074C8: 08       PHP
PRG:074C9: 90 8E    BCC $8E
PRG:074CB: FE 04 26 INC $2604
PRG:074CE: 13       .byte $13
PRG:074CF: B0 20    BCS $20
PRG:074D1: 88       DEY
PRG:074D2: 88       DEY
PRG:074D3: 40       RTI
PRG:074D4: 71 C2    ADC $C2
PRG:074D6: 0E 0C 98 ASL $980C
PRG:074D9: 23       .byte $23
PRG:074DA: 87       .byte $87
PRG:074DB: 76 10    ROR $10
PRG:074DD: 43       .byte $43
PRG:074DE: AF       .byte $AF
PRG:074DF: 80 48    NOP $48
PRG:074E1: 16 48    ASL $48
PRG:074E3: A7       .byte $A7
PRG:074E4: 60       RTS
PRG:074E5: 49 3B    EOR $3B
PRG:074E7: F0 08    BEQ $08
PRG:074E9: 88       DEY
PRG:074EA: 28       PLP
PRG:074EB: C3       .byte $C3
PRG:074EC: 76 00    ROR $00
PRG:074EE: 33       .byte $33
PRG:074EF: BF       .byte $BF
PRG:074F0: 00 69    BRK $69
PRG:074F2: 03       .byte $03
PRG:074F3: 8C 37 60 STY $6037
PRG:074F6: 00 10    BRK $10
PRG:074F8: 0D 28 6E ORA $6E28
PRG:074FB: FC 02 22 NOP $2202
PRG:074FE: 23       .byte $23
PRG:074FF: B0 00    BCS $00
PRG:07501: D4 82    NOP $82
PRG:07503: 44 27    NOP $27
PRG:07505: 7E 01 A5 ROR $A501
PRG:07508: 0D D8 00 ORA $00D8
PRG:0750B: CE FC 02 DEC $02FC
PRG:0750E: 20 23 B0 JSR $B023
PRG:07511: 20 D2 84 JSR $84D2
PRG:07514: 4C 17 7E JMP $7E17
PRG:07517: 01 A9    ORA $A9
PRG:07519: 04 98    NOP $98
PRG:0751B: A8       TAY
PRG:0751C: C2       .byte $C2
PRG:0751D: 24 0B    BIT $0B
PRG:0751F: BF       .byte $BF
PRG:07520: 01 9D    ORA $9D
PRG:07522: 80 0B    NOP $0B
PRG:07524: 50 0F    BVC $0F
PRG:07526: 62       .byte $62
PRG:07527: 03       .byte $03
PRG:07528: 3B       .byte $3B
PRG:07529: 02       .byte $02
PRG:0752A: 11 42    ORA $42
PRG:0752C: 81 96    STA $96
PRG:0752E: 20 72 80 JSR $8072
PRG:07531: C8       INY
PRG:07532: 02       .byte $02
PRG:07533: 8C 12 01 STY $0112
PRG:07536: 10 22    BPL $22
PRG:07538: 99 04 85 STA $8504
PRG:0753B: A0 38    LDY $38
PRG:0753D: 60       RTS
PRG:0753E: C9 82    CMP $82
PRG:07540: 18       CLC
PRG:07541: 40       RTI
PRG:07542: C3       .byte $C3
PRG:07543: 3B       .byte $3B
PRG:07544: 08       PHP
PRG:07545: 19 D8 10 ORA $10D8
PRG:07548: CE C8 00 DEC $00C8
PRG:0754B: 24 12    BIT $12
PRG:0754D: 41 9D    EOR $9D
PRG:0754F: 81 00    STA $00
PRG:07551: 4C 67 64 JMP $6467
PRG:07554: 03       .byte $03
PRG:07555: 3B       .byte $3B
PRG:07556: 35 01    AND $01
PRG:07558: DF       .byte $DF
PRG:07559: A8       TAY
PRG:0755A: 14 42    NOP $42
PRG:0755C: A6 11    LDX $11
PRG:0755E: 10 49    BPL $49
PRG:07560: B4 EF    LDY $EF
PRG:07562: E0 67    CPX $67
PRG:07564: 60       RTS
PRG:07565: 41 10    EOR $10
PRG:07567: 11 D8    ORA $D8
PRG:07569: C0 8E    CPY $8E
PRG:0756B: 84 40    STY $40
PRG:0756D: 22       .byte $22
PRG:0756E: 41 00    EOR $00
PRG:07570: 1D 84 0C ORA $0C84
PRG:07573: 48       PHA
PRG:07574: 27       .byte $27
PRG:07575: 7F       .byte $7F
PRG:07576: 03       .byte $03
PRG:07577: 10 09    BPL $09
PRG:07579: DF       .byte $DF
PRG:0757A: E0 0E    CPX $0E
PRG:0757C: CF       .byte $CF
PRG:0757D: 06 22    ASL $22
PRG:0757F: 13       .byte $13
PRG:07580: B0 01    BCS $01
PRG:07582: 9F       .byte $9F
PRG:07583: 89       .byte $89
PRG:07584: 0C 00 44 NOP $4400
PRG:07587: 82       .byte $82
PRG:07588: 20 3B 00 JSR $003B
PRG:0758B: 19 DF E0 ORA $E0DF
PRG:0758E: 0E CF 04 ASL $04CF
PRG:07591: 76 10    ROR $10
PRG:07593: 33       .byte $33
PRG:07594: F1 21    SBC $21
PRG:07596: 80 0A    NOP $0A
PRG:07598: 14 EC    NOP $EC
PRG:0759A: 06 00    ASL $00
PRG:0759C: 00 09    BRK $09
PRG:0759E: 1D BB 9A ORA $9ABB
PRG:075A1: E3       .byte $E3
PRG:075A2: 47       .byte $47
PRG:075A3: 34 C3    NOP $C3
PRG:075A5: 30 00    BMI $00
PRG:075A7: 06 3B    ASL $3B
PRG:075A9: 08       PHP
PRG:075AA: 18       CLC
PRG:075AB: E4 8C    CPX $8C
PRG:075AD: EC 41 13 CPX $1341
PRG:075B0: 28       PLP
PRG:075B1: BB       .byte $BB
PRG:075B2: 08       PHP
PRG:075B3: 19 D8 C0 ORA $C0D8
PRG:075B6: CE C2 13 DEC $13C2
PRG:075B9: 31 67    AND $67
PRG:075BB: 3B       .byte $3B
PRG:075BC: 00 C5    BRK $C5
PRG:075BE: 1D 88 0C ORA $0C88
PRG:075C1: 71 04    ADC $04
PRG:075C3: A2 23    LDX $23
PRG:075C5: E9 DC    SBC $DC
PRG:075C7: 98       TYA
PRG:075C8: 40       RTI
PRG:075C9: 00 0E    BRK $0E
PRG:075CB: A8       TAY
PRG:075CC: 21 28    AND $28
PRG:075CE: CA       DEX
PRG:075CF: 0A       ASL
PRG:075D0: 4A       LSR
PRG:075D1: 12       .byte $12
PRG:075D2: 50 D4    BVC $D4
PRG:075D4: 06 A0    ASL $A0
PRG:075D6: 34 65    NOP $65
PRG:075D8: 82       .byte $82
PRG:075D9: 45 41    EOR $41
PRG:075DB: 09 46    ORA $46
PRG:075DD: 74 06    NOP $06
PRG:075DF: 53       .byte $53
PRG:075E0: B0 97    BCS $97
PRG:075E2: 92       .byte $92
PRG:075E3: 8A       TXA
PRG:075E4: A5 24    LDA $24
PRG:075E6: A7       .byte $A7
PRG:075E7: 25 15    AND $15
PRG:075E9: 4A       LSR
PRG:075EA: 4E C0 4C LSR $4CC0
PRG:075ED: 51 8A    EOR $8A
PRG:075EF: 3B       .byte $3B
PRG:075F0: 11 21    ORA $21
PRG:075F2: 00 60    BRK $60
PRG:075F4: 92       .byte $92
PRG:075F5: 08       PHP
PRG:075F6: 20 52 03 JSR $0352
PRG:075F9: 9E       .byte $9E
PRG:075FA: 30 E4    BMI $E4
PRG:075FC: 7B       .byte $7B
PRG:075FD: F8       SED
PRG:075FE: 56 12    LSR $12
PRG:07600: 88       DEY
PRG:07601: A0 94    LDY $94
PRG:07603: A2 25    LDX $25
PRG:07605: 49 22    EOR $22
PRG:07607: 09 09    ORA $09
PRG:07609: 50 42    BVC $42
PRG:0760B: 82       .byte $82
PRG:0760C: C4 80    CPY $80
PRG:0760E: 28       PLP
PRG:0760F: 21 43    AND $43
PRG:07611: 28       PLP
PRG:07612: 80 00    NOP $00
PRG:07614: 06 11    ASL $11
PRG:07616: 04 E0    NOP $E0
PRG:07618: E4 41    CPX $41
PRG:0761A: 1C 09 00 NOP $0009
PRG:0761D: C7       .byte $C7
PRG:0761E: 10 38    BPL $38
PRG:07620: 12       .byte $12
PRG:07621: 01 10    ORA $10
PRG:07623: 14 70    NOP $70
PRG:07625: A4 C3    LDY $C3
PRG:07627: 1C 19 23 NOP $2319
PRG:0762A: 91 88    STA $88
PRG:0762C: 44 07    NOP $07
PRG:0762E: 60       RTS
PRG:0762F: 02       .byte $02
PRG:07630: 28       PLP
PRG:07631: 11 D8    ORA $D8
PRG:07633: 40       RTI
PRG:07634: 04 04    NOP $04
PRG:07636: 52       .byte $52
PRG:07637: 19 00 5D ORA $5D00
PRG:0763A: 80 08    NOP $08
PRG:0763C: 94 47    STY $47
PRG:0763E: 61 00    ADC $00
PRG:07640: 10 20    BPL $20
PRG:07642: 88       DEY
PRG:07643: 0E C0 49 ASL $49C0
PRG:07646: 2A       ROL
PRG:07647: 21 3A    AND $3A
PRG:07649: 58       CLI
PRG:0764A: 88       DEY
PRG:0764B: 65 05    ADC $05
PRG:0764D: 76 22    ROR $22
PRG:0764F: 39 00 C8 AND $C800
PRG:07652: 06 40    ASL $40
PRG:07654: 26 C3    ROL $C3
PRG:07656: 1C 19 40 NOP $4019
PRG:07659: A4 43    LDY $43
PRG:0765B: 0C 20 61 NOP $6120
PRG:0765E: 03       .byte $03
PRG:0765F: 06 40    ASL $40
PRG:07661: 02       .byte $02
PRG:07662: 60       RTS
PRG:07663: 86 10    STX $10
PRG:07665: 30 81    BMI $81
PRG:07667: 84 0C    STY $0C
PRG:07669: 19 10 43 ORA $4310
PRG:0766C: 08       PHP
PRG:0766D: 18       CLC
PRG:0766E: 32       .byte $32
PRG:0766F: 20 86 10 JSR $1086
PRG:07672: 10 A4    BPL $A4
PRG:07674: 83       .byte $83
PRG:07675: 02       .byte $02
PRG:07676: 19 20 40 ORA $4020
PRG:07679: 8A       TXA
PRG:0767A: 45 50    EOR $50
PRG:0767C: E2       .byte $E2
PRG:0767D: 93       .byte $93
PRG:0767E: 21 DF    AND $DF
PRG:07680: 90 65    BCC $65
PRG:07682: 45 20    EOR $20
PRG:07684: 11 10    ORA $10
PRG:07686: 12       .byte $12
PRG:07687: 8C EC 00 STY $00EC
PRG:0768A: 02       .byte $02
PRG:0768B: 25 29    AND $29
PRG:0768D: 04 A0    NOP $A0
PRG:0768F: AE BE 42 LDX $42BE
PRG:07692: 24 62    BIT $62
PRG:07694: 30 88    BMI $88
PRG:07696: 8C EB E4 STY $E4EB
PRG:07699: 87       .byte $87
PRG:0769A: 5E 61 90 LSR $9061
PRG:0769D: 16 98    ASL $98
PRG:0769F: 73       .byte $73
PRG:076A0: 86 76    STX $76
PRG:076A2: 20 29 20 JSR $2029
PRG:076A5: 5D 84 08 EOR $0884
PRG:076A8: A1 13    LDA $13
PRG:076AA: 03       .byte $03
PRG:076AB: BB       .byte $BB
PRG:076AC: 08       PHP
PRG:076AD: 00 81    BRK $81
PRG:076AF: 04 40    NOP $40
PRG:076B1: 76 20    ROR $20
PRG:076B3: 43       .byte $43
PRG:076B4: B0 81    BCS $81
PRG:076B6: 48       PHA
PRG:076B7: 06 EC    ASL $EC
PRG:076B9: 40       RTI
PRG:076BA: C5 00    CMP $00
PRG:076BC: 91 0D    STA $0D
PRG:076BE: D8       CLD
PRG:076BF: 00 C4    BRK $C4
PRG:076C1: 42       .byte $42
PRG:076C2: 77       .byte $77
PRG:076C3: E0 43    CPX $43
PRG:076C5: B0 00    BCS $00
PRG:076C7: 89       .byte $89
PRG:076C8: 0C EF E4 NOP $E4EF
PRG:076CB: 87       .byte $87
PRG:076CC: 7E 00 91 ROR $9100
PRG:076CF: 14 A1    NOP $A1
PRG:076D1: 0E CC 09 ASL $09CC
PRG:076D4: 25 00    AND $00
PRG:076D6: 00 3C    BRK $3C
PRG:076D8: 19 79 D8 ORA $D879
PRG:076DB: 02       .byte $02
PRG:076DC: 0E C6 34 ASL $34C6
PRG:076DF: D3       .byte $D3
PRG:076E0: 28       PLP
PRG:076E1: B9 1C E5 LDA $E51C
PRG:076E4: 12       .byte $12
PRG:076E5: 20 90 A7 JSR $A790
PRG:076E8: 7F       .byte $7F
PRG:076E9: 1E F3 BE ASL $BEF3
PRG:076EC: D0 1D    BNE $1D
PRG:076EE: 8A       TXA
PRG:076EF: 80 EC    NOP $EC
PRG:076F1: F6 00    INC $00
PRG:076F3: 00 06    BRK $06
PRG:076F5: 3B       .byte $3B
PRG:076F6: 09 18    ORA $18
PRG:076F8: BA       TSX
PRG:076F9: 69 46    ADC $46
PRG:076FB: 4A       LSR
PRG:076FC: 62       .byte $62
PRG:076FD: 51 92    EOR $92
PRG:076FF: 86 8E    STX $8E
PRG:07701: 6A       ROR
PRG:07702: 74 06    NOP $06
PRG:07704: 53       .byte $53
PRG:07705: B0 92    BCS $92
PRG:07707: 8C D9 CE STY $CED9
PRG:0770A: C0 6F    CPY $6F
PRG:0770C: 23       .byte $23
PRG:0770D: 38       SEC
PRG:0770E: A3       .byte $A3
PRG:0770F: B1 01    LDA $01
PRG:07711: 8E 04 80 STX $8004
PRG:07714: 30 41    BMI $41
PRG:07716: 02       .byte $02
PRG:07717: 40       RTI
PRG:07718: 21 81    AND $81
PRG:0771A: CF       .byte $CF
PRG:0771B: 19 CB A8 ORA $A8CB
PRG:0771E: 45 42    EOR $42
PRG:07720: 49 10    EOR $10
PRG:07722: 48       PHA
PRG:07723: 73       .byte $73
PRG:07724: 9F       .byte $9F
PRG:07725: 43       .byte $43
PRG:07726: 84 84    STY $84
PRG:07728: 24 65    BIT $65
PRG:0772A: 10 00    BPL $00
PRG:0772C: 11 24    ORA $24
PRG:0772E: 49 21    EOR $21
PRG:07730: 89       .byte $89
PRG:07731: 26 84    ROL $84
PRG:07733: 85 24    STA $24
PRG:07735: A4 92    LDY $92
PRG:07737: 18       CLC
PRG:07738: 91 84    STA $84
PRG:0773A: 86 24    STX $24
PRG:0773C: 61 23    ADC $23
PRG:0773E: 09 06    ORA $06
PRG:07740: 33       .byte $33
PRG:07741: 8D 17 31 STA $3117
PRG:07744: 20 89 34 JSR $3489
PRG:07747: D3       .byte $D3
PRG:07748: 3C 69 93 NOP $9369
PRG:0774B: 12       .byte $12
PRG:0774C: F7       .byte $F7
PRG:0774D: 89       .byte $89
PRG:0774E: 4E 4A 3A LSR $3A4A
PRG:07751: 30 9C    BMI $9C
PRG:07753: 94 1E    STY $1E
PRG:07755: 96 00    STX $00
PRG:07757: 00 53    BRK $53
PRG:07759: 3B       .byte $3B
PRG:0775A: 19 B5 C2 ORA $C2B5
PRG:0775D: DF       .byte $DF
PRG:0775E: 62       .byte $62
PRG:0775F: 41 14    EOR $14
PRG:07761: 08       PHP
PRG:07762: 95 06    STA $06
PRG:07764: A2 A1    LDX $A1
PRG:07766: 05 2A    ORA $2A
PRG:07768: 28       PLP
PRG:07769: 21 42    AND $42
PRG:0776B: A3       .byte $A3
PRG:0776C: B9 64 88 LDA $8864
PRG:0776F: 24 F4    BIT $F4
PRG:07771: 94 40    STY $40
PRG:07773: 00 1A    BRK $1A
PRG:07775: B3       .byte $B3
PRG:07776: 20 DC D4 JSR $D4DC
PRG:07779: 8E 96 76 STX $7696
PRG:0777C: 01 8A    ORA $8A
PRG:0777E: 19 EB 9D ORA $9DEB
PRG:07781: FC 7B CE NOP $CE7B
PRG:07784: FB       .byte $FB
PRG:07785: 40       RTI
PRG:07786: 76 2A    ROR $2A
PRG:07788: 03       .byte $03
PRG:07789: B3       .byte $B3
PRG:0778A: D6 0C    DEC $0C
PRG:0778C: C0 00    CPY $00
PRG:0778E: 0A       ASL
PRG:0778F: A5 21    LDA $21
PRG:07791: 2A       ROL
PRG:07792: 09 44    ORA $44
PRG:07794: 4A       LSR
PRG:07795: 21 99    AND $99
PRG:07797: A9 28    LDA $28
PRG:07799: C2       .byte $C2
PRG:0779A: 29 67    AND $67
PRG:0779C: 60       RTS
PRG:0779D: 2D 81 18 AND $1881
PRG:077A0: 08       PHP
PRG:077A1: CD 0E 0B CMP $0B0E
PRG:077A4: 77       .byte $77
PRG:077A5: 45 C4    EOR $C4
PRG:077A7: C3       .byte $C3
PRG:077A8: 84 65    STY $65
PRG:077AA: C4 9D    CPY $9D
PRG:077AC: 73       .byte $73
PRG:077AD: BF       .byte $BF
PRG:077AE: 9F       .byte $9F
PRG:077AF: 79 D9 B8 ADC $B8D9
PRG:077B2: 0E C1 CF ASL $CFC1
PRG:077B5: 33       .byte $33
PRG:077B6: 00 00    BRK $00
PRG:077B8: 08       PHP
PRG:077B9: 9C       .byte $9C
PRG:077BA: 28       PLP
PRG:077BB: 59 C2 C6 EOR $C6C2
PRG:077BE: 16 60    ASL $60
PRG:077C0: B1 05    LDA $05
PRG:077C2: 88       DEY
PRG:077C3: 2C 60 23 BIT $2360
PRG:077C6: 0B       .byte $0B
PRG:077C7: 16 08    ASL $08
PRG:077C9: 52       .byte $52
PRG:077CA: C2       .byte $C2
PRG:077CB: 16 40    ASL $40
PRG:077CD: 23       .byte $23
PRG:077CE: 82       .byte $82
PRG:077CF: 10 15    BPL $15
PRG:077D1: 23       .byte $23
PRG:077D2: 86 0F    STX $0F
PRG:077D4: 10 79    BPL $79
PRG:077D6: 13       .byte $13
PRG:077D7: C3       .byte $C3
PRG:077D8: 9E       .byte $9E
PRG:077D9: 40       RTI
PRG:077DA: 21 07    AND $07
PRG:077DC: 8C 0C 48 STY $480C
PRG:077DF: A4 7B    LDY $7B
PRG:077E1: 00 BB    BRK $BB
PRG:077E3: 1D FC 9A ORA $9AFC
PRG:077E6: 3F       .byte $3F
PRG:077E7: 1F       .byte $1F
PRG:077E8: 38       SEC
PRG:077E9: 42       .byte $42
PRG:077EA: 62       .byte $62
PRG:077EB: 13       .byte $13
PRG:077EC: 10 98    BPL $98
PRG:077EE: 44 C2    NOP $C2
PRG:077F0: 26 29    ROL $29
PRG:077F2: 30 C9    BMI $C9
PRG:077F4: 82       .byte $82
PRG:077F5: 3A       NOP
PRG:077F6: 32       .byte $32
PRG:077F7: 61 13    ADC $13
PRG:077F9: 10 98    BPL $98
PRG:077FB: 44 C2    NOP $C2
PRG:077FD: 26 30    ROL $30
PRG:077FF: 5A       NOP
PRG:07800: 51 4F    EOR $4F
PRG:07802: 88       DEY
PRG:07803: DB       .byte $DB
PRG:07804: B0 02    BCS $02
PRG:07806: 4E 28 10 LSR $1028
PRG:07809: 61 65    ADC $65
PRG:0780B: 0B       .byte $0B
PRG:0780C: 08       PHP
PRG:0780D: 58       CLI
PRG:0780E: 42       .byte $42
PRG:0780F: C2       .byte $C2
PRG:07810: 16 10    ASL $10
PRG:07812: B0 85    BCS $85
PRG:07814: C0 00    CPY $00
PRG:07816: 06 90    ASL $90
PRG:07818: 20 81 C4 JSR $C481
PRG:0781B: 0A       ASL
PRG:0781C: 26 31    ROL $31
PRG:0781E: 35 09    AND $09
PRG:07820: 84 41    STY $41
PRG:07822: 42       .byte $42
PRG:07823: 0D 14 58 ORA $5814
PRG:07826: 81 C4    STA $C4
PRG:07828: 00 26    BRK $26
PRG:0782A: C1 03    CMP $03
PRG:0782C: 89       .byte $89
PRG:0782D: 90 4C    BCC $4C
PRG:0782F: 32       .byte $32
PRG:07830: A3       .byte $A3
PRG:07831: 11 20    ORA $20
PRG:07833: 8A       TXA
PRG:07834: 44 4A    NOP $4A
PRG:07836: 24 B9    BIT $B9
PRG:07838: 11 C8    ORA $C8
PRG:0783A: 10 40    BPL $40
PRG:0783C: D2       .byte $D2
PRG:0783D: 02       .byte $02
PRG:0783E: 12       .byte $12
PRG:0783F: 28       PLP
PRG:07840: 9E       .byte $9E
PRG:07841: C6 40    DEC $40
PRG:07843: 22       .byte $22
PRG:07844: 41 10    EOR $10
PRG:07846: E2       .byte $E2
PRG:07847: C8       INY
PRG:07848: 90 44    BCC $44
PRG:0784A: 82       .byte $82
PRG:0784B: 24 11    BIT $11
PRG:0784D: 20 92 25 JSR $2592
PRG:07850: 48       PHA
PRG:07851: 25 FA    AND $FA
PRG:07853: 14 80    NOP $80
PRG:07855: 00 64    BRK $64
PRG:07857: 85 70    STA $70
PRG:07859: DE 9E 67 DEC $679E
PRG:0785C: C4 76    CPY $76
PRG:0785E: 2A       ROL
PRG:0785F: 0B       .byte $0B
PRG:07860: 9F       .byte $9F
PRG:07861: 01 0C    ORA $0C
PRG:07863: C0 00    CPY $00
PRG:07865: 17       .byte $17
PRG:07866: A0 38    LDY $38
PRG:07868: 2C C8 C2 BIT $C2C8
PRG:0786B: 8C 8A D4 STY $D48A
PRG:0786E: BB       .byte $BB
PRG:0786F: 34 21    NOP $21
PRG:07871: 40       RTI
PRG:07872: 84 0E    STY $0E
PRG:07874: 49 9C    EOR $9C
PRG:07876: 50 41    BVC $41
PRG:07878: E9 D0    SBC $D0
PRG:0787A: 4E 83 70 LSR $7083
PRG:0787D: 1C 9A 10 NOP $109A
PRG:07880: 10 40    BPL $40
PRG:07882: 42       .byte $42
PRG:07883: 27       .byte $27
PRG:07884: 08       PHP
PRG:07885: 09 06    ORA $06
PRG:07887: 42       .byte $42
PRG:07888: 4E 92 7E LSR $7E92
PRG:0788B: 4C 7A 00 JMP $007A
PRG:0788E: 84 02    STY $02
PRG:07890: 30 5F    BMI $5F
PRG:07892: 44 29    NOP $29
PRG:07894: C0 88    CPY $88
PRG:07896: 1F       .byte $1F
PRG:07897: 00 00    BRK $00
PRG:07899: 4A       LSR
PRG:0789A: 3B       .byte $3B
PRG:0789B: 08       PHP
PRG:0789C: CD 9F EE CMP $EE9F
PRG:0789F: 00 08    BRK $08
PRG:078A1: FF       .byte $FF
PRG:078A2: 51 03    EOR $03
PRG:078A4: 5C 77 F1 NOP $F177
PRG:078A7: CA       DEX
PRG:078A8: 3B       .byte $3B
PRG:078A9: F9 F6 9F SBC $9FF6
PRG:078AC: 0D 94 40 ORA $4094
PRG:078AF: 00 06    BRK $06
PRG:078B1: 90 38    BCC $38
PRG:078B3: 80 54    NOP $54
PRG:078B5: 08       PHP
PRG:078B6: A0 C1    LDY $C1
PRG:078B8: 03       .byte $03
PRG:078B9: 08       PHP
PRG:078BA: 06 40    ASL $40
PRG:078BC: 8A       TXA
PRG:078BD: 08       PHP
PRG:078BE: 13       .byte $13
PRG:078BF: 20 A1 14 JSR $14A1
PRG:078C2: 29 C2    AND $C2
PRG:078C4: A5 12    LDA $12
PRG:078C6: 18       CLC
PRG:078C7: 81 64    STA $64
PRG:078C9: C8       INY
PRG:078CA: 22       .byte $22
PRG:078CB: 2D 05 C8 AND $C805
PRG:078CE: 07       .byte $07
PRG:078CF: 40       RTI
PRG:078D0: 72       .byte $72
PRG:078D1: 26 11    ROL $11
PRG:078D3: 20 93 44 JSR $4493
PRG:078D6: 08       PHP
PRG:078D7: 22       .byte $22
PRG:078D8: 41 12    EOR $12
PRG:078DA: 08       PHP
PRG:078DB: 94 44    STY $44
PRG:078DD: 42       .byte $42
PRG:078DE: 62       .byte $62
PRG:078DF: 12       .byte $12
PRG:078E0: 60       RTS
PRG:078E1: 80 C4    NOP $C4
PRG:078E3: 39 C2 04 AND $04C2
PRG:078E6: 12       .byte $12
PRG:078E7: 2C 9A A4 BIT $A49A
PRG:078EA: 48       PHA
PRG:078EB: 22       .byte $22
PRG:078EC: 31 54    AND $54
PRG:078EE: 09 98    ORA $98
PRG:078F0: 52       .byte $52
PRG:078F1: 00 00    BRK $00
PRG:078F3: 08       PHP
PRG:078F4: 9C       .byte $9C
PRG:078F5: 28       PLP
PRG:078F6: 58       CLI
PRG:078F7: 42       .byte $42
PRG:078F8: C2       .byte $C2
PRG:078F9: 16 10    ASL $10
PRG:078FB: B0 85    BCS $85
PRG:078FD: 90 08    BCC $08
PRG:078FF: 40       RTI
PRG:07900: 41 0B    EOR $0B
PRG:07902: 08       PHP
PRG:07903: 10 82    BPL $82
PRG:07905: C2       .byte $C2
PRG:07906: 06 00    ASL $00
PRG:07908: B2       .byte $B2
PRG:07909: 00 88    BRK $88
PRG:0790B: 04 40    NOP $40
PRG:0790D: 21 0B    AND $0B
PRG:0790F: 10 5A    BPL $5A
PRG:07911: 41 08    EOR $08
PRG:07913: 08       PHP
PRG:07914: 30 21    BMI $21
PRG:07916: 01 88    ORA $88
PRG:07918: 0C 40 67 NOP $6740
PRG:0791B: 1C 58 29 NOP $2958
PRG:0791E: 83       .byte $83
PRG:0791F: C4 1E    CPY $1E
PRG:07921: 20 F7 86 JSR $86F7
PRG:07924: 88       DEY
PRG:07925: D8       CLD
PRG:07926: 27       .byte $27
PRG:07927: 26 87    ROL $87
PRG:07929: C5 32    CMP $32
PRG:0792B: 0B       .byte $0B
PRG:0792C: 83       .byte $83
PRG:0792D: 84 1C    STY $1C
PRG:0792F: 20 E4 82 JSR $82E4
PRG:07932: B4 61    LDY $61
PRG:07934: 01 62    ORA $62
PRG:07936: 0B       .byte $0B
PRG:07937: 58       CLI
PRG:07938: 5B       .byte $5B
PRG:07939: C7       .byte $C7
PRG:0793A: 10 02    BPL $02
PRG:0793C: 91 93    STA $93
PRG:0793E: 01 10    ORA $10
PRG:07940: 1F       .byte $1F
PRG:07941: E2       .byte $E2
PRG:07942: 9E       .byte $9E
PRG:07943: 24 F2    BIT $F2
PRG:07945: 07       .byte $07
PRG:07946: 87       .byte $87
PRG:07947: 3E 00 00 ROL $0000
PRG:0794A: 07       .byte $07
PRG:0794B: 9C       .byte $9C
PRG:0794C: 58       CLI
PRG:0794D: 58       CLI
PRG:0794E: C2       .byte $C2
PRG:0794F: C4 16    CPY $16
PRG:07951: 1B       .byte $1B
PRG:07952: EF       .byte $EF
PRG:07953: B2       .byte $B2
PRG:07954: 84 1F    STY $1F
PRG:07956: 79 94 30 ADC $3094
PRG:07959: FB       .byte $FB
PRG:0795A: EC A0 70 CPX $70A0
PRG:0795D: 34 B3    NOP $B3
PRG:0795F: F0 B4    BEQ $B4
PRG:07961: 81 CE    STA $CE
PRG:07963: 32       .byte $32
PRG:07964: EF       .byte $EF
PRG:07965: A1 07    LDA $07
PRG:07967: 7D 22 8F ADC $8F22
PRG:0796A: 0E 78 93 ASL $9378
PRG:0796D: C3       .byte $C3
PRG:0796E: 86 64    STX $64
PRG:07970: 71 03    ADC $03
PRG:07972: A4 18    LDY $18
PRG:07974: 20 C1 06 JSR $06C1
PRG:07977: 55 F0    EOR $F0
PRG:07979: 59 42 0F EOR $0F42
PRG:0797C: 82       .byte $82
PRG:0797D: D2       .byte $D2
PRG:0797E: 1F       .byte $1F
PRG:0797F: 1C 20 31 NOP $3120
PRG:07982: DD FC 12 CMP $12FC
PRG:07985: 04 77    NOP $77
PRG:07987: 60       RTS
PRG:07988: 03       .byte $03
PRG:07989: 3B       .byte $3B
PRG:0798A: 00 19    BRK $19
PRG:0798C: FF       .byte $FF
PRG:0798D: F0 80    BEQ $80
PRG:0798F: CE C4 06 DEC $06C4
PRG:07992: 77       .byte $77
PRG:07993: F2       .byte $F2
PRG:07994: F8       SED
PRG:07995: E5 DF    SBC $DF
PRG:07997: 01 98    ORA $98
PRG:07999: 10 EC    BPL $EC
PRG:0799B: 00 A7    BRK $A7
PRG:0799D: 41 04    EOR $04
PRG:0799F: 87       .byte $87
PRG:079A0: 10 69    BPL $69
PRG:079A2: 6E BE CA ROR $CABE
PRG:079A5: 74 02    NOP $02
PRG:079A7: 53       .byte $53
PRG:079A8: A0 32    LDY $32
PRG:079AA: 41 40    EOR $40
PRG:079AC: 00 06    BRK $06
PRG:079AE: 90 20    BCC $20
PRG:079B0: 98       TYA
PRG:079B1: E4 15    CPX $15
PRG:079B3: 22       .byte $22
PRG:079B4: 19 00 C8 ORA $C800
PRG:079B7: 96 40    STX $40
PRG:079B9: 42       .byte $42
PRG:079BA: 09 91    ORA $91
PRG:079BC: 0C 90 64 NOP $6490
PRG:079BF: 4D 20 41 EOR $4120
PRG:079C2: 01 49    ORA $49
PRG:079C4: B6 50    LDX $50
PRG:079C6: 82       .byte $82
PRG:079C7: AD 10 08 LDA $0810
PRG:079CA: 88       DEY
PRG:079CB: 84 4A    STY $4A
PRG:079CD: 20 11 10 JSR $1011
PRG:079D0: 89       .byte $89
PRG:079D1: A6 49    LDX $49
PRG:079D3: 02       .byte $02
PRG:079D4: 18       CLC
PRG:079D5: 69 21    ADC $21
PRG:079D7: C8       INY
PRG:079D8: A4 40    LDY $40
PRG:079DA: E2       .byte $E2
PRG:079DB: 04 11    NOP $11
PRG:079DD: 48       PHA
PRG:079DE: 80 44    NOP $44
PRG:079E0: 4C 20 11 JMP $1120
PRG:079E3: 12       .byte $12
PRG:079E4: 08       PHP
PRG:079E5: 1C 49 82 NOP $8249
PRG:079E8: 09 10    ORA $10
PRG:079EA: 0A       ASL
PRG:079EB: 80 B4    NOP $B4
PRG:079ED: 89       .byte $89
PRG:079EE: 24 21    BIT $21
PRG:079F0: 21 E8    AND $E8
PRG:079F2: B6 44    LDX $44
PRG:079F4: 22       .byte $22
PRG:079F5: 60       RTS
PRG:079F6: D0 40    BNE $40
PRG:079F8: 84 00    STY $00
PRG:079FA: 45 1B    EOR $1B
PRG:079FC: E7       .byte $E7
PRG:079FD: 9D FC 08 STA $08FC
PRG:07A00: EC 00 47 CPX $4700
PRG:07A03: 7F       .byte $7F
PRG:07A04: 1E BB 92 ASL $92BB
PRG:07A07: 88       DEY
PRG:07A08: 00 16    BRK $16
PRG:07A0A: 85 94    STA $94
PRG:07A0C: 41 04    EOR $04
PRG:07A0E: 1D 41 20 ORA $2041
PRG:07A11: 0A       ASL
PRG:07A12: 50 2D    BVC $2D
PRG:07A14: 42       .byte $42
PRG:07A15: 08       PHP
PRG:07A16: 10 62    BPL $62
PRG:07A18: 82       .byte $82
PRG:07A19: 04 18    NOP $18
PRG:07A1B: A1 2C    LDA $2C
PRG:07A1D: D0 44    BNE $44
PRG:07A1F: 02       .byte $02
PRG:07A20: 7D A3 66 ADC $66A3
PRG:07A23: 1C 1E 10 NOP $101E
PRG:07A26: F0 87    BEQ $87
PRG:07A28: A8       TAY
PRG:07A29: 09 00    ORA $00
PRG:07A2B: 5B       .byte $5B
PRG:07A2C: E8       INX
PRG:07A2D: 5E 79 F7 LSR $F779
PRG:07A30: D1 C0    CMP $C0
PRG:07A32: 8F       .byte $8F
PRG:07A33: 80 DE    NOP $DE
PRG:07A35: 15 15    ORA $15
PRG:07A37: ED 8B 28 SBC $288B
PRG:07A3A: 5C 00 16 NOP $1600
PRG:07A3D: 85 75    STA $75
PRG:07A3F: 00 E0    BRK $E0
PRG:07A41: 82       .byte $82
PRG:07A42: 0E A0 90 ASL $90A0
PRG:07A45: 05 01    ORA $01
PRG:07A47: 24 01    BIT $01
PRG:07A49: 44 5B    NOP $5B
PRG:07A4B: 2C 2D 42 BIT $422D
PRG:07A4E: 08       PHP
PRG:07A4F: 10 62    BPL $62
PRG:07A51: 82       .byte $82
PRG:07A52: 04 18    NOP $18
PRG:07A54: A1 00    LDA $00
PRG:07A56: 0B       .byte $0B
PRG:07A57: 66 82    ROR $82
PRG:07A59: 20 10 03 JSR $0310
PRG:07A5C: C8       INY
PRG:07A5D: 04 90    NOP $90
PRG:07A5F: 2C 7C 09 BIT $097C
PRG:07A62: 83       .byte $83
PRG:07A63: C2       .byte $C2
PRG:07A64: 1E 10 F5 ASL $F510
PRG:07A67: 01 08    ORA $08
PRG:07A69: 14 C0    NOP $C0
PRG:07A6B: 5B       .byte $5B
PRG:07A6C: AB       .byte $AB
PRG:07A6D: 9F       .byte $9F
PRG:07A6E: 02       .byte $02
PRG:07A6F: 02       .byte $02
PRG:07A70: F3       .byte $F3
PRG:07A71: CF       .byte $CF
PRG:07A72: BE 8E 04 LDX $048E
PRG:07A75: 7C 06 F0 NOP $F006
PRG:07A78: 58       CLI
PRG:07A79: B0 85    BCS $85
PRG:07A7B: 90 24    BCC $24
PRG:07A7D: 01 46    ORA $46
PRG:07A7F: 02       .byte $02
PRG:07A80: 28       PLP
PRG:07A81: 39 C2 C8 AND $C8C2
PRG:07A84: 16 10    ASL $10
PRG:07A86: B2       .byte $B2
PRG:07A87: 05 C0    ORA $C0
PRG:07A89: 00 06    BRK $06
PRG:07A8B: 9C       .byte $9C
PRG:07A8C: 18       CLC
PRG:07A8D: 10 C0    BPL $C0
PRG:07A8F: 86 04    STX $04
PRG:07A91: 30 11    BMI $11
PRG:07A93: 80 96    NOP $96
PRG:07A95: FF       .byte $FF
PRG:07A96: EC C1 58 CPX $58C1
PRG:07A99: E4 07    CPX $07
PRG:07A9B: 22       .byte $22
PRG:07A9C: 18       CLC
PRG:07A9D: CF       .byte $CF
PRG:07A9E: CA       DEX
PRG:07A9F: F4 04    NOP $04
PRG:07AA1: 7F       .byte $7F
PRG:07AA2: B9 C0 88 LDA $88C0
PRG:07AA5: B1 05    LDA $05
PRG:07AA7: 9E       .byte $9E
PRG:07AA8: EF       .byte $EF
PRG:07AA9: E4 53    CPX $53
PRG:07AAB: 81 BF    STA $BF
PRG:07AAD: DC 30 19 NOP $1930
PRG:07AB0: FF       .byte $FF
PRG:07AB1: FB       .byte $FB
PRG:07AB2: 02       .byte $02
PRG:07AB3: E1 C8    SBC $C8
PRG:07AB5: 0F       .byte $0F
PRG:07AB6: 72       .byte $72
PRG:07AB7: B6 21    LDX $21
PRG:07AB9: B1 40    LDA $40
PRG:07ABB: 84 04    STY $04
PRG:07ABD: 91 C2    STA $C2
PRG:07ABF: 5D 7C 90 EOR $907C
PRG:07AC2: EB       .byte $EB
PRG:07AC3: CC 87 40 CPY $4087
PRG:07AC6: 24 3A    BIT $3A
PRG:07AC8: 0B       .byte $0B
PRG:07AC9: 21 D0    AND $D0
PRG:07ACB: 89       .byte $89
PRG:07ACC: 4E BE CA LSR $CABE
PRG:07ACF: 75 F2    ADC $F2
PRG:07AD1: 53       .byte $53
PRG:07AD2: AF       .byte $AF
PRG:07AD3: B2       .byte $B2
PRG:07AD4: 9D 7C 94 STA $947C
PRG:07AD7: E8       INX
PRG:07AD8: 2F       .byte $2F
PRG:07AD9: 8B       .byte $8B
PRG:07ADA: 02       .byte $02
PRG:07ADB: A0 53    LDY $53
PRG:07ADD: DD FC A0 CMP $A0FC
PRG:07AE0: EF       .byte $EF
PRG:07AE1: E5 07    SBC $07
PRG:07AE3: 7E 28 3B ROR $3B28
PRG:07AE6: 01 80    ORA $80
PRG:07AE8: 00 05    BRK $05
PRG:07AEA: 51 12    EOR $12
PRG:07AEC: 81 44    STA $44
PRG:07AEE: 44 22    NOP $22
PRG:07AF0: 41 04    EOR $04
PRG:07AF2: 48       PHA
PRG:07AF3: 9A       TXS
PRG:07AF4: 48       PHA
PRG:07AF5: 62       .byte $62
PRG:07AF6: 64 90    NOP $90
PRG:07AF8: 24 A0    BIT $A0
PRG:07AFA: E4 44    CPX $44
PRG:07AFC: 24 31    BIT $31
PRG:07AFE: 10 0A    BPL $0A
PRG:07B00: 94 48    STY $48
PRG:07B02: 62       .byte $62
PRG:07B03: 27       .byte $27
PRG:07B04: 13       .byte $13
PRG:07B05: 30 91    BMI $91
PRG:07B07: C4 47    CPY $47
PRG:07B09: 20 21 10 JSR $1021
PRG:07B0C: 88       DEY
PRG:07B0D: 9C       .byte $9C
PRG:07B0E: 45 22    EOR $22
PRG:07B10: 80 11    NOP $11
PRG:07B12: 00 99    BRK $99
PRG:07B14: 65 52    ADC $52
PRG:07B16: 20 D9 11 JSR $11D9
PRG:07B19: 88       DEY
PRG:07B1A: 16 4C    ASL $4C
PRG:07B1C: D2       .byte $D2
PRG:07B1D: 66 90    ROR $90
PRG:07B1F: 20 88 C4 JSR $C488
PRG:07B22: 4C 22 31 JMP $3122
PRG:07B25: 32       .byte $32
PRG:07B26: 09 20    ORA $20
PRG:07B28: 40       RTI
PRG:07B29: 62       .byte $62
PRG:07B2A: 22       .byte $22
PRG:07B2B: 92       .byte $92
PRG:07B2C: 4C 80 64 JMP $6480
PRG:07B2F: 06 22    ASL $22
PRG:07B31: 41 12    EOR $12
PRG:07B33: 08       PHP
PRG:07B34: 9A       TXS
PRG:07B35: 4C 82 27 JMP $2782
PRG:07B38: 14 10    NOP $10
PRG:07B3A: 81 84    STA $84
PRG:07B3C: 51 22    EOR $22
PRG:07B3E: 31 18    AND $18
PRG:07B40: 00 33    BRK $33
PRG:07B42: B1 50    LDA $50
PRG:07B44: CD 88 C1 CMP $C188
PRG:07B47: 27       .byte $27
PRG:07B48: E1 40    SBC $40
PRG:07B4A: 03       .byte $03
PRG:07B4B: 19 C2 4C ORA $4CC2
PRG:07B4E: 76 CE    ROR $CE
PRG:07B50: C0 10    CPY $10
PRG:07B52: 77       .byte $77
PRG:07B53: F0 83    BEQ $83
PRG:07B55: BF       .byte $BF
PRG:07B56: 84 1D    STY $1D
PRG:07B58: FC 40 00 NOP $0040
PRG:07B5B: 13       .byte $13
PRG:07B5C: 8B       .byte $8B
PRG:07B5D: 00 48    BRK $48
PRG:07B5F: 23       .byte $23
PRG:07B60: 24 D3    BIT $D3
PRG:07B62: A8       TAY
PRG:07B63: 0B       .byte $0B
PRG:07B64: 04 58    NOP $58
PRG:07B66: 42       .byte $42
PRG:07B67: C7       .byte $C7
PRG:07B68: 04 30    NOP $30
PRG:07B6A: 7A       NOP
PRG:07B6B: FC 21 E6 NOP $E621
PRG:07B6E: 48       PHA
PRG:07B6F: 7E 14 00 ROR $0014
PRG:07B72: 28       PLP
PRG:07B73: 47       .byte $47
PRG:07B74: 98       TYA
PRG:07B75: E4 A2    CPX $A2
PRG:07B77: DC 16 A0 NOP $A016
PRG:07B7A: BE 44 C8 LDX $C844
PRG:07B7D: C1 50    CMP $50
PRG:07B7F: 0A       ASL
PRG:07B80: 7B       .byte $7B
PRG:07B81: B0 14    BCS $14
PRG:07B83: 1D FC A0 ORA $A0FC
PRG:07B86: EF       .byte $EF
PRG:07B87: E5 07    SBC $07
PRG:07B89: 7F       .byte $7F
PRG:07B8A: 30 00    BMI $00
PRG:07B8C: 13       .byte $13
PRG:07B8D: 8B       .byte $8B
PRG:07B8E: 00 50    BRK $50
PRG:07B90: 41 64    EOR $64
PRG:07B92: D3       .byte $D3
PRG:07B93: A4 02    LDY $02
PRG:07B95: 10 10    BPL $10
PRG:07B97: 82       .byte $82
PRG:07B98: C1 16    CMP $16
PRG:07B9A: 10 B1    BPL $B1
PRG:07B9C: C1 54    CMP $54
PRG:07B9E: 66 4B    ROR $4B
PRG:07BA0: 04 0C    NOP $0C
PRG:07BA2: F1 A1    SBC $A1
PRG:07BA4: 03       .byte $03
PRG:07BA5: 3C 78 8B NOP $8B78
PRG:07BA8: BF       .byte $BF
PRG:07BA9: C4 00    CPY $00
PRG:07BAB: 14 20    NOP $20
PRG:07BAD: 26 72    ROL $72
PRG:07BAF: 51 67    EOR $67
PRG:07BB1: 0B       .byte $0B
PRG:07BB2: 18       CLC
PRG:07BB3: 59 02 C4 EOR $C402
PRG:07BB6: 16 80    ASL $80
PRG:07BB8: B7       .byte $B7
PRG:07BB9: 0C BC 60 NOP $60BC
PRG:07BBC: 20 23 05 JSR $0523
PRG:07BBF: 08       PHP
PRG:07BC0: 08       PHP
PRG:07BC1: C1 42    CMP $42
PRG:07BC3: 02       .byte $02
PRG:07BC4: 30 53    BMI $53
PRG:07BC6: DD 80 8A CMP $8A80
PRG:07BC9: 2C B7 7F BIT $7FB7
PRG:07BCC: 24 8B    BIT $8B
PRG:07BCE: 1D DF C9 ORA $C9DF
PRG:07BD1: 22       .byte $22
PRG:07BD2: C7       .byte $C7
PRG:07BD3: 77       .byte $77
PRG:07BD4: F2       .byte $F2
PRG:07BD5: 3B       .byte $3B
PRG:07BD6: 28       PLP
PRG:07BD7: 00 06    BRK $06
PRG:07BD9: 11 14    ORA $14
PRG:07BDB: 81 C4    STA $C4
PRG:07BDD: 44 38    NOP $38
PRG:07BDF: 21 23    AND $23
PRG:07BE1: 88       DEY
PRG:07BE2: 06 40    ASL $40
PRG:07BE4: 32       .byte $32
PRG:07BE5: 0A       ASL
PRG:07BE6: 13       .byte $13
PRG:07BE7: 18       CLC
PRG:07BE8: 89       .byte $89
PRG:07BE9: 84 C6    STY $C6
PRG:07BEB: 26 81    ROL $81
PRG:07BED: 01 89    ORA $89
PRG:07BEF: 10 40    BPL $40
PRG:07BF1: 22       .byte $22
PRG:07BF2: 15 49    ORA $49
PRG:07BF4: 00 89    BRK $89
PRG:07BF6: 04 41    NOP $41
PRG:07BF8: 52       .byte $52
PRG:07BF9: 02       .byte $02
PRG:07BFA: 93       .byte $93
PRG:07BFB: 30 8A    BMI $8A
PRG:07BFD: 04 04    NOP $04
PRG:07BFF: 26 81    ROL $81
PRG:07C01: 5C A4 80 NOP $80A4
PRG:07C04: C5 1F    CMP $1F
PRG:07C06: 2A       ROL
PRG:07C07: 41 52    EOR $52
PRG:07C09: 0A       ASL
PRG:07C0A: 90 57    BCC $57
PRG:07C0C: 97       .byte $97
PRG:07C0D: 20 41 02 JSR $0241
PRG:07C10: 08       PHP
PRG:07C11: 10 4D    BPL $4D
PRG:07C13: E2       .byte $E2
PRG:07C14: 24 11    BIT $11
PRG:07C16: 20 8C 00 JSR $008C
PRG:07C19: 0C A6 29 NOP $29A6
PRG:07C1C: 31 09    AND $09
PRG:07C1E: 8A       TXA
PRG:07C1F: 1E 30 F2 ASL $F230
PRG:07C22: 13       .byte $13
PRG:07C23: 06 3C    ASL $3C
PRG:07C25: 34 C2    NOP $C2
PRG:07C27: 26 20    ROL $20
PRG:07C29: 78       SEI
PRG:07C2A: C9 88    CMP $88
PRG:07C2C: 1E 50 F1 ASL $F150
PRG:07C2F: 13       .byte $13
PRG:07C30: 04 3C    NOP $3C
PRG:07C32: 21 E2    AND $E2
PRG:07C34: 26 71    ROL $71
PRG:07C36: 39 09 C6 AND $C609
PRG:07C39: 4E 30 11 LSR $1130
PRG:07C3C: 00 8C    BRK $8C
PRG:07C3E: 9D 44 C6 STA $C644
PRG:07C41: 3B       .byte $3B
PRG:07C42: 08       PHP
PRG:07C43: 31 38    AND $38
PRG:07C45: 8E FE 33 STX $33FE
PRG:07C48: F4 DB    NOP $DB
PRG:07C4A: BA       TSX
PRG:07C4B: 66 07    ROR $07
PRG:07C4D: 90 3C    BCC $3C
PRG:07C4F: 81 E4    STA $E4
PRG:07C51: 0F       .byte $0F
PRG:07C52: 80 00    NOP $00
PRG:07C54: 28       PLP
PRG:07C55: 99 AE C1 STA $C1AE
PRG:07C58: 08       PHP
PRG:07C59: 71 A1    ADC $A1
PRG:07C5B: EB       .byte $EB
PRG:07C5C: 02       .byte $02
PRG:07C5D: 70 79    BVS $79
PRG:07C5F: 03       .byte $03
PRG:07C60: C8       INY
PRG:07C61: 62       .byte $62
PRG:07C62: 4B       .byte $4B
PRG:07C63: BF       .byte $BF
PRG:07C64: 81 9D    STA $9D
PRG:07C66: 80 0C    NOP $0C
PRG:07C68: EB       .byte $EB
PRG:07C69: E4 87    CPX $87
PRG:07C6B: 60       RTS
PRG:07C6C: 1A       NOP
PRG:07C6D: E9 B2    SBC $B2
PRG:07C6F: 05 0E    ORA $0E
PRG:07C71: EF       .byte $EF
PRG:07C72: E4 50    CPX $50
PRG:07C74: 3D 48 B0 AND $B048
PRG:07C77: 87       .byte $87
PRG:07C78: 84 3C    STY $3C
PRG:07C7A: E7       .byte $E7
PRG:07C7B: 0C A4 07 NOP $07A4
PRG:07C7E: 1D C3 09 ORA $09C3
PRG:07C81: 0E 18 4B ASL $4B18
PRG:07C84: 71 4A    ADC $4A
PRG:07C86: 3B       .byte $3B
PRG:07C87: A0 92    LDY $92
PRG:07C89: 1D 09 88 ORA $8809
PRG:07C8C: EB       .byte $EB
PRG:07C8D: E4 02    CPX $02
PRG:07C8F: 90 00    BCC $00
PRG:07C91: 11 8C    ORA $8C
PRG:07C93: 10 62    BPL $62
PRG:07C95: 23       .byte $23
PRG:07C96: D3       .byte $D3
PRG:07C97: 1E 40 23 ASL $2340
PRG:07C9A: 00 B4    BRK $B4
PRG:07C9C: 15 60    ORA $60
PRG:07C9E: E9 07    SBC $07
PRG:07CA0: 10 39    BPL $39
PRG:07CA2: 46 08    LSR $08
PRG:07CA4: 04 20    NOP $20
PRG:07CA6: 21 01    AND $01
PRG:07CA8: 06 EC    ASL $EC
PRG:07CAA: 20 37 10 JSR $1037
PRG:07CAD: A2 81    LDX $81
PRG:07CAF: 34 09    NOP $09
PRG:07CB1: 06 70    ASL $70
PRG:07CB3: B0 44    BCS $44
PRG:07CB5: 02       .byte $02
PRG:07CB6: 20 08 46 JSR $4608
PRG:07CB9: 47       .byte $47
PRG:07CBA: 75 F2    ADC $F2
PRG:07CBC: 2B       .byte $2B
PRG:07CBD: 82       .byte $82
PRG:07CBE: 40       RTI
PRG:07CBF: 5D 89 0C EOR $0C89
PRG:07CC2: E8       INX
PRG:07CC3: 2C 67 42 BIT $4267
PRG:07CC6: 22       .byte $22
PRG:07CC7: 38       SEC
PRG:07CC8: 9D 61 C4 STA $C461
PRG:07CCB: 29 0E    AND $0E
PRG:07CCD: 21 4F    AND $4F
PRG:07CCF: 6E 23 93 ROR $9323
PRG:07CD2: 41 0E    EOR $0E
PRG:07CD4: F2       .byte $F2
PRG:07CD5: E2       .byte $E2
PRG:07CD6: C8       INY
PRG:07CD7: 16 40    ASL $40
PRG:07CD9: B4 03    LDY $03
PRG:07CDB: 80 98    NOP $98
PRG:07CDD: 80 E0    NOP $E0
PRG:07CDF: 26 08    ROL $08
PRG:07CE1: C8       INY
PRG:07CE2: C1 DB    CMP $DB
PRG:07CE4: 74 02    NOP $02
PRG:07CE6: 33       .byte $33
PRG:07CE7: 83       .byte $83
PRG:07CE8: 50 9D    BVC $9D
PRG:07CEA: 7D 90 EC ADC $EC90
PRG:07CED: 2A       ROL
PRG:07CEE: 00 00    BRK $00
PRG:07CF0: 08       PHP
PRG:07CF1: B8       CLV
PRG:07CF2: 24 0E    BIT $0E
PRG:07CF4: 88       DEY
PRG:07CF5: 9E       .byte $9E
PRG:07CF6: 0B       .byte $0B
PRG:07CF7: 44 70    NOP $70
PRG:07CF9: 5A       NOP
PRG:07CFA: 0D 00 BC ORA $BC00
PRG:07CFD: 16 88    ASL $88
PRG:07CFF: E0 B5    CPX $B5
PRG:07D01: 20 22 02 JSR $0222
PRG:07D04: 04 80    NOP $80
PRG:07D06: EE 29 44 INC $4429
PRG:07D09: 71 4A    ADC $4A
PRG:07D0B: 23       .byte $23
PRG:07D0C: 8A       TXA
PRG:07D0D: 50 88    BVC $88
PRG:07D0F: 1E 44 71 ASL $7144
PRG:07D12: 42       .byte $42
PRG:07D13: 0A       ASL
PRG:07D14: 06 90    ASL $90
PRG:07D16: 10 CF    BPL $CF
PRG:07D18: 20 29 73 JSR $7329
PRG:07D1B: 10 13    BPL $13
PRG:07D1D: 44 3A    NOP $3A
PRG:07D1F: 04 82    NOP $82
PRG:07D21: 28       PLP
PRG:07D22: 90 00    BCC $00
PRG:07D24: 81 A0    STA $A0
PRG:07D26: 25 12    AND $12
PRG:07D28: 80 81    NOP $81
PRG:07D2A: 44 4A    NOP $4A
PRG:07D2C: 01 53    ORA $53
PRG:07D2E: 42       .byte $42
PRG:07D2F: 3A       NOP
PRG:07D30: 44 44    NOP $44
PRG:07D32: 6C 10 20 JMP $2010
PRG:07D35: 81 08    STA $08
PRG:07D37: 40       RTI
PRG:07D38: 1A       NOP
PRG:07D39: 64 90    NOP $90
PRG:07D3B: 10 89    BPL $89
PRG:07D3D: A4 4B    LDY $4B
PRG:07D3F: A0 3D    LDY $3D
PRG:07D41: 41 7C    EOR $7C
PRG:07D43: 00 02    BRK $02
PRG:07D45: 4C 37 04 JMP $0437
PRG:07D48: 82       .byte $82
PRG:07D49: 38       SEC
PRG:07D4A: 00 02    BRK $02
PRG:07D4C: 90 7E    BCC $7E
PRG:07D4E: 09 07    ORA $07
PRG:07D50: 20 2B 86 JSR $862B
PRG:07D53: 10 48    BPL $48
PRG:07D55: 86 E1    STX $E1
PRG:07D57: 84 47    STY $47
PRG:07D59: 01 A2    ORA $A2
PRG:07D5B: 38       SEC
PRG:07D5C: 0D 00 93 ORA $9300
PRG:07D5F: 08       PHP
PRG:07D60: 02       .byte $02
PRG:07D61: A2 7C    LDX $7C
PRG:07D63: 12       .byte $12
PRG:07D64: 08       PHP
PRG:07D65: 83       .byte $83
PRG:07D66: 45 9A    EOR $9A
PRG:07D68: 40       RTI
PRG:07D69: D3       .byte $D3
PRG:07D6A: 0E 28 C4 ASL $C428
PRG:07D6D: 42       .byte $42
PRG:07D6E: 0A       ASL
PRG:07D6F: 30 12    BMI $12
PRG:07D71: C8       INY
PRG:07D72: 06 08    ASL $08
PRG:07D74: 60       RTS
PRG:07D75: 42       .byte $42
PRG:07D76: 83       .byte $83
PRG:07D77: FC 4C 40 NOP $404C
PRG:07D7A: 00 07    BRK $07
PRG:07D7C: B8       CLV
PRG:07D7D: 24 11    BIT $11
PRG:07D7F: C6 49    DEC $49
PRG:07D81: 40       RTI
PRG:07D82: 40       RTI
PRG:07D83: 71 EA    ADC $EA
PRG:07D85: 40       RTI
PRG:07D86: 10 1C    BPL $1C
PRG:07D88: 68       PLA
PRG:07D89: A0 E0    LDY $E0
PRG:07D8B: B4 47    LDY $47
PRG:07D8D: 15 25    ORA $25
PRG:07D8F: 01 10    ORA $10
PRG:07D91: 08       PHP
PRG:07D92: 80 4A    NOP $4A
PRG:07D94: 71 A2    ADC $A2
PRG:07D96: 03       .byte $03
PRG:07D97: 84 10    STY $10
PRG:07D99: 1C 12 0C NOP $0C12
PRG:07D9C: 08       PHP
PRG:07D9D: 20 55 28 JSR $2855
PRG:07DA0: 20 80 90 JSR $9080
PRG:07DA3: 08       PHP
PRG:07DA4: 80 29    NOP $29
PRG:07DA6: 07       .byte $07
PRG:07DA7: 10 39    BPL $39
PRG:07DA9: 01 C4    ORA $C4
PRG:07DAB: 0E 20 D3 ASL $D320
PRG:07DAE: 1C 48 04 NOP $0448
PRG:07DB1: E2       .byte $E2
PRG:07DB2: D3       .byte $D3
PRG:07DB3: 23       .byte $23
PRG:07DB4: 70 AE    BVS $AE
PRG:07DB6: 23       .byte $23
PRG:07DB7: 87       .byte $87
PRG:07DB8: B1 1C    LDA $1C
PRG:07DBA: 29 EA    AND $EA
PRG:07DBC: 2E 39 82 ROL $8239
PRG:07DBF: 71 8C    ADC $8C
PRG:07DC1: 13       .byte $13
PRG:07DC2: 8A       TXA
PRG:07DC3: 60       RTS
PRG:07DC4: 9C       .byte $9C
PRG:07DC5: 43       .byte $43
PRG:07DC6: 04 E2    NOP $E2
PRG:07DC8: 18       CLC
PRG:07DC9: 37       .byte $37
PRG:07DCA: 0C C1 38 NOP $38C1
PRG:07DCD: 46 44    LSR $44
PRG:07DCF: 10 C0    BPL $C0
PRG:07DD1: 98       TYA
PRG:07DD2: 04 20    NOP $20
PRG:07DD4: 25 E0    AND $E0
PRG:07DD6: 83       .byte $83
PRG:07DD7: 04 70    NOP $70
PRG:07DD9: E3       .byte $E3
PRG:07DDA: 02       .byte $02
PRG:07DDB: 08       PHP
PRG:07DDC: 17       .byte $17
PRG:07DDD: C4 EF    CPY $EF
PRG:07DDF: C4 87    CPY $87
PRG:07DE1: 7F       .byte $7F
PRG:07DE2: 30 00    BMI $00
PRG:07DE4: 12       .byte $12
PRG:07DE5: B9 20 64 LDA $6420
PRG:07DE8: C2       .byte $C2
PRG:07DE9: 2E 28 52 ROL $5228
PRG:07DEC: 12       .byte $12
PRG:07DED: 20 9A 34 JSR $349A
PRG:07DF0: C5 6A    CMP $6A
PRG:07DF2: 66 EA    ROR $EA
PRG:07DF4: 24 20    BIT $20
PRG:07DF6: 1C 64 4E NOP $4E64
PRG:07DF9: AA       TAX
PRG:07DFA: 63       .byte $63
PRG:07DFB: B8       CLV
PRG:07DFC: 33       .byte $33
PRG:07DFD: 00 00    BRK $00
PRG:07DFF: 05 81    ORA $81
PRG:07E01: 19 C7 8B ORA $8BC7
PRG:07E04: 03       .byte $03
PRG:07E05: 06 06    ASL $06
PRG:07E07: 53       .byte $53
PRG:07E08: 8C 93 81 STY $8193
PRG:07E0B: 08       PHP
PRG:07E0C: 09 41    ORA $41
PRG:07E0E: 46 0A    LSR $0A
PRG:07E10: A4 D0    LDY $D0
PRG:07E12: 59 A1 EE EOR $EEA1
PRG:07E15: E0 24    CPX $24
PRG:07E17: B1 49    LDA $49
PRG:07E19: 08       PHP
PRG:07E1A: A6 5D    LDX $5D
PRG:07E1C: 71 E2    ADC $E2
PRG:07E1E: C3       .byte $C3
PRG:07E1F: 82       .byte $82
PRG:07E20: 41 9C    EOR $9C
PRG:07E22: 32       .byte $32
PRG:07E23: 94 61    STY $61
PRG:07E25: A0 5C    LDY $5C
PRG:07E27: A8       TAY
PRG:07E28: 26 01    ROL $01
PRG:07E2A: C0 00    CPY $00
PRG:07E2C: 08       PHP
PRG:07E2D: 38       SEC
PRG:07E2E: 65 0D    ADC $0D
PRG:07E30: C6 4A    DEC $4A
PRG:07E32: C1 84    CMP $84
PRG:07E34: 04 38    NOP $38
PRG:07E36: 20 8C 1A JSR $1A8C
PRG:07E39: E2       .byte $E2
PRG:07E3A: 04 20    NOP $20
PRG:07E3C: 41 38    EOR $38
PRG:07E3E: 81 08    STA $08
PRG:07E40: 08       PHP
PRG:07E41: 4E 20 58 LSR $5820
PRG:07E44: 12       .byte $12
PRG:07E45: 08       PHP
PRG:07E46: 90 05    BCC $05
PRG:07E48: 02       .byte $02
PRG:07E49: 24 E0    BIT $E0
PRG:07E4B: 41 03    EOR $03
PRG:07E4D: A9 41    LDA $41
PRG:07E4F: 10 08    BPL $08
PRG:07E51: 81 A5    STA $A5
PRG:07E53: 19 38 39 ORA $3938
PRG:07E56: 01 DC    ORA $DC
PRG:07E58: 3A       NOP
PRG:07E59: 99 92 4C STA $4C92
PRG:07E5C: 08       PHP
PRG:07E5D: 84 24    STY $24
PRG:07E5F: 39 9A 03 AND $039A
PRG:07E62: 86 08    STX $08
PRG:07E64: 31 E0    AND $E0
PRG:07E66: 42       .byte $42
PRG:07E67: 02       .byte $02
PRG:07E68: 18       CLC
PRG:07E69: 0F       .byte $0F
PRG:07E6A: 1A       NOP
PRG:07E6B: C4 80    CPY $80
PRG:07E6D: 42       .byte $42
PRG:07E6E: 02       .byte $02
PRG:07E6F: 50 18    BVC $18
PRG:07E71: 40       RTI
PRG:07E72: E0 00    CPX $00
PRG:07E74: 12       .byte $12
PRG:07E75: 8C 10 61 STY $6110
PRG:07E78: 40       RTI
PRG:07E79: 8A       TXA
PRG:07E7A: 14 30    NOP $30
PRG:07E7C: 11 00    ORA $00
PRG:07E7E: 88       DEY
PRG:07E7F: E0 25    CPX $25
PRG:07E81: 01 22    ORA $22
PRG:07E83: 09 A9    ORA $A9
PRG:07E85: 47       .byte $47
PRG:07E86: 08       PHP
PRG:07E87: 28       PLP
PRG:07E88: 41 40    EOR $40
PRG:07E8A: 0E 20 71 ASL $7120
PRG:07E8D: 03       .byte $03
PRG:07E8E: 82       .byte $82
PRG:07E8F: 14 00    NOP $00
PRG:07E91: 93       .byte $93
PRG:07E92: 83       .byte $83
PRG:07E93: 90 1C    BCC $1C
PRG:07E95: 40       RTI
PRG:07E96: E2       .byte $E2
PRG:07E97: 19 31 C5 ORA $C531
PRG:07E9A: 48       PHA
PRG:07E9B: CD 82 02 CMP $0282
PRG:07E9E: 13       .byte $13
PRG:07E9F: 93       .byte $93
PRG:07EA0: 00 80    BRK $80
PRG:07EA2: B0 5C    BCS $5C
PRG:07EA4: 60       RTS
PRG:07EA5: 42       .byte $42
PRG:07EA6: 02       .byte $02
PRG:07EA7: 10 16    BPL $16
PRG:07EA9: AE 30 21 LDX $2130
PRG:07EAC: 81 0C    STA $0C
PRG:07EAE: 20 10 40 JSR $4010
PRG:07EB1: 86 0E    STX $0E
PRG:07EB3: 10 D0    BPL $D0
PRG:07EB5: 86 F2    STX $F2
PRG:07EB7: 60       RTS
PRG:07EB8: 92       .byte $92
PRG:07EB9: 1C 20 20 NOP $2020
PRG:07EBC: 81 08    STA $08
PRG:07EBE: 08       PHP
PRG:07EBF: 43       .byte $43
PRG:07EC0: 30 00    BMI $00
PRG:07EC2: 07       .byte $07
PRG:07EC3: B8       CLV
PRG:07EC4: 24 19    BIT $19
PRG:07EC6: C5 A1    CMP $A1
PRG:07EC8: 0E 09 1C ASL $1C09
PRG:07ECB: 71 92    ADC $92
PRG:07ECD: B3       .byte $B3
PRG:07ECE: 86 22    STX $22
PRG:07ED0: 01 55    ORA $55
PRG:07ED2: 60       RTS
PRG:07ED3: 44 04    NOP $04
PRG:07ED5: 40       RTI
PRG:07ED6: 25 83    AND $83
PRG:07ED8: 90 1C    BCC $1C
PRG:07EDA: 50 EC    BVC $EC
PRG:07EDC: B6 08    LDX $08
PRG:07EDE: 08       PHP
PRG:07EDF: 80 46    NOP $46
PRG:07EE1: 10 E0    BPL $E0
PRG:07EE3: 94 85    STY $85
PRG:07EE5: 08       PHP
PRG:07EE6: 29 61    AND $61
PRG:07EE8: 42       .byte $42
PRG:07EE9: 0A       ASL
PRG:07EEA: 39 C3 12 AND $12C3
PRG:07EED: 8E 18 8E STX $8E18
PRG:07EF0: 66 59    ROR $59
PRG:07EF2: 94 C3    STY $C3
PRG:07EF4: AC 2A 00 LDY $002A
PRG:07EF7: 00 62    BRK $62
PRG:07EF9: 19 BB 80 ORA $80BB
PRG:07EFC: 8E D3 2F STX $2FD3
PRG:07EFF: 70 F7    BVS $F7
PRG:07F01: CE 19 80 DEC $8019
PRG:07F04: 00 30    BRK $30
PRG:07F06: 8A       TXA
PRG:07F07: 08       PHP
PRG:07F08: 45 32    EOR $32
PRG:07F0A: 08       PHP
PRG:07F0B: 40       RTI
PRG:07F0C: 24 B8    BIT $B8
PRG:07F0E: 59 29 C2 EOR $C229
PRG:07F11: CA       DEX
PRG:07F12: 21 C4    AND $C4
PRG:07F14: 0E 11 01 ASL $0111
PRG:07F17: 48       PHA
PRG:07F18: 8A       TXA
PRG:07F19: 45 E6    EOR $E6
PRG:07F1B: C1 01    CMP $01
PRG:07F1D: 10 08    BPL $08
PRG:07F1F: 4D 86 3A EOR $3A86
PRG:07F22: 10 13    BPL $13
PRG:07F24: 1C 17 8C NOP $8C17
PRG:07F27: E0 BC    CPX $BC
PRG:07F29: 27       .byte $27
PRG:07F2A: 05 E1    ORA $E1
PRG:07F2C: 38       SEC
PRG:07F2D: 2F       .byte $2F
PRG:07F2E: 09 C1    ORA $C1
PRG:07F30: 7B       .byte $7B
PRG:07F31: 0E 1D CA ASL $CA1D
PRG:07F34: 70 48    BVS $48
PRG:07F36: 2B       .byte $2B
PRG:07F37: 82       .byte $82
PRG:07F38: 41 5C    EOR $5C
PRG:07F3A: 31 88    AND $88
PRG:07F3C: E1 9F    SBC $9F
PRG:07F3E: 6F       .byte $6F
PRG:07F3F: 18       CLC
PRG:07F40: 18       CLC
PRG:07F41: C0 DA    CPY $DA
PRG:07F43: 73       .byte $73
PRG:07F44: 21 4A    AND $4A
PRG:07F46: 18       CLC
PRG:07F47: 10 C1    BPL $C1
PRG:07F49: 8C C0 00 STY $00C0
PRG:07F4C: 07       .byte $07
PRG:07F4D: 99 20 3A STA $3A20
PRG:07F50: 00 9A    BRK $9A
PRG:07F52: 04 80    NOP $80
PRG:07F54: 70 81    BVS $81
PRG:07F56: 20 08 40 JSR $4008
PRG:07F59: 54 E1    NOP $E1
PRG:07F5B: 91 C1    STA $C1
PRG:07F5D: 10 08    BPL $08
PRG:07F5F: 80 48    NOP $48
PRG:07F61: 01 78    ORA $78
PRG:07F63: 39 C0 82 AND $82C0
PRG:07F66: 02       .byte $02
PRG:07F67: 38       SEC
PRG:07F68: 8C 94 E9 STY $E994
PRG:07F6B: 4E 1D C5 LSR $C51D
PRG:07F6E: 32       .byte $32
PRG:07F6F: C8       INY
PRG:07F70: 15 03    ORA $03
PRG:07F72: 88       DEY
PRG:07F73: 08       PHP
PRG:07F74: 40       RTI
PRG:07F75: FD 2B 28 SBC $282B
PRG:07F78: 00 F1    BRK $F1
PRG:07F7A: 3B       .byte $3B
PRG:07F7B: F0 21    BEQ $21
PRG:07F7D: DF       .byte $DF
PRG:07F7E: C4 00    CPY $00
PRG:07F80: F1 3B    SBC $3B
PRG:07F82: F1 21    SBC $21
PRG:07F84: DF       .byte $DF
PRG:07F85: C4 00    CPY $00
PRG:07F87: 8A       TXA
PRG:07F88: B6 00    LDX $00
PRG:07F8A: 91 0D    STA $0D
PRG:07F8C: 80 20    NOP $20
PRG:07F8E: 43       .byte $43
PRG:07F8F: 60       RTS
PRG:07F90: 08       PHP
PRG:07F91: 90 D8    BCC $D8
PRG:07F93: 02       .byte $02
PRG:07F94: 04 36    NOP $36
PRG:07F96: 00 89    BRK $89
PRG:07F98: 0D 80 22 ORA $2280
PRG:07F9B: 43       .byte $43
PRG:07F9C: 60       RTS
PRG:07F9D: 08       PHP
PRG:07F9E: 10 D8    BPL $D8
PRG:07FA0: 02       .byte $02
PRG:07FA1: 24 36    BIT $36
PRG:07FA3: 00 81    BRK $81
PRG:07FA5: 0D 80 20 ORA $2080
PRG:07FA8: 43       .byte $43
PRG:07FA9: 60       RTS
PRG:07FAA: 0A       ASL
PRG:07FAB: 40       RTI
PRG:07FAC: 00 8A    BRK $8A
PRG:07FAE: 11 20    ORA $20
PRG:07FB0: 81 04    STA $04
PRG:07FB2: 88       DEY
PRG:07FB3: 24 41    BIT $41
PRG:07FB5: 02       .byte $02
PRG:07FB6: 08       PHP
PRG:07FB7: 10 40    BPL $40
PRG:07FB9: 82       .byte $82
PRG:07FBA: 24 11    BIT $11
PRG:07FBC: 20 91 04 JSR $0491
PRG:07FBF: 20 00 8B JSR $8B00
PRG:07FC2: 14 20    NOP $20
PRG:07FC4: 91 04    STA $04
PRG:07FC6: 47       .byte $47
PRG:07FC7: 22       .byte $22
PRG:07FC8: 49 02    EOR $02
PRG:07FCA: 08       PHP
PRG:07FCB: 90 44    BCC $44
PRG:07FCD: 82       .byte $82
PRG:07FCE: 24 11    BIT $11
PRG:07FD0: 20 81 04 JSR $0481
PRG:07FD3: 20 00 88 JSR $8800
PRG:07FD6: 92       .byte $92
PRG:07FD7: 18       CLC
PRG:07FD8: 81 C4    STA $C4
PRG:07FDA: 89       .byte $89
PRG:07FDB: 20 39 02 JSR $0239
PRG:07FDE: 0A       ASL
PRG:07FDF: 12       .byte $12
PRG:07FE0: 40       RTI
PRG:07FE1: 82       .byte $82
PRG:07FE2: 44 90    NOP $90
PRG:07FE4: 58       CLI
PRG:07FE5: A0 04    LDY $04
PRG:07FE7: 60       RTS
PRG:07FE8: 00 FF    BRK $FF
PRG:07FEA: FF       .byte $FF
PRG:07FEB: FF       .byte $FF
PRG:07FEC: FF       .byte $FF
PRG:07FED: FF       .byte $FF
PRG:07FEE: FF       .byte $FF
PRG:07FEF: FF       .byte $FF
PRG:07FF0: FF       .byte $FF
PRG:07FF1: FF       .byte $FF
PRG:07FF2: FF       .byte $FF
PRG:07FF3: FF       .byte $FF
PRG:07FF4: FF       .byte $FF
PRG:07FF5: FF       .byte $FF
PRG:07FF6: FF       .byte $FF
PRG:07FF7: FF       .byte $FF
PRG:07FF8: FF       .byte $FF
PRG:07FF9: FF       .byte $FF
PRG:07FFA: 06 B7    ASL $B7
PRG:07FFC: 00 80    BRK $80
PRG:07FFE: 54 B7    NOP $B7
