PRG:00000: 78       SEI
PRG:00001: D8       CLD
PRG:00002: A9 10    LDA $10
PRG:00004: 8D 00 20 STA $2000
PRG:00007: A2 FF    LDX $FF
PRG:00009: 9A       TXS
PRG:0000A: AD 02 20 LDA $2002
PRG:0000D: 10 FB    BPL $FB
PRG:0000F: AD 02 20 LDA $2002
PRG:00012: 10 FB    BPL $FB
PRG:00014: A0 FE    LDY $FE
PRG:00016: A2 05    LDX $05
PRG:00018: BD D7 07 LDA $07D7
PRG:0001B: C9 0A    CMP $0A
PRG:0001D: B0 0C    BCS $0C
PRG:0001F: CA       DEX
PRG:00020: 10 F6    BPL $F6
PRG:00022: AD FF 07 LDA $07FF
PRG:00025: C9 A5    CMP $A5
PRG:00027: D0 02    BNE $02
PRG:00029: A0 D6    LDY $D6
PRG:0002B: 20 CC 90 JSR $90CC
PRG:0002E: 8D 11 40 STA $4011
PRG:00031: 8D 70 07 STA $0770
PRG:00034: A9 A5    LDA $A5
PRG:00036: 8D FF 07 STA $07FF
PRG:00039: 8D A7 07 STA $07A7
PRG:0003C: A9 0F    LDA $0F
PRG:0003E: 8D 15 40 STA $4015
PRG:00041: A9 06    LDA $06
PRG:00043: 8D 01 20 STA $2001
PRG:00046: 20 20 82 JSR $8220
PRG:00049: 20 19 8E JSR $8E19
PRG:0004C: EE 74 07 INC $0774
PRG:0004F: AD 78 07 LDA $0778
PRG:00052: 09 80    ORA $80
PRG:00054: 20 ED 8E JSR $8EED
PRG:00057: 4C 57 80 JMP $8057
PRG:0005A: 01 A4    ORA $A4
PRG:0005C: C8       INY
PRG:0005D: EC 10 00 CPX $0010
PRG:00060: 41 41    EOR $41
PRG:00062: 4C 34 3C JMP $3C34
PRG:00065: 44 54    NOP $54
PRG:00067: 68       PLA
PRG:00068: 7C A8 BF NOP $BFA8
PRG:0006B: DE EF 03 DEC $03EF
PRG:0006E: 8C 8C 8C STY $8C8C
PRG:00071: 8D 03 03 STA $0303
PRG:00074: 03       .byte $03
PRG:00075: 8D 8D 8D STA $8D8D
PRG:00078: 8D 8D 8D STA $8D8D
PRG:0007B: 8D 8D 8D STA $8D8D
PRG:0007E: 8D 8D 00 STA $008D
PRG:00081: 40       RTI
PRG:00082: AD 78 07 LDA $0778
PRG:00085: 29 7F    AND $7F
PRG:00087: 8D 78 07 STA $0778
PRG:0008A: 29 7E    AND $7E
PRG:0008C: 8D 00 20 STA $2000
PRG:0008F: AD 79 07 LDA $0779
PRG:00092: 29 E6    AND $E6
PRG:00094: AC 74 07 LDY $0774
PRG:00097: D0 05    BNE $05
PRG:00099: AD 79 07 LDA $0779
PRG:0009C: 09 1E    ORA $1E
PRG:0009E: 8D 79 07 STA $0779
PRG:000A1: 29 E7    AND $E7
PRG:000A3: 8D 01 20 STA $2001
PRG:000A6: AE 02 20 LDX $2002
PRG:000A9: A9 00    LDA $00
PRG:000AB: 20 E6 8E JSR $8EE6
PRG:000AE: 8D 03 20 STA $2003
PRG:000B1: A9 02    LDA $02
PRG:000B3: 8D 14 40 STA $4014
PRG:000B6: AE 73 07 LDX $0773
PRG:000B9: BD 5A 80 LDA $805A
PRG:000BC: 85 00    STA $00
PRG:000BE: BD 6D 80 LDA $806D
PRG:000C1: 85 01    STA $01
PRG:000C3: 20 DD 8E JSR $8EDD
PRG:000C6: A0 00    LDY $00
PRG:000C8: AE 73 07 LDX $0773
PRG:000CB: E0 06    CPX $06
PRG:000CD: D0 01    BNE $01
PRG:000CF: C8       INY
PRG:000D0: BE 80 80 LDX $8080
PRG:000D3: A9 00    LDA $00
PRG:000D5: 9D 00 03 STA $0300
PRG:000D8: 9D 01 03 STA $0301
PRG:000DB: 8D 73 07 STA $0773
PRG:000DE: AD 79 07 LDA $0779
PRG:000E1: 8D 01 20 STA $2001
PRG:000E4: 20 D0 F2 JSR $F2D0
PRG:000E7: 20 5C 8E JSR $8E5C
PRG:000EA: 20 82 81 JSR $8182
PRG:000ED: 20 97 8F JSR $8F97
PRG:000F0: AD 76 07 LDA $0776
PRG:000F3: 4A       LSR
PRG:000F4: B0 25    BCS $25
PRG:000F6: AD 47 07 LDA $0747
PRG:000F9: F0 05    BEQ $05
PRG:000FB: CE 47 07 DEC $0747
PRG:000FE: D0 19    BNE $19
PRG:00100: A2 14    LDX $14
PRG:00102: CE 7F 07 DEC $077F
PRG:00105: 10 07    BPL $07
PRG:00107: A9 14    LDA $14
PRG:00109: 8D 7F 07 STA $077F
PRG:0010C: A2 23    LDX $23
PRG:0010E: BD 80 07 LDA $0780
PRG:00111: F0 03    BEQ $03
PRG:00113: DE 80 07 DEC $0780
PRG:00116: CA       DEX
PRG:00117: 10 F5    BPL $F5
PRG:00119: E6 09    INC $09
PRG:0011B: A2 00    LDX $00
PRG:0011D: A0 07    LDY $07
PRG:0011F: AD A7 07 LDA $07A7
PRG:00122: 29 02    AND $02
PRG:00124: 85 00    STA $00
PRG:00126: AD A8 07 LDA $07A8
PRG:00129: 29 02    AND $02
PRG:0012B: 45 00    EOR $00
PRG:0012D: 18       CLC
PRG:0012E: F0 01    BEQ $01
PRG:00130: 38       SEC
PRG:00131: 7E A7 07 ROR $07A7
PRG:00134: E8       INX
PRG:00135: 88       DEY
PRG:00136: D0 F9    BNE $F9
PRG:00138: AD 22 07 LDA $0722
PRG:0013B: F0 1F    BEQ $1F
PRG:0013D: AD 02 20 LDA $2002
PRG:00140: 29 40    AND $40
PRG:00142: D0 F9    BNE $F9
PRG:00144: AD 76 07 LDA $0776
PRG:00147: 4A       LSR
PRG:00148: B0 06    BCS $06
PRG:0014A: 20 23 82 JSR $8223
PRG:0014D: 20 C6 81 JSR $81C6
PRG:00150: AD 02 20 LDA $2002
PRG:00153: 29 40    AND $40
PRG:00155: F0 F9    BEQ $F9
PRG:00157: A0 14    LDY $14
PRG:00159: 88       DEY
PRG:0015A: D0 FD    BNE $FD
PRG:0015C: AD 3F 07 LDA $073F
PRG:0015F: 8D 05 20 STA $2005
PRG:00162: AD 40 07 LDA $0740
PRG:00165: 8D 05 20 STA $2005
PRG:00168: AD 78 07 LDA $0778
PRG:0016B: 48       PHA
PRG:0016C: 8D 00 20 STA $2000
PRG:0016F: AD 76 07 LDA $0776
PRG:00172: 4A       LSR
PRG:00173: B0 03    BCS $03
PRG:00175: 20 12 82 JSR $8212
PRG:00178: AD 02 20 LDA $2002
PRG:0017B: 68       PLA
PRG:0017C: 09 80    ORA $80
PRG:0017E: 8D 00 20 STA $2000
PRG:00181: 40       RTI
PRG:00182: AD 70 07 LDA $0770
PRG:00185: C9 02    CMP $02
PRG:00187: F0 0B    BEQ $0B
PRG:00189: C9 01    CMP $01
PRG:0018B: D0 38    BNE $38
PRG:0018D: AD 72 07 LDA $0772
PRG:00190: C9 03    CMP $03
PRG:00192: D0 31    BNE $31
PRG:00194: AD 77 07 LDA $0777
PRG:00197: F0 04    BEQ $04
PRG:00199: CE 77 07 DEC $0777
PRG:0019C: 60       RTS
PRG:0019D: AD FC 06 LDA $06FC
PRG:001A0: 29 10    AND $10
PRG:001A2: F0 19    BEQ $19
PRG:001A4: AD 76 07 LDA $0776
PRG:001A7: 29 80    AND $80
PRG:001A9: D0 1A    BNE $1A
PRG:001AB: A9 2B    LDA $2B
PRG:001AD: 8D 77 07 STA $0777
PRG:001B0: AD 76 07 LDA $0776
PRG:001B3: A8       TAY
PRG:001B4: C8       INY
PRG:001B5: 84 FA    STY $FA
PRG:001B7: 49 01    EOR $01
PRG:001B9: 09 80    ORA $80
PRG:001BB: D0 05    BNE $05
PRG:001BD: AD 76 07 LDA $0776
PRG:001C0: 29 7F    AND $7F
PRG:001C2: 8D 76 07 STA $0776
PRG:001C5: 60       RTS
PRG:001C6: AC 4E 07 LDY $074E
PRG:001C9: A9 28    LDA $28
PRG:001CB: 85 00    STA $00
PRG:001CD: A2 0E    LDX $0E
PRG:001CF: BD E4 06 LDA $06E4
PRG:001D2: C5 00    CMP $00
PRG:001D4: 90 0F    BCC $0F
PRG:001D6: AC E0 06 LDY $06E0
PRG:001D9: 18       CLC
PRG:001DA: 79 E1 06 ADC $06E1
PRG:001DD: 90 03    BCC $03
PRG:001DF: 18       CLC
PRG:001E0: 65 00    ADC $00
PRG:001E2: 9D E4 06 STA $06E4
PRG:001E5: CA       DEX
PRG:001E6: 10 E7    BPL $E7
PRG:001E8: AE E0 06 LDX $06E0
PRG:001EB: E8       INX
PRG:001EC: E0 03    CPX $03
PRG:001EE: D0 02    BNE $02
PRG:001F0: A2 00    LDX $00
PRG:001F2: 8E E0 06 STX $06E0
PRG:001F5: A2 08    LDX $08
PRG:001F7: A0 02    LDY $02
PRG:001F9: B9 E9 06 LDA $06E9
PRG:001FC: 9D F1 06 STA $06F1
PRG:001FF: 18       CLC
PRG:00200: 69 08    ADC $08
PRG:00202: 9D F2 06 STA $06F2
PRG:00205: 18       CLC
PRG:00206: 69 08    ADC $08
PRG:00208: 9D F3 06 STA $06F3
PRG:0020B: CA       DEX
PRG:0020C: CA       DEX
PRG:0020D: CA       DEX
PRG:0020E: 88       DEY
PRG:0020F: 10 E8    BPL $E8
PRG:00211: 60       RTS
PRG:00212: AD 70 07 LDA $0770
PRG:00215: 20 04 8E JSR $8E04
PRG:00218: 31 82    AND $82
PRG:0021A: DC AE 8B NOP $8BAE
PRG:0021D: 83       .byte $83
PRG:0021E: 18       CLC
PRG:0021F: 92       .byte $92
PRG:00220: A0 00    LDY $00
PRG:00222: 2C A0 04 BIT $04A0
PRG:00225: A9 F8    LDA $F8
PRG:00227: 99 00 02 STA $0200
PRG:0022A: C8       INY
PRG:0022B: C8       INY
PRG:0022C: C8       INY
PRG:0022D: C8       INY
PRG:0022E: D0 F7    BNE $F7
PRG:00230: 60       RTS
PRG:00231: AD 72 07 LDA $0772
PRG:00234: 20 04 8E JSR $8E04
PRG:00237: CF       .byte $CF
PRG:00238: 8F       .byte $8F
PRG:00239: 67       .byte $67
PRG:0023A: 85 61    STA $61
PRG:0023C: 90 45    BCC $45
PRG:0023E: 82       .byte $82
PRG:0023F: 04 20    NOP $20
PRG:00241: 73       .byte $73
PRG:00242: 01 00    ORA $00
PRG:00244: 00 A0    BRK $A0
PRG:00246: 00 AD    BRK $AD
PRG:00248: FC 06 0D NOP $0D06
PRG:0024B: FD 06 C9 SBC $C906
PRG:0024E: 10 F0    BPL $F0
PRG:00250: 04 C9    NOP $C9
PRG:00252: 90 D0    BCC $D0
PRG:00254: 03       .byte $03
PRG:00255: 4C D8 82 JMP $82D8
PRG:00258: C9 20    CMP $20
PRG:0025A: F0 1A    BEQ $1A
PRG:0025C: AE A2 07 LDX $07A2
PRG:0025F: D0 0B    BNE $0B
PRG:00261: 8D 80 07 STA $0780
PRG:00264: 20 6B 83 JSR $836B
PRG:00267: B0 60    BCS $60
PRG:00269: 4C C0 82 JMP $82C0
PRG:0026C: AE FC 07 LDX $07FC
PRG:0026F: F0 4A    BEQ $4A
PRG:00271: C9 40    CMP $40
PRG:00273: D0 46    BNE $46
PRG:00275: C8       INY
PRG:00276: AD A2 07 LDA $07A2
PRG:00279: F0 4E    BEQ $4E
PRG:0027B: A9 18    LDA $18
PRG:0027D: 8D A2 07 STA $07A2
PRG:00280: AD 80 07 LDA $0780
PRG:00283: D0 36    BNE $36
PRG:00285: A9 10    LDA $10
PRG:00287: 8D 80 07 STA $0780
PRG:0028A: C0 01    CPY $01
PRG:0028C: F0 0E    BEQ $0E
PRG:0028E: AD 7A 07 LDA $077A
PRG:00291: 49 01    EOR $01
PRG:00293: 8D 7A 07 STA $077A
PRG:00296: 20 25 83 JSR $8325
PRG:00299: 4C BB 82 JMP $82BB
PRG:0029C: AE 6B 07 LDX $076B
PRG:0029F: E8       INX
PRG:002A0: 8A       TXA
PRG:002A1: 29 07    AND $07
PRG:002A3: 8D 6B 07 STA $076B
PRG:002A6: 20 0E 83 JSR $830E
PRG:002A9: BD 3F 82 LDA $823F
PRG:002AC: 9D 00 03 STA $0300
PRG:002AF: E8       INX
PRG:002B0: E0 06    CPX $06
PRG:002B2: 30 F5    BMI $F5
PRG:002B4: AC 5F 07 LDY $075F
PRG:002B7: C8       INY
PRG:002B8: 8C 04 03 STY $0304
PRG:002BB: A9 00    LDA $00
PRG:002BD: 8D FC 06 STA $06FC
PRG:002C0: 20 EA AE JSR $AEEA
PRG:002C3: A5 0E    LDA $0E
PRG:002C5: C9 06    CMP $06
PRG:002C7: D0 44    BNE $44
PRG:002C9: A9 00    LDA $00
PRG:002CB: 8D 70 07 STA $0770
PRG:002CE: 8D 72 07 STA $0772
PRG:002D1: 8D 22 07 STA $0722
PRG:002D4: EE 74 07 INC $0774
PRG:002D7: 60       RTS
PRG:002D8: AC A2 07 LDY $07A2
PRG:002DB: F0 EC    BEQ $EC
PRG:002DD: 0A       ASL
PRG:002DE: 90 06    BCC $06
PRG:002E0: AD FD 07 LDA $07FD
PRG:002E3: 20 0E 83 JSR $830E
PRG:002E6: 20 03 9C JSR $9C03
PRG:002E9: EE 5D 07 INC $075D
PRG:002EC: EE 64 07 INC $0764
PRG:002EF: EE 57 07 INC $0757
PRG:002F2: EE 70 07 INC $0770
PRG:002F5: AD FC 07 LDA $07FC
PRG:002F8: 8D 6A 07 STA $076A
PRG:002FB: A9 00    LDA $00
PRG:002FD: 8D 72 07 STA $0772
PRG:00300: 8D A2 07 STA $07A2
PRG:00303: A2 17    LDX $17
PRG:00305: A9 00    LDA $00
PRG:00307: 9D DD 07 STA $07DD
PRG:0030A: CA       DEX
PRG:0030B: 10 FA    BPL $FA
PRG:0030D: 60       RTS
PRG:0030E: 8D 5F 07 STA $075F
PRG:00311: 8D 66 07 STA $0766
PRG:00314: A2 00    LDX $00
PRG:00316: 8E 60 07 STX $0760
PRG:00319: 8E 67 07 STX $0767
PRG:0031C: 60       RTS
PRG:0031D: 07       .byte $07
PRG:0031E: 22       .byte $22
PRG:0031F: 49 83    EOR $83
PRG:00321: CE 24 24 DEC $2424
PRG:00324: 00 A0    BRK $A0
PRG:00326: 07       .byte $07
PRG:00327: B9 1D 83 LDA $831D
PRG:0032A: 99 00 03 STA $0300
PRG:0032D: 88       DEY
PRG:0032E: 10 F7    BPL $F7
PRG:00330: AD 7A 07 LDA $077A
PRG:00333: F0 0A    BEQ $0A
PRG:00335: A9 24    LDA $24
PRG:00337: 8D 04 03 STA $0304
PRG:0033A: A9 CE    LDA $CE
PRG:0033C: 8D 06 03 STA $0306
PRG:0033F: 60       RTS
PRG:00340: 01 80    ORA $80
PRG:00342: 02       .byte $02
PRG:00343: 81 41    STA $41
PRG:00345: 80 01    NOP $01
PRG:00347: 42       .byte $42
PRG:00348: C2       .byte $C2
PRG:00349: 02       .byte $02
PRG:0034A: 80 41    NOP $41
PRG:0034C: C1 41    CMP $41
PRG:0034E: C1 01    CMP $01
PRG:00350: C1 01    CMP $01
PRG:00352: 02       .byte $02
PRG:00353: 80 00    NOP $00
PRG:00355: 9B       .byte $9B
PRG:00356: 10 18    BPL $18
PRG:00358: 05 2C    ORA $2C
PRG:0035A: 20 24 15 JSR $1524
PRG:0035D: 5A       NOP
PRG:0035E: 10 20    BPL $20
PRG:00360: 28       PLP
PRG:00361: 30 20    BMI $20
PRG:00363: 10 80    BPL $80
PRG:00365: 20 30 30 JSR $3030
PRG:00368: 01 FF    ORA $FF
PRG:0036A: 00 AE    BRK $AE
PRG:0036C: 17       .byte $17
PRG:0036D: 07       .byte $07
PRG:0036E: AD 18 07 LDA $0718
PRG:00371: D0 0D    BNE $0D
PRG:00373: E8       INX
PRG:00374: EE 17 07 INC $0717
PRG:00377: 38       SEC
PRG:00378: BD 54 83 LDA $8354
PRG:0037B: 8D 18 07 STA $0718
PRG:0037E: F0 0A    BEQ $0A
PRG:00380: BD 3F 83 LDA $833F
PRG:00383: 8D FC 06 STA $06FC
PRG:00386: CE 18 07 DEC $0718
PRG:00389: 18       CLC
PRG:0038A: 60       RTS
PRG:0038B: 20 A0 83 JSR $83A0
PRG:0038E: AD 72 07 LDA $0772
PRG:00391: F0 07    BEQ $07
PRG:00393: A2 00    LDX $00
PRG:00395: 86 08    STX $08
PRG:00397: 20 47 C0 JSR $C047
PRG:0039A: 20 2A F1 JSR $F12A
PRG:0039D: 4C E9 EE JMP $EEE9
PRG:003A0: AD 72 07 LDA $0772
PRG:003A3: 20 04 8E JSR $8E04
PRG:003A6: EC CF B0 CPX $B0CF
PRG:003A9: 83       .byte $83
PRG:003AA: BD 83 F6 LDA $F683
PRG:003AD: 83       .byte $83
PRG:003AE: 61 84    ADC $84
PRG:003B0: AE 1B 07 LDX $071B
PRG:003B3: E8       INX
PRG:003B4: 86 34    STX $34
PRG:003B6: A9 08    LDA $08
PRG:003B8: 85 FC    STA $FC
PRG:003BA: 4C 4E 87 JMP $874E
PRG:003BD: A0 00    LDY $00
PRG:003BF: 84 35    STY $35
PRG:003C1: A5 6D    LDA $6D
PRG:003C3: C5 34    CMP $34
PRG:003C5: D0 06    BNE $06
PRG:003C7: A5 86    LDA $86
PRG:003C9: C9 60    CMP $60
PRG:003CB: B0 03    BCS $03
PRG:003CD: E6 35    INC $35
PRG:003CF: C8       INY
PRG:003D0: 98       TYA
PRG:003D1: 20 E6 B0 JSR $B0E6
PRG:003D4: AD 1A 07 LDA $071A
PRG:003D7: C5 34    CMP $34
PRG:003D9: F0 16    BEQ $16
PRG:003DB: AD 68 07 LDA $0768
PRG:003DE: 18       CLC
PRG:003DF: 69 80    ADC $80
PRG:003E1: 8D 68 07 STA $0768
PRG:003E4: A9 01    LDA $01
PRG:003E6: 69 00    ADC $00
PRG:003E8: A8       TAY
PRG:003E9: 20 C4 AF JSR $AFC4
PRG:003EC: 20 6F AF JSR $AF6F
PRG:003EF: E6 35    INC $35
PRG:003F1: A5 35    LDA $35
PRG:003F3: F0 68    BEQ $68
PRG:003F5: 60       RTS
PRG:003F6: AD 49 07 LDA $0749
PRG:003F9: D0 48    BNE $48
PRG:003FB: AD 19 07 LDA $0719
PRG:003FE: F0 18    BEQ $18
PRG:00400: C9 09    CMP $09
PRG:00402: B0 3F    BCS $3F
PRG:00404: AC 5F 07 LDY $075F
PRG:00407: C0 07    CPY $07
PRG:00409: D0 09    BNE $09
PRG:0040B: C9 03    CMP $03
PRG:0040D: 90 34    BCC $34
PRG:0040F: E9 01    SBC $01
PRG:00411: 4C 18 84 JMP $8418
PRG:00414: C9 02    CMP $02
PRG:00416: 90 2B    BCC $2B
PRG:00418: A8       TAY
PRG:00419: D0 08    BNE $08
PRG:0041B: AD 53 07 LDA $0753
PRG:0041E: F0 14    BEQ $14
PRG:00420: C8       INY
PRG:00421: D0 11    BNE $11
PRG:00423: C8       INY
PRG:00424: AD 5F 07 LDA $075F
PRG:00427: C9 07    CMP $07
PRG:00429: F0 09    BEQ $09
PRG:0042B: 88       DEY
PRG:0042C: C0 04    CPY $04
PRG:0042E: B0 26    BCS $26
PRG:00430: C0 03    CPY $03
PRG:00432: B0 0F    BCS $0F
PRG:00434: C0 03    CPY $03
PRG:00436: D0 04    BNE $04
PRG:00438: A9 04    LDA $04
PRG:0043A: 85 FC    STA $FC
PRG:0043C: 98       TYA
PRG:0043D: 18       CLC
PRG:0043E: 69 0C    ADC $0C
PRG:00440: 8D 73 07 STA $0773
PRG:00443: AD 49 07 LDA $0749
PRG:00446: 18       CLC
PRG:00447: 69 04    ADC $04
PRG:00449: 8D 49 07 STA $0749
PRG:0044C: AD 19 07 LDA $0719
PRG:0044F: 69 00    ADC $00
PRG:00451: 8D 19 07 STA $0719
PRG:00454: C9 07    CMP $07
PRG:00456: 90 08    BCC $08
PRG:00458: A9 06    LDA $06
PRG:0045A: 8D A1 07 STA $07A1
PRG:0045D: EE 72 07 INC $0772
PRG:00460: 60       RTS
PRG:00461: AD A1 07 LDA $07A1
PRG:00464: D0 20    BNE $20
PRG:00466: AC 5F 07 LDY $075F
PRG:00469: C0 07    CPY $07
PRG:0046B: B0 1A    BCS $1A
PRG:0046D: A9 00    LDA $00
PRG:0046F: 8D 60 07 STA $0760
PRG:00472: 8D 5C 07 STA $075C
PRG:00475: 8D 72 07 STA $0772
PRG:00478: EE 5F 07 INC $075F
PRG:0047B: 20 03 9C JSR $9C03
PRG:0047E: EE 57 07 INC $0757
PRG:00481: A9 01    LDA $01
PRG:00483: 8D 70 07 STA $0770
PRG:00486: 60       RTS
PRG:00487: AD FC 06 LDA $06FC
PRG:0048A: 0D FD 06 ORA $06FD
PRG:0048D: 29 40    AND $40
PRG:0048F: F0 0D    BEQ $0D
PRG:00491: A9 01    LDA $01
PRG:00493: 8D FC 07 STA $07FC
PRG:00496: A9 FF    LDA $FF
PRG:00498: 8D 5A 07 STA $075A
PRG:0049B: 20 48 92 JSR $9248
PRG:0049E: 60       RTS
PRG:0049F: FF       .byte $FF
PRG:004A0: FF       .byte $FF
PRG:004A1: F6 FB    INC $FB
PRG:004A3: F7       .byte $F7
PRG:004A4: FB       .byte $FB
PRG:004A5: F8       SED
PRG:004A6: FB       .byte $FB
PRG:004A7: F9 FB FA SBC $FAFB
PRG:004AA: FB       .byte $FB
PRG:004AB: F6 50    INC $50
PRG:004AD: F7       .byte $F7
PRG:004AE: 50 F8    BVC $F8
PRG:004B0: 50 F9    BVC $F9
PRG:004B2: 50 FA    BVC $FA
PRG:004B4: 50 FD    BVC $FD
PRG:004B6: FE FF 41 INC $41FF
PRG:004B9: 42       .byte $42
PRG:004BA: 44 45    NOP $45
PRG:004BC: 48       PHA
PRG:004BD: 31 32    AND $32
PRG:004BF: 34 35    NOP $35
PRG:004C1: 38       SEC
PRG:004C2: 00 BD    BRK $BD
PRG:004C4: 10 01    BPL $01
PRG:004C6: F0 BE    BEQ $BE
PRG:004C8: C9 0B    CMP $0B
PRG:004CA: 90 05    BCC $05
PRG:004CC: A9 0B    LDA $0B
PRG:004CE: 9D 10 01 STA $0110
PRG:004D1: A8       TAY
PRG:004D2: BD 2C 01 LDA $012C
PRG:004D5: D0 04    BNE $04
PRG:004D7: 9D 10 01 STA $0110
PRG:004DA: 60       RTS
PRG:004DB: DE 2C 01 DEC $012C
PRG:004DE: C9 2B    CMP $2B
PRG:004E0: D0 1E    BNE $1E
PRG:004E2: C0 0B    CPY $0B
PRG:004E4: D0 07    BNE $07
PRG:004E6: EE 5A 07 INC $075A
PRG:004E9: A9 40    LDA $40
PRG:004EB: 85 FE    STA $FE
PRG:004ED: B9 B7 84 LDA $84B7
PRG:004F0: 4A       LSR
PRG:004F1: 4A       LSR
PRG:004F2: 4A       LSR
PRG:004F3: 4A       LSR
PRG:004F4: AA       TAX
PRG:004F5: B9 B7 84 LDA $84B7
PRG:004F8: 29 0F    AND $0F
PRG:004FA: 9D 34 01 STA $0134
PRG:004FD: 20 27 BC JSR $BC27
PRG:00500: BC E5 06 LDY $06E5
PRG:00503: B5 16    LDA $16
PRG:00505: C9 12    CMP $12
PRG:00507: F0 22    BEQ $22
PRG:00509: C9 0D    CMP $0D
PRG:0050B: F0 1E    BEQ $1E
PRG:0050D: C9 05    CMP $05
PRG:0050F: F0 12    BEQ $12
PRG:00511: C9 0A    CMP $0A
PRG:00513: F0 16    BEQ $16
PRG:00515: C9 0B    CMP $0B
PRG:00517: F0 12    BEQ $12
PRG:00519: C9 09    CMP $09
PRG:0051B: B0 06    BCS $06
PRG:0051D: B5 1E    LDA $1E
PRG:0051F: C9 02    CMP $02
PRG:00521: B0 08    BCS $08
PRG:00523: AE EE 03 LDX $03EE
PRG:00526: BC EC 06 LDY $06EC
PRG:00529: A6 08    LDX $08
PRG:0052B: BD 1E 01 LDA $011E
PRG:0052E: C9 18    CMP $18
PRG:00530: 90 05    BCC $05
PRG:00532: E9 01    SBC $01
PRG:00534: 9D 1E 01 STA $011E
PRG:00537: BD 1E 01 LDA $011E
PRG:0053A: E9 08    SBC $08
PRG:0053C: 20 C1 E5 JSR $E5C1
PRG:0053F: BD 17 01 LDA $0117
PRG:00542: 99 03 02 STA $0203
PRG:00545: 18       CLC
PRG:00546: 69 08    ADC $08
PRG:00548: 99 07 02 STA $0207
PRG:0054B: A9 02    LDA $02
PRG:0054D: 99 02 02 STA $0202
PRG:00550: 99 06 02 STA $0206
PRG:00553: BD 10 01 LDA $0110
PRG:00556: 0A       ASL
PRG:00557: AA       TAX
PRG:00558: BD 9F 84 LDA $849F
PRG:0055B: 99 01 02 STA $0201
PRG:0055E: BD A0 84 LDA $84A0
PRG:00561: 99 05 02 STA $0205
PRG:00564: A6 08    LDX $08
PRG:00566: 60       RTS
PRG:00567: AD 3C 07 LDA $073C
PRG:0056A: 20 04 8E JSR $8E04
PRG:0056D: 8B       .byte $8B
PRG:0056E: 85 9B    STA $9B
PRG:00570: 85 52    STA $52
PRG:00572: 86 5A    STX $5A
PRG:00574: 86 93    STX $93
PRG:00576: 86 9D    STX $9D
PRG:00578: 88       DEY
PRG:00579: A8       TAY
PRG:0057A: 86 9D    STX $9D
PRG:0057C: 88       DEY
PRG:0057D: E6 86    INC $86
PRG:0057F: BF       .byte $BF
PRG:00580: 85 E3    STA $E3
PRG:00582: 85 43    STA $43
PRG:00584: 86 FF    STX $FF
PRG:00586: 86 32    STX $32
PRG:00588: 87       .byte $87
PRG:00589: 49 87    EOR $87
PRG:0058B: 20 20 82 JSR $8220
PRG:0058E: 20 19 8E JSR $8E19
PRG:00591: AD 70 07 LDA $0770
PRG:00594: F0 32    BEQ $32
PRG:00596: A2 03    LDX $03
PRG:00598: 4C C5 85 JMP $85C5
PRG:0059B: AD 44 07 LDA $0744
PRG:0059E: 48       PHA
PRG:0059F: AD 56 07 LDA $0756
PRG:005A2: 48       PHA
PRG:005A3: A9 00    LDA $00
PRG:005A5: 8D 56 07 STA $0756
PRG:005A8: A9 02    LDA $02
PRG:005AA: 8D 44 07 STA $0744
PRG:005AD: 20 F1 85 JSR $85F1
PRG:005B0: 68       PLA
PRG:005B1: 8D 56 07 STA $0756
PRG:005B4: 68       PLA
PRG:005B5: 8D 44 07 STA $0744
PRG:005B8: 4C 45 87 JMP $8745
PRG:005BB: 01 02    ORA $02
PRG:005BD: 03       .byte $03
PRG:005BE: 04 AC    NOP $AC
PRG:005C0: 4E 07 BE LSR $BE07
PRG:005C3: BB       .byte $BB
PRG:005C4: 85 8E    STA $8E
PRG:005C6: 73       .byte $73
PRG:005C7: 07       .byte $07
PRG:005C8: 4C 45 87 JMP $8745
PRG:005CB: 00 09    BRK $09
PRG:005CD: 0A       ASL
PRG:005CE: 04 22    NOP $22
PRG:005D0: 22       .byte $22
PRG:005D1: 0F       .byte $0F
PRG:005D2: 0F       .byte $0F
PRG:005D3: 0F       .byte $0F
PRG:005D4: 22       .byte $22
PRG:005D5: 0F       .byte $0F
PRG:005D6: 0F       .byte $0F
PRG:005D7: 22       .byte $22
PRG:005D8: 16 27    ASL $27
PRG:005DA: 18       CLC
PRG:005DB: 22       .byte $22
PRG:005DC: 30 27    BMI $27
PRG:005DE: 19 22 37 ORA $3722
PRG:005E1: 27       .byte $27
PRG:005E2: 16 AC    ASL $AC
PRG:005E4: 44 07    NOP $07
PRG:005E6: F0 06    BEQ $06
PRG:005E8: B9 C7 85 LDA $85C7
PRG:005EB: 8D 73 07 STA $0773
PRG:005EE: EE 3C 07 INC $073C
PRG:005F1: AE 00 03 LDX $0300
PRG:005F4: A0 00    LDY $00
PRG:005F6: AD 53 07 LDA $0753
PRG:005F9: F0 02    BEQ $02
PRG:005FB: A0 04    LDY $04
PRG:005FD: AD 56 07 LDA $0756
PRG:00600: C9 02    CMP $02
PRG:00602: D0 02    BNE $02
PRG:00604: A0 08    LDY $08
PRG:00606: A9 03    LDA $03
PRG:00608: 85 00    STA $00
PRG:0060A: B9 D7 85 LDA $85D7
PRG:0060D: 9D 04 03 STA $0304
PRG:00610: C8       INY
PRG:00611: E8       INX
PRG:00612: C6 00    DEC $00
PRG:00614: 10 F4    BPL $F4
PRG:00616: AE 00 03 LDX $0300
PRG:00619: AC 44 07 LDY $0744
PRG:0061C: D0 03    BNE $03
PRG:0061E: AC 4E 07 LDY $074E
PRG:00621: B9 CF 85 LDA $85CF
PRG:00624: 9D 04 03 STA $0304
PRG:00627: A9 3F    LDA $3F
PRG:00629: 9D 01 03 STA $0301
PRG:0062C: A9 10    LDA $10
PRG:0062E: 9D 02 03 STA $0302
PRG:00631: A9 04    LDA $04
PRG:00633: 9D 03 03 STA $0303
PRG:00636: A9 00    LDA $00
PRG:00638: 9D 08 03 STA $0308
PRG:0063B: 8A       TXA
PRG:0063C: 18       CLC
PRG:0063D: 69 07    ADC $07
PRG:0063F: 8D 00 03 STA $0300
PRG:00642: 60       RTS
PRG:00643: AD 33 07 LDA $0733
PRG:00646: C9 01    CMP $01
PRG:00648: D0 05    BNE $05
PRG:0064A: A9 0B    LDA $0B
PRG:0064C: 8D 73 07 STA $0773
PRG:0064F: 4C 45 87 JMP $8745
PRG:00652: A9 00    LDA $00
PRG:00654: 20 08 88 JSR $8808
PRG:00657: 4C 45 87 JMP $8745
PRG:0065A: 20 30 BC JSR $BC30
PRG:0065D: AE 00 03 LDX $0300
PRG:00660: A9 20    LDA $20
PRG:00662: 9D 01 03 STA $0301
PRG:00665: A9 73    LDA $73
PRG:00667: 9D 02 03 STA $0302
PRG:0066A: A9 03    LDA $03
PRG:0066C: 9D 03 03 STA $0303
PRG:0066F: AC 5F 07 LDY $075F
PRG:00672: C8       INY
PRG:00673: 98       TYA
PRG:00674: 9D 04 03 STA $0304
PRG:00677: A9 28    LDA $28
PRG:00679: 9D 05 03 STA $0305
PRG:0067C: AC 5C 07 LDY $075C
PRG:0067F: C8       INY
PRG:00680: 98       TYA
PRG:00681: 9D 06 03 STA $0306
PRG:00684: A9 00    LDA $00
PRG:00686: 9D 07 03 STA $0307
PRG:00689: 8A       TXA
PRG:0068A: 18       CLC
PRG:0068B: 69 06    ADC $06
PRG:0068D: 8D 00 03 STA $0300
PRG:00690: 4C 45 87 JMP $8745
PRG:00693: AD 59 07 LDA $0759
PRG:00696: F0 0A    BEQ $0A
PRG:00698: A9 00    LDA $00
PRG:0069A: 8D 59 07 STA $0759
PRG:0069D: A9 02    LDA $02
PRG:0069F: 4C C7 86 JMP $86C7
PRG:006A2: EE 3C 07 INC $073C
PRG:006A5: 4C 45 87 JMP $8745
PRG:006A8: AD 70 07 LDA $0770
PRG:006AB: F0 33    BEQ $33
PRG:006AD: C9 03    CMP $03
PRG:006AF: F0 22    BEQ $22
PRG:006B1: AD 52 07 LDA $0752
PRG:006B4: D0 2A    BNE $2A
PRG:006B6: AC 4E 07 LDY $074E
PRG:006B9: C0 03    CPY $03
PRG:006BB: F0 05    BEQ $05
PRG:006BD: AD 69 07 LDA $0769
PRG:006C0: D0 1E    BNE $1E
PRG:006C2: 20 A4 EF JSR $EFA4
PRG:006C5: A9 01    LDA $01
PRG:006C7: 20 08 88 JSR $8808
PRG:006CA: 20 A5 88 JSR $88A5
PRG:006CD: A9 00    LDA $00
PRG:006CF: 8D 74 07 STA $0774
PRG:006D2: 60       RTS
PRG:006D3: A9 12    LDA $12
PRG:006D5: 8D A0 07 STA $07A0
PRG:006D8: A9 03    LDA $03
PRG:006DA: 20 08 88 JSR $8808
PRG:006DD: 4C 4E 87 JMP $874E
PRG:006E0: A9 08    LDA $08
PRG:006E2: 8D 3C 07 STA $073C
PRG:006E5: 60       RTS
PRG:006E6: EE 74 07 INC $0774
PRG:006E9: 20 B0 92 JSR $92B0
PRG:006EC: AD 1F 07 LDA $071F
PRG:006EF: D0 F8    BNE $F8
PRG:006F1: CE 1E 07 DEC $071E
PRG:006F4: 10 03    BPL $03
PRG:006F6: EE 3C 07 INC $073C
PRG:006F9: A9 06    LDA $06
PRG:006FB: 8D 73 07 STA $0773
PRG:006FE: 60       RTS
PRG:006FF: AD 70 07 LDA $0770
PRG:00702: D0 4A    BNE $4A
PRG:00704: A9 1E    LDA $1E
PRG:00706: 8D 06 20 STA $2006
PRG:00709: A9 C0    LDA $C0
PRG:0070B: 8D 06 20 STA $2006
PRG:0070E: A9 03    LDA $03
PRG:00710: 85 01    STA $01
PRG:00712: A0 00    LDY $00
PRG:00714: 84 00    STY $00
PRG:00716: AD 07 20 LDA $2007
PRG:00719: AD 07 20 LDA $2007
PRG:0071C: 91 00    STA $00
PRG:0071E: C8       INY
PRG:0071F: D0 02    BNE $02
PRG:00721: E6 01    INC $01
PRG:00723: A5 01    LDA $01
PRG:00725: C9 04    CMP $04
PRG:00727: D0 F0    BNE $F0
PRG:00729: C0 3A    CPY $3A
PRG:0072B: 90 EC    BCC $EC
PRG:0072D: A9 05    LDA $05
PRG:0072F: 4C 4C 86 JMP $864C
PRG:00732: AD 70 07 LDA $0770
PRG:00735: D0 17    BNE $17
PRG:00737: A2 00    LDX $00
PRG:00739: 9D 00 03 STA $0300
PRG:0073C: 9D 00 04 STA $0400
PRG:0073F: CA       DEX
PRG:00740: D0 F7    BNE $F7
PRG:00742: 20 25 83 JSR $8325
PRG:00745: EE 3C 07 INC $073C
PRG:00748: 60       RTS
PRG:00749: A9 FA    LDA $FA
PRG:0074B: 20 36 BC JSR $BC36
PRG:0074E: EE 72 07 INC $0772
PRG:00751: 60       RTS
PRG:00752: 20 43 05 JSR $0543
PRG:00755: 16 0A    ASL $0A
PRG:00757: 1B       .byte $1B
PRG:00758: 12       .byte $12
PRG:00759: 18       CLC
PRG:0075A: 20 52 0B JSR $0B52
PRG:0075D: 20 18 1B JSR $1B18
PRG:00760: 15 0D    ORA $0D
PRG:00762: 24 24    BIT $24
PRG:00764: 1D 12 16 ORA $1612
PRG:00767: 0E 20 68 ASL $6820
PRG:0076A: 05 00    ORA $00
PRG:0076C: 24 24    BIT $24
PRG:0076E: 2E 29 23 ROL $2329
PRG:00771: C0 7F    CPY $7F
PRG:00773: AA       TAX
PRG:00774: 23       .byte $23
PRG:00775: C2       .byte $C2
PRG:00776: 01 EA    ORA $EA
PRG:00778: FF       .byte $FF
PRG:00779: 21 CD    AND $CD
PRG:0077B: 07       .byte $07
PRG:0077C: 24 24    BIT $24
PRG:0077E: 29 24    AND $24
PRG:00780: 24 24    BIT $24
PRG:00782: 24 21    BIT $21
PRG:00784: 4B       .byte $4B
PRG:00785: 09 20    ORA $20
PRG:00787: 18       CLC
PRG:00788: 1B       .byte $1B
PRG:00789: 15 0D    ORA $0D
PRG:0078B: 24 24    BIT $24
PRG:0078D: 28       PLP
PRG:0078E: 24 22    BIT $22
PRG:00790: 0C 47 24 NOP $2447
PRG:00793: 23       .byte $23
PRG:00794: DC 01 BA NOP $BA01
PRG:00797: FF       .byte $FF
PRG:00798: 21 CD    AND $CD
PRG:0079A: 05 16    ORA $16
PRG:0079C: 0A       ASL
PRG:0079D: 1B       .byte $1B
PRG:0079E: 12       .byte $12
PRG:0079F: 18       CLC
PRG:007A0: 22       .byte $22
PRG:007A1: 0C 07 1D NOP $1D07
PRG:007A4: 12       .byte $12
PRG:007A5: 16 0E    ASL $0E
PRG:007A7: 24 1E    BIT $1E
PRG:007A9: 19 FF 21 ORA $21FF
PRG:007AC: CD 05 16 CMP $1605
PRG:007AF: 0A       ASL
PRG:007B0: 1B       .byte $1B
PRG:007B1: 12       .byte $12
PRG:007B2: 18       CLC
PRG:007B3: 22       .byte $22
PRG:007B4: 0B       .byte $0B
PRG:007B5: 09 10    ORA $10
PRG:007B7: 0A       ASL
PRG:007B8: 16 0E    ASL $0E
PRG:007BA: 24 18    BIT $18
PRG:007BC: 1F       .byte $1F
PRG:007BD: 0E 1B FF ASL $FF1B
PRG:007C0: 25 84    AND $84
PRG:007C2: 15 20    ORA $20
PRG:007C4: 0E 15 0C ASL $0C15
PRG:007C7: 18       CLC
PRG:007C8: 16 0E    ASL $0E
PRG:007CA: 24 1D    BIT $1D
PRG:007CC: 18       CLC
PRG:007CD: 24 20    BIT $20
PRG:007CF: 0A       ASL
PRG:007D0: 1B       .byte $1B
PRG:007D1: 19 24 23 ORA $2324
PRG:007D4: 18       CLC
PRG:007D5: 17       .byte $17
PRG:007D6: 0E 2B 26 ASL $262B
PRG:007D9: 25 01    AND $01
PRG:007DB: 24 26    BIT $26
PRG:007DD: 2D 01 24 AND $2401
PRG:007E0: 26 35    ROL $35
PRG:007E2: 01 24    ORA $24
PRG:007E4: 27       .byte $27
PRG:007E5: D9 46 AA CMP $AA46
PRG:007E8: 27       .byte $27
PRG:007E9: E1 45    SBC $45
PRG:007EB: AA       TAX
PRG:007EC: FF       .byte $FF
PRG:007ED: 15 1E    ORA $1E
PRG:007EF: 12       .byte $12
PRG:007F0: 10 12    BPL $12
PRG:007F2: 04 03    NOP $03
PRG:007F4: 02       .byte $02
PRG:007F5: 00 24    BRK $24
PRG:007F7: 05 24    ORA $24
PRG:007F9: 00 08    BRK $08
PRG:007FB: 07       .byte $07
PRG:007FC: 06 00    ASL $00
PRG:007FE: 00 00    BRK $00
PRG:00800: 27       .byte $27
PRG:00801: 27       .byte $27
PRG:00802: 46 4E    LSR $4E
PRG:00804: 59 61 6E EOR $6E61
PRG:00807: 6E 48 0A ROR $0A48
PRG:0080A: A8       TAY
PRG:0080B: C0 04    CPY $04
PRG:0080D: 90 0C    BCC $0C
PRG:0080F: C0 08    CPY $08
PRG:00811: 90 02    BCC $02
PRG:00813: A0 08    LDY $08
PRG:00815: AD 7A 07 LDA $077A
PRG:00818: D0 01    BNE $01
PRG:0081A: C8       INY
PRG:0081B: BE FE 87 LDX $87FE
PRG:0081E: A0 00    LDY $00
PRG:00820: BD 52 87 LDA $8752
PRG:00823: C9 FF    CMP $FF
PRG:00825: F0 07    BEQ $07
PRG:00827: 99 01 03 STA $0301
PRG:0082A: E8       INX
PRG:0082B: C8       INY
PRG:0082C: D0 F2    BNE $F2
PRG:0082E: A9 00    LDA $00
PRG:00830: 99 01 03 STA $0301
PRG:00833: 68       PLA
PRG:00834: AA       TAX
PRG:00835: C9 04    CMP $04
PRG:00837: B0 49    BCS $49
PRG:00839: CA       DEX
PRG:0083A: D0 23    BNE $23
PRG:0083C: AD 5A 07 LDA $075A
PRG:0083F: 18       CLC
PRG:00840: 69 01    ADC $01
PRG:00842: C9 0A    CMP $0A
PRG:00844: 90 07    BCC $07
PRG:00846: E9 0A    SBC $0A
PRG:00848: A0 9F    LDY $9F
PRG:0084A: 8C 08 03 STY $0308
PRG:0084D: 8D 09 03 STA $0309
PRG:00850: AC 5F 07 LDY $075F
PRG:00853: C8       INY
PRG:00854: 8C 14 03 STY $0314
PRG:00857: AC 5C 07 LDY $075C
PRG:0085A: C8       INY
PRG:0085B: 8C 16 03 STY $0316
PRG:0085E: 60       RTS
PRG:0085F: AD 7A 07 LDA $077A
PRG:00862: F0 1D    BEQ $1D
PRG:00864: AD 53 07 LDA $0753
PRG:00867: CA       DEX
PRG:00868: D0 09    BNE $09
PRG:0086A: AC 70 07 LDY $0770
PRG:0086D: C0 03    CPY $03
PRG:0086F: F0 02    BEQ $02
PRG:00871: 49 01    EOR $01
PRG:00873: 4A       LSR
PRG:00874: 90 0B    BCC $0B
PRG:00876: A0 04    LDY $04
PRG:00878: B9 ED 87 LDA $87ED
PRG:0087B: 99 04 03 STA $0304
PRG:0087E: 88       DEY
PRG:0087F: 10 F7    BPL $F7
PRG:00881: 60       RTS
PRG:00882: E9 04    SBC $04
PRG:00884: 0A       ASL
PRG:00885: 0A       ASL
PRG:00886: AA       TAX
PRG:00887: A0 00    LDY $00
PRG:00889: BD F2 87 LDA $87F2
PRG:0088C: 99 1C 03 STA $031C
PRG:0088F: E8       INX
PRG:00890: C8       INY
PRG:00891: C8       INY
PRG:00892: C8       INY
PRG:00893: C8       INY
PRG:00894: C0 0C    CPY $0C
PRG:00896: 90 F1    BCC $F1
PRG:00898: A9 2C    LDA $2C
PRG:0089A: 4C 3F 86 JMP $863F
PRG:0089D: AD A0 07 LDA $07A0
PRG:008A0: D0 0B    BNE $0B
PRG:008A2: 20 20 82 JSR $8220
PRG:008A5: A9 07    LDA $07
PRG:008A7: 8D A0 07 STA $07A0
PRG:008AA: EE 3C 07 INC $073C
PRG:008AD: 60       RTS
PRG:008AE: AD 26 07 LDA $0726
PRG:008B1: 29 01    AND $01
PRG:008B3: 85 05    STA $05
PRG:008B5: AC 40 03 LDY $0340
PRG:008B8: 84 00    STY $00
PRG:008BA: AD 21 07 LDA $0721
PRG:008BD: 99 42 03 STA $0342
PRG:008C0: AD 20 07 LDA $0720
PRG:008C3: 99 41 03 STA $0341
PRG:008C6: A9 9A    LDA $9A
PRG:008C8: 99 43 03 STA $0343
PRG:008CB: A9 00    LDA $00
PRG:008CD: 85 04    STA $04
PRG:008CF: AA       TAX
PRG:008D0: 86 01    STX $01
PRG:008D2: BD A1 06 LDA $06A1
PRG:008D5: 29 C0    AND $C0
PRG:008D7: 85 03    STA $03
PRG:008D9: 0A       ASL
PRG:008DA: 2A       ROL
PRG:008DB: 2A       ROL
PRG:008DC: A8       TAY
PRG:008DD: B9 08 8B LDA $8B08
PRG:008E0: 85 06    STA $06
PRG:008E2: B9 0C 8B LDA $8B0C
PRG:008E5: 85 07    STA $07
PRG:008E7: BD A1 06 LDA $06A1
PRG:008EA: 0A       ASL
PRG:008EB: 0A       ASL
PRG:008EC: 85 02    STA $02
PRG:008EE: AD 1F 07 LDA $071F
PRG:008F1: 29 01    AND $01
PRG:008F3: 49 01    EOR $01
PRG:008F5: 0A       ASL
PRG:008F6: 65 02    ADC $02
PRG:008F8: A8       TAY
PRG:008F9: A6 00    LDX $00
PRG:008FB: B1 06    LDA $06
PRG:008FD: 9D 44 03 STA $0344
PRG:00900: C8       INY
PRG:00901: B1 06    LDA $06
PRG:00903: 9D 45 03 STA $0345
PRG:00906: A4 04    LDY $04
PRG:00908: A5 05    LDA $05
PRG:0090A: D0 0E    BNE $0E
PRG:0090C: A5 01    LDA $01
PRG:0090E: 4A       LSR
PRG:0090F: B0 19    BCS $19
PRG:00911: 26 03    ROL $03
PRG:00913: 26 03    ROL $03
PRG:00915: 26 03    ROL $03
PRG:00917: 4C 30 89 JMP $8930
PRG:0091A: A5 01    LDA $01
PRG:0091C: 4A       LSR
PRG:0091D: B0 0F    BCS $0F
PRG:0091F: 46 03    LSR $03
PRG:00921: 46 03    LSR $03
PRG:00923: 46 03    LSR $03
PRG:00925: 46 03    LSR $03
PRG:00927: 4C 30 89 JMP $8930
PRG:0092A: 46 03    LSR $03
PRG:0092C: 46 03    LSR $03
PRG:0092E: E6 04    INC $04
PRG:00930: B9 F9 03 LDA $03F9
PRG:00933: 05 03    ORA $03
PRG:00935: 99 F9 03 STA $03F9
PRG:00938: E6 00    INC $00
PRG:0093A: E6 00    INC $00
PRG:0093C: A6 01    LDX $01
PRG:0093E: E8       INX
PRG:0093F: E0 0D    CPX $0D
PRG:00941: 90 8D    BCC $8D
PRG:00943: A4 00    LDY $00
PRG:00945: C8       INY
PRG:00946: C8       INY
PRG:00947: C8       INY
PRG:00948: A9 00    LDA $00
PRG:0094A: 99 41 03 STA $0341
PRG:0094D: 8C 40 03 STY $0340
PRG:00950: EE 21 07 INC $0721
PRG:00953: AD 21 07 LDA $0721
PRG:00956: 29 1F    AND $1F
PRG:00958: D0 0D    BNE $0D
PRG:0095A: A9 80    LDA $80
PRG:0095C: 8D 21 07 STA $0721
PRG:0095F: AD 20 07 LDA $0720
PRG:00962: 49 04    EOR $04
PRG:00964: 8D 20 07 STA $0720
PRG:00967: 4C BD 89 JMP $89BD
PRG:0096A: AD 21 07 LDA $0721
PRG:0096D: 29 1F    AND $1F
PRG:0096F: 38       SEC
PRG:00970: E9 04    SBC $04
PRG:00972: 29 1F    AND $1F
PRG:00974: 85 01    STA $01
PRG:00976: AD 20 07 LDA $0720
PRG:00979: B0 02    BCS $02
PRG:0097B: 49 04    EOR $04
PRG:0097D: 29 04    AND $04
PRG:0097F: 09 23    ORA $23
PRG:00981: 85 00    STA $00
PRG:00983: A5 01    LDA $01
PRG:00985: 4A       LSR
PRG:00986: 4A       LSR
PRG:00987: 69 C0    ADC $C0
PRG:00989: 85 01    STA $01
PRG:0098B: A2 00    LDX $00
PRG:0098D: AC 40 03 LDY $0340
PRG:00990: A5 00    LDA $00
PRG:00992: 99 41 03 STA $0341
PRG:00995: A5 01    LDA $01
PRG:00997: 18       CLC
PRG:00998: 69 08    ADC $08
PRG:0099A: 99 42 03 STA $0342
PRG:0099D: 85 01    STA $01
PRG:0099F: BD F9 03 LDA $03F9
PRG:009A2: 99 44 03 STA $0344
PRG:009A5: A9 01    LDA $01
PRG:009A7: 99 43 03 STA $0343
PRG:009AA: 4A       LSR
PRG:009AB: 9D F9 03 STA $03F9
PRG:009AE: C8       INY
PRG:009AF: C8       INY
PRG:009B0: C8       INY
PRG:009B1: C8       INY
PRG:009B2: E8       INX
PRG:009B3: E0 07    CPX $07
PRG:009B5: 90 D9    BCC $D9
PRG:009B7: 99 41 03 STA $0341
PRG:009BA: 8C 40 03 STY $0340
PRG:009BD: A9 06    LDA $06
PRG:009BF: 8D 73 07 STA $0773
PRG:009C2: 60       RTS
PRG:009C3: 27       .byte $27
PRG:009C4: 27       .byte $27
PRG:009C5: 27       .byte $27
PRG:009C6: 17       .byte $17
PRG:009C7: 07       .byte $07
PRG:009C8: 17       .byte $17
PRG:009C9: 3F       .byte $3F
PRG:009CA: 0C 04 FF NOP $FF04
PRG:009CD: FF       .byte $FF
PRG:009CE: FF       .byte $FF
PRG:009CF: FF       .byte $FF
PRG:009D0: 00 0F    BRK $0F
PRG:009D2: 07       .byte $07
PRG:009D3: 12       .byte $12
PRG:009D4: 0F       .byte $0F
PRG:009D5: 0F       .byte $0F
PRG:009D6: 07       .byte $07
PRG:009D7: 17       .byte $17
PRG:009D8: 0F       .byte $0F
PRG:009D9: 0F       .byte $0F
PRG:009DA: 07       .byte $07
PRG:009DB: 17       .byte $17
PRG:009DC: 1C 0F 07 NOP $070F
PRG:009DF: 17       .byte $17
PRG:009E0: 00 A5    BRK $A5
PRG:009E2: 09 29    ORA $29
PRG:009E4: 07       .byte $07
PRG:009E5: D0 51    BNE $51
PRG:009E7: AE 00 03 LDX $0300
PRG:009EA: E0 31    CPX $31
PRG:009EC: B0 4A    BCS $4A
PRG:009EE: A8       TAY
PRG:009EF: B9 C9 89 LDA $89C9
PRG:009F2: 9D 01 03 STA $0301
PRG:009F5: E8       INX
PRG:009F6: C8       INY
PRG:009F7: C0 08    CPY $08
PRG:009F9: 90 F4    BCC $F4
PRG:009FB: AE 00 03 LDX $0300
PRG:009FE: A9 03    LDA $03
PRG:00A00: 85 00    STA $00
PRG:00A02: AD 4E 07 LDA $074E
PRG:00A05: 0A       ASL
PRG:00A06: 0A       ASL
PRG:00A07: A8       TAY
PRG:00A08: B9 D1 89 LDA $89D1
PRG:00A0B: 9D 04 03 STA $0304
PRG:00A0E: C8       INY
PRG:00A0F: E8       INX
PRG:00A10: C6 00    DEC $00
PRG:00A12: 10 F4    BPL $F4
PRG:00A14: AE 00 03 LDX $0300
PRG:00A17: AC D4 06 LDY $06D4
PRG:00A1A: B9 C3 89 LDA $89C3
PRG:00A1D: 9D 05 03 STA $0305
PRG:00A20: AD 00 03 LDA $0300
PRG:00A23: 18       CLC
PRG:00A24: 69 07    ADC $07
PRG:00A26: 8D 00 03 STA $0300
PRG:00A29: EE D4 06 INC $06D4
PRG:00A2C: AD D4 06 LDA $06D4
PRG:00A2F: C9 06    CMP $06
PRG:00A31: 90 05    BCC $05
PRG:00A33: A9 00    LDA $00
PRG:00A35: 8D D4 06 STA $06D4
PRG:00A38: 60       RTS
PRG:00A39: 45 45    EOR $45
PRG:00A3B: 47       .byte $47
PRG:00A3C: 47       .byte $47
PRG:00A3D: 47       .byte $47
PRG:00A3E: 47       .byte $47
PRG:00A3F: 47       .byte $47
PRG:00A40: 47       .byte $47
PRG:00A41: 57       .byte $57
PRG:00A42: 58       CLI
PRG:00A43: 59 5A 24 EOR $245A
PRG:00A46: 24 24    BIT $24
PRG:00A48: 24 26    BIT $26
PRG:00A4A: 26 26    ROL $26
PRG:00A4C: 26 A0    ROL $A0
PRG:00A4E: 41 A9    EOR $A9
PRG:00A50: 03       .byte $03
PRG:00A51: AE 4E 07 LDX $074E
PRG:00A54: D0 02    BNE $02
PRG:00A56: A9 04    LDA $04
PRG:00A58: 20 97 8A JSR $8A97
PRG:00A5B: A9 06    LDA $06
PRG:00A5D: 8D 73 07 STA $0773
PRG:00A60: 60       RTS
PRG:00A61: 20 6D 8A JSR $8A6D
PRG:00A64: EE F0 03 INC $03F0
PRG:00A67: DE EC 03 DEC $03EC
PRG:00A6A: 60       RTS
PRG:00A6B: A9 00    LDA $00
PRG:00A6D: A0 03    LDY $03
PRG:00A6F: C9 00    CMP $00
PRG:00A71: F0 14    BEQ $14
PRG:00A73: A0 00    LDY $00
PRG:00A75: C9 58    CMP $58
PRG:00A77: F0 0E    BEQ $0E
PRG:00A79: C9 51    CMP $51
PRG:00A7B: F0 0A    BEQ $0A
PRG:00A7D: C8       INY
PRG:00A7E: C9 5D    CMP $5D
PRG:00A80: F0 05    BEQ $05
PRG:00A82: C9 52    CMP $52
PRG:00A84: F0 01    BEQ $01
PRG:00A86: C8       INY
PRG:00A87: 98       TYA
PRG:00A88: AC 00 03 LDY $0300
PRG:00A8B: C8       INY
PRG:00A8C: 20 97 8A JSR $8A97
PRG:00A8F: 88       DEY
PRG:00A90: 98       TYA
PRG:00A91: 18       CLC
PRG:00A92: 69 0A    ADC $0A
PRG:00A94: 4C 3F 86 JMP $863F
PRG:00A97: 86 00    STX $00
PRG:00A99: 84 01    STY $01
PRG:00A9B: 0A       ASL
PRG:00A9C: 0A       ASL
PRG:00A9D: AA       TAX
PRG:00A9E: A0 20    LDY $20
PRG:00AA0: A5 06    LDA $06
PRG:00AA2: C9 D0    CMP $D0
PRG:00AA4: 90 02    BCC $02
PRG:00AA6: A0 24    LDY $24
PRG:00AA8: 84 03    STY $03
PRG:00AAA: 29 0F    AND $0F
PRG:00AAC: 0A       ASL
PRG:00AAD: 85 04    STA $04
PRG:00AAF: A9 00    LDA $00
PRG:00AB1: 85 05    STA $05
PRG:00AB3: A5 02    LDA $02
PRG:00AB5: 18       CLC
PRG:00AB6: 69 20    ADC $20
PRG:00AB8: 0A       ASL
PRG:00AB9: 26 05    ROL $05
PRG:00ABB: 0A       ASL
PRG:00ABC: 26 05    ROL $05
PRG:00ABE: 65 04    ADC $04
PRG:00AC0: 85 04    STA $04
PRG:00AC2: A5 05    LDA $05
PRG:00AC4: 69 00    ADC $00
PRG:00AC6: 18       CLC
PRG:00AC7: 65 03    ADC $03
PRG:00AC9: 85 05    STA $05
PRG:00ACB: A4 01    LDY $01
PRG:00ACD: BD 39 8A LDA $8A39
PRG:00AD0: 99 03 03 STA $0303
PRG:00AD3: BD 3A 8A LDA $8A3A
PRG:00AD6: 99 04 03 STA $0304
PRG:00AD9: BD 3B 8A LDA $8A3B
PRG:00ADC: 99 08 03 STA $0308
PRG:00ADF: BD 3C 8A LDA $8A3C
PRG:00AE2: 99 09 03 STA $0309
PRG:00AE5: A5 04    LDA $04
PRG:00AE7: 99 01 03 STA $0301
PRG:00AEA: 18       CLC
PRG:00AEB: 69 20    ADC $20
PRG:00AED: 99 06 03 STA $0306
PRG:00AF0: A5 05    LDA $05
PRG:00AF2: 99 00 03 STA $0300
PRG:00AF5: 99 05 03 STA $0305
PRG:00AF8: A9 02    LDA $02
PRG:00AFA: 99 02 03 STA $0302
PRG:00AFD: 99 07 03 STA $0307
PRG:00B00: A9 00    LDA $00
PRG:00B02: 99 0A 03 STA $030A
PRG:00B05: A6 00    LDX $00
PRG:00B07: 60       RTS
PRG:00B08: 10 AC    BPL $AC
PRG:00B0A: 64 8C    NOP $8C
PRG:00B0C: 8B       .byte $8B
PRG:00B0D: 8B       .byte $8B
PRG:00B0E: 8C 8C 24 STY $248C
PRG:00B11: 24 24    BIT $24
PRG:00B13: 24 27    BIT $27
PRG:00B15: 27       .byte $27
PRG:00B16: 27       .byte $27
PRG:00B17: 27       .byte $27
PRG:00B18: 24 24    BIT $24
PRG:00B1A: 24 35    BIT $35
PRG:00B1C: 36 25    ROL $25
PRG:00B1E: 37       .byte $37
PRG:00B1F: 25 24    AND $24
PRG:00B21: 38       SEC
PRG:00B22: 24 24    BIT $24
PRG:00B24: 24 30    BIT $30
PRG:00B26: 30 26    BMI $26
PRG:00B28: 26 26    ROL $26
PRG:00B2A: 34 26    NOP $26
PRG:00B2C: 24 31    BIT $31
PRG:00B2E: 24 32    BIT $32
PRG:00B30: 33       .byte $33
PRG:00B31: 26 24    ROL $24
PRG:00B33: 33       .byte $33
PRG:00B34: 34 26    NOP $26
PRG:00B36: 26 26    ROL $26
PRG:00B38: 26 26    ROL $26
PRG:00B3A: 26 26    ROL $26
PRG:00B3C: 24 C0    BIT $C0
PRG:00B3E: 24 C0    BIT $C0
PRG:00B40: 24 7F    BIT $7F
PRG:00B42: 7F       .byte $7F
PRG:00B43: 24 B8    BIT $B8
PRG:00B45: BA       TSX
PRG:00B46: B9 BB B8 LDA $B8BB
PRG:00B49: BC B9 BD LDY $BDB9
PRG:00B4C: BA       TSX
PRG:00B4D: BC BB BD LDY $BDBB
PRG:00B50: 60       RTS
PRG:00B51: 64 61    NOP $61
PRG:00B53: 65 62    ADC $62
PRG:00B55: 66 63    ROR $63
PRG:00B57: 67       .byte $67
PRG:00B58: 60       RTS
PRG:00B59: 64 61    NOP $61
PRG:00B5B: 65 62    ADC $62
PRG:00B5D: 66 63    ROR $63
PRG:00B5F: 67       .byte $67
PRG:00B60: 68       PLA
PRG:00B61: 68       PLA
PRG:00B62: 69 69    ADC $69
PRG:00B64: 26 26    ROL $26
PRG:00B66: 6A       ROR
PRG:00B67: 6A       ROR
PRG:00B68: 4B       .byte $4B
PRG:00B69: 4C 4D 4E JMP $4E4D
PRG:00B6C: 4D 4F 4D EOR $4D4F
PRG:00B6F: 4F       .byte $4F
PRG:00B70: 4D 4E 50 EOR $504E
PRG:00B73: 51 6B    EOR $6B
PRG:00B75: 70 2C    BVS $2C
PRG:00B77: 2D 6C 71 AND $716C
PRG:00B7A: 6D 72 6E ADC $6E72
PRG:00B7D: 73       .byte $73
PRG:00B7E: 6F       .byte $6F
PRG:00B7F: 74 86    NOP $86
PRG:00B81: 8A       TXA
PRG:00B82: 87       .byte $87
PRG:00B83: 8B       .byte $8B
PRG:00B84: 88       DEY
PRG:00B85: 8C 88 8C STY $8C88
PRG:00B88: 89       .byte $89
PRG:00B89: 8D 69 69 STA $6969
PRG:00B8C: 8E 91 8F STX $8F91
PRG:00B8F: 92       .byte $92
PRG:00B90: 26 93    ROL $93
PRG:00B92: 26 93    ROL $93
PRG:00B94: 90 94    BCC $94
PRG:00B96: 69 69    ADC $69
PRG:00B98: A4 E9    LDY $E9
PRG:00B9A: EA       NOP
PRG:00B9B: EB       .byte $EB
PRG:00B9C: 24 24    BIT $24
PRG:00B9E: 24 24    BIT $24
PRG:00BA0: 24 2F    BIT $2F
PRG:00BA2: 24 3D    BIT $3D
PRG:00BA4: A2 A2    LDX $A2
PRG:00BA6: A3       .byte $A3
PRG:00BA7: A3       .byte $A3
PRG:00BA8: 24 24    BIT $24
PRG:00BAA: 24 24    BIT $24
PRG:00BAC: A2 A2    LDX $A2
PRG:00BAE: A3       .byte $A3
PRG:00BAF: A3       .byte $A3
PRG:00BB0: 99 24 99 STA $9924
PRG:00BB3: 24 24    BIT $24
PRG:00BB5: A2 3E    LDX $3E
PRG:00BB7: 3F       .byte $3F
PRG:00BB8: 5B       .byte $5B
PRG:00BB9: 5C 24 A3 NOP $A324
PRG:00BBC: 24 24    BIT $24
PRG:00BBE: 24 24    BIT $24
PRG:00BC0: 9D 47 9E STA $9E47
PRG:00BC3: 47       .byte $47
PRG:00BC4: 47       .byte $47
PRG:00BC5: 47       .byte $47
PRG:00BC6: 27       .byte $27
PRG:00BC7: 27       .byte $27
PRG:00BC8: 47       .byte $47
PRG:00BC9: 47       .byte $47
PRG:00BCA: 47       .byte $47
PRG:00BCB: 47       .byte $47
PRG:00BCC: 27       .byte $27
PRG:00BCD: 27       .byte $27
PRG:00BCE: 47       .byte $47
PRG:00BCF: 47       .byte $47
PRG:00BD0: A9 47    LDA $47
PRG:00BD2: AA       TAX
PRG:00BD3: 47       .byte $47
PRG:00BD4: 9B       .byte $9B
PRG:00BD5: 27       .byte $27
PRG:00BD6: 9C       .byte $9C
PRG:00BD7: 27       .byte $27
PRG:00BD8: 27       .byte $27
PRG:00BD9: 27       .byte $27
PRG:00BDA: 27       .byte $27
PRG:00BDB: 27       .byte $27
PRG:00BDC: 52       .byte $52
PRG:00BDD: 52       .byte $52
PRG:00BDE: 52       .byte $52
PRG:00BDF: 52       .byte $52
PRG:00BE0: 80 A0    NOP $A0
PRG:00BE2: 81 A1    STA $A1
PRG:00BE4: BE BE BF LDX $BFBE
PRG:00BE7: BF       .byte $BF
PRG:00BE8: 75 BA    ADC $BA
PRG:00BEA: 76 BB    ROR $BB
PRG:00BEC: BA       TSX
PRG:00BED: BA       TSX
PRG:00BEE: BB       .byte $BB
PRG:00BEF: BB       .byte $BB
PRG:00BF0: 45 47    EOR $47
PRG:00BF2: 45 47    EOR $47
PRG:00BF4: 47       .byte $47
PRG:00BF5: 47       .byte $47
PRG:00BF6: 47       .byte $47
PRG:00BF7: 47       .byte $47
PRG:00BF8: 45 47    EOR $47
PRG:00BFA: 45 47    EOR $47
PRG:00BFC: B4 B6    LDY $B6
PRG:00BFE: B5 B7    LDA $B7
PRG:00C00: 45 47    EOR $47
PRG:00C02: 45 47    EOR $47
PRG:00C04: 45 47    EOR $47
PRG:00C06: 45 47    EOR $47
PRG:00C08: 45 47    EOR $47
PRG:00C0A: 45 47    EOR $47
PRG:00C0C: 45 47    EOR $47
PRG:00C0E: 45 47    EOR $47
PRG:00C10: 45 47    EOR $47
PRG:00C12: 45 47    EOR $47
PRG:00C14: 47       .byte $47
PRG:00C15: 47       .byte $47
PRG:00C16: 47       .byte $47
PRG:00C17: 47       .byte $47
PRG:00C18: 47       .byte $47
PRG:00C19: 47       .byte $47
PRG:00C1A: 47       .byte $47
PRG:00C1B: 47       .byte $47
PRG:00C1C: 47       .byte $47
PRG:00C1D: 47       .byte $47
PRG:00C1E: 47       .byte $47
PRG:00C1F: 47       .byte $47
PRG:00C20: 47       .byte $47
PRG:00C21: 47       .byte $47
PRG:00C22: 47       .byte $47
PRG:00C23: 47       .byte $47
PRG:00C24: 47       .byte $47
PRG:00C25: 47       .byte $47
PRG:00C26: 47       .byte $47
PRG:00C27: 47       .byte $47
PRG:00C28: 24 24    BIT $24
PRG:00C2A: 24 24    BIT $24
PRG:00C2C: 24 24    BIT $24
PRG:00C2E: 24 24    BIT $24
PRG:00C30: AB       .byte $AB
PRG:00C31: AC AD AE LDY $AEAD
PRG:00C34: 5D 5E 5D EOR $5D5E
PRG:00C37: 5E C1 24 LSR $24C1
PRG:00C3A: C1 24    CMP $24
PRG:00C3C: C6 C8    DEC $C8
PRG:00C3E: C7       .byte $C7
PRG:00C3F: C9 CA    CMP $CA
PRG:00C41: CC CB CD CPY $CDCB
PRG:00C44: 2A       ROL
PRG:00C45: 2A       ROL
PRG:00C46: 40       RTI
PRG:00C47: 40       RTI
PRG:00C48: 24 24    BIT $24
PRG:00C4A: 24 24    BIT $24
PRG:00C4C: 24 47    BIT $47
PRG:00C4E: 24 47    BIT $47
PRG:00C50: 82       .byte $82
PRG:00C51: 83       .byte $83
PRG:00C52: 84 85    STY $85
PRG:00C54: 24 47    BIT $47
PRG:00C56: 24 47    BIT $47
PRG:00C58: 86 8A    STX $8A
PRG:00C5A: 87       .byte $87
PRG:00C5B: 8B       .byte $8B
PRG:00C5C: 8E 91 8F STX $8F91
PRG:00C5F: 92       .byte $92
PRG:00C60: 24 2F    BIT $2F
PRG:00C62: 24 3D    BIT $3D
PRG:00C64: 24 24    BIT $24
PRG:00C66: 24 35    BIT $35
PRG:00C68: 36 25    ROL $25
PRG:00C6A: 37       .byte $37
PRG:00C6B: 25 24    AND $24
PRG:00C6D: 38       SEC
PRG:00C6E: 24 24    BIT $24
PRG:00C70: 24 24    BIT $24
PRG:00C72: 39 24 3A AND $3A24
PRG:00C75: 24 3B    BIT $3B
PRG:00C77: 24 3C    BIT $3C
PRG:00C79: 24 24    BIT $24
PRG:00C7B: 24 41    BIT $41
PRG:00C7D: 26 41    ROL $41
PRG:00C7F: 26 26    ROL $26
PRG:00C81: 26 26    ROL $26
PRG:00C83: 26 B0    ROL $B0
PRG:00C85: B1 B2    LDA $B2
PRG:00C87: B3       .byte $B3
PRG:00C88: 77       .byte $77
PRG:00C89: 79 77 79 ADC $7977
PRG:00C8C: 53       .byte $53
PRG:00C8D: 55 54    EOR $54
PRG:00C8F: 56 53    LSR $53
PRG:00C91: 55 54    EOR $54
PRG:00C93: 56 A5    LSR $A5
PRG:00C95: A7       .byte $A7
PRG:00C96: A6 A8    LDX $A8
PRG:00C98: C2       .byte $C2
PRG:00C99: C4 C3    CPY $C3
PRG:00C9B: C5 57    CMP $57
PRG:00C9D: 59 58 5A EOR $5A58
PRG:00CA0: 7B       .byte $7B
PRG:00CA1: 7D 7C 7E ADC $7E7C
PRG:00CA4: 3F       .byte $3F
PRG:00CA5: 00 20    BRK $20
PRG:00CA7: 0F       .byte $0F
PRG:00CA8: 15 12    ORA $12
PRG:00CAA: 25 0F    AND $0F
PRG:00CAC: 3A       NOP
PRG:00CAD: 1A       NOP
PRG:00CAE: 0F       .byte $0F
PRG:00CAF: 0F       .byte $0F
PRG:00CB0: 30 12    BMI $12
PRG:00CB2: 0F       .byte $0F
PRG:00CB3: 0F       .byte $0F
PRG:00CB4: 27       .byte $27
PRG:00CB5: 12       .byte $12
PRG:00CB6: 0F       .byte $0F
PRG:00CB7: 22       .byte $22
PRG:00CB8: 16 27    ASL $27
PRG:00CBA: 18       CLC
PRG:00CBB: 0F       .byte $0F
PRG:00CBC: 10 30    BPL $30
PRG:00CBE: 27       .byte $27
PRG:00CBF: 0F       .byte $0F
PRG:00CC0: 16 30    ASL $30
PRG:00CC2: 27       .byte $27
PRG:00CC3: 0F       .byte $0F
PRG:00CC4: 0F       .byte $0F
PRG:00CC5: 30 10    BMI $10
PRG:00CC7: 00 3F    BRK $3F
PRG:00CC9: 00 20    BRK $20
PRG:00CCB: 0F       .byte $0F
PRG:00CCC: 29 1A    AND $1A
PRG:00CCE: 0F       .byte $0F
PRG:00CCF: 0F       .byte $0F
PRG:00CD0: 36 17    ROL $17
PRG:00CD2: 0F       .byte $0F
PRG:00CD3: 0F       .byte $0F
PRG:00CD4: 30 21    BMI $21
PRG:00CD6: 0F       .byte $0F
PRG:00CD7: 0F       .byte $0F
PRG:00CD8: 27       .byte $27
PRG:00CD9: 17       .byte $17
PRG:00CDA: 0F       .byte $0F
PRG:00CDB: 0F       .byte $0F
PRG:00CDC: 16 27    ASL $27
PRG:00CDE: 18       CLC
PRG:00CDF: 0F       .byte $0F
PRG:00CE0: 1A       NOP
PRG:00CE1: 30 27    BMI $27
PRG:00CE3: 0F       .byte $0F
PRG:00CE4: 16 30    ASL $30
PRG:00CE6: 27       .byte $27
PRG:00CE7: 0F       .byte $0F
PRG:00CE8: 0F       .byte $0F
PRG:00CE9: 36 17    ROL $17
PRG:00CEB: 00 3F    BRK $3F
PRG:00CED: 00 20    BRK $20
PRG:00CEF: 0F       .byte $0F
PRG:00CF0: 29 1A    AND $1A
PRG:00CF2: 09 0F    ORA $0F
PRG:00CF4: 3C 1C 0F NOP $0F1C
PRG:00CF7: 0F       .byte $0F
PRG:00CF8: 30 21    BMI $21
PRG:00CFA: 1C 0F 27 NOP $270F
PRG:00CFD: 17       .byte $17
PRG:00CFE: 1C 0F 16 NOP $160F
PRG:00D01: 27       .byte $27
PRG:00D02: 18       CLC
PRG:00D03: 0F       .byte $0F
PRG:00D04: 1C 36 17 NOP $1736
PRG:00D07: 0F       .byte $0F
PRG:00D08: 16 30    ASL $30
PRG:00D0A: 27       .byte $27
PRG:00D0B: 0F       .byte $0F
PRG:00D0C: 0C 3C 1C NOP $1C3C
PRG:00D0F: 00 3F    BRK $3F
PRG:00D11: 00 20    BRK $20
PRG:00D13: 0F       .byte $0F
PRG:00D14: 30 10    BMI $10
PRG:00D16: 00 0F    BRK $0F
PRG:00D18: 30 10    BMI $10
PRG:00D1A: 00 0F    BRK $0F
PRG:00D1C: 30 16    BMI $16
PRG:00D1E: 00 0F    BRK $0F
PRG:00D20: 27       .byte $27
PRG:00D21: 17       .byte $17
PRG:00D22: 00 0F    BRK $0F
PRG:00D24: 16 27    ASL $27
PRG:00D26: 18       CLC
PRG:00D27: 0F       .byte $0F
PRG:00D28: 1C 36 17 NOP $1736
PRG:00D2B: 0F       .byte $0F
PRG:00D2C: 16 30    ASL $30
PRG:00D2E: 27       .byte $27
PRG:00D2F: 0F       .byte $0F
PRG:00D30: 00 30    BRK $30
PRG:00D32: 10 00    BPL $00
PRG:00D34: 3F       .byte $3F
PRG:00D35: 00 04    BRK $04
PRG:00D37: 22       .byte $22
PRG:00D38: 30 00    BMI $00
PRG:00D3A: 10 00    BPL $00
PRG:00D3C: 3F       .byte $3F
PRG:00D3D: 00 04    BRK $04
PRG:00D3F: 0F       .byte $0F
PRG:00D40: 30 00    BMI $00
PRG:00D42: 10 00    BPL $00
PRG:00D44: 3F       .byte $3F
PRG:00D45: 00 04    BRK $04
PRG:00D47: 22       .byte $22
PRG:00D48: 27       .byte $27
PRG:00D49: 16 0F    ASL $0F
PRG:00D4B: 00 3F    BRK $3F
PRG:00D4D: 14 04    NOP $04
PRG:00D4F: 0F       .byte $0F
PRG:00D50: 1A       NOP
PRG:00D51: 30 27    BMI $27
PRG:00D53: 00 25    BRK $25
PRG:00D55: 48       PHA
PRG:00D56: 10 1D    BPL $1D
PRG:00D58: 11 0A    ORA $0A
PRG:00D5A: 17       .byte $17
PRG:00D5B: 14 24    NOP $24
PRG:00D5D: 22       .byte $22
PRG:00D5E: 18       CLC
PRG:00D5F: 1E 24 16 ASL $1624
PRG:00D62: 0A       ASL
PRG:00D63: 1B       .byte $1B
PRG:00D64: 12       .byte $12
PRG:00D65: 18       CLC
PRG:00D66: 2B       .byte $2B
PRG:00D67: 00 25    BRK $25
PRG:00D69: 48       PHA
PRG:00D6A: 10 1D    BPL $1D
PRG:00D6C: 11 0A    ORA $0A
PRG:00D6E: 17       .byte $17
PRG:00D6F: 14 24    NOP $24
PRG:00D71: 22       .byte $22
PRG:00D72: 18       CLC
PRG:00D73: 1E 24 15 ASL $1524
PRG:00D76: 1E 12 10 ASL $1012
PRG:00D79: 12       .byte $12
PRG:00D7A: 2B       .byte $2B
PRG:00D7B: 00 25    BRK $25
PRG:00D7D: C5 16    CMP $16
PRG:00D7F: 0B       .byte $0B
PRG:00D80: 1E 1D 24 ASL $241D
PRG:00D83: 18       CLC
PRG:00D84: 1E 1B 24 ASL $241B
PRG:00D87: 19 1B 12 ORA $121B
PRG:00D8A: 17       .byte $17
PRG:00D8B: 0C 0E 1C NOP $1C0E
PRG:00D8E: 1C 24 12 NOP $1224
PRG:00D91: 1C 24 12 NOP $1224
PRG:00D94: 17       .byte $17
PRG:00D95: 26 05    ROL $05
PRG:00D97: 0F       .byte $0F
PRG:00D98: 0A       ASL
PRG:00D99: 17       .byte $17
PRG:00D9A: 18       CLC
PRG:00D9B: 1D 11 0E ORA $0E11
PRG:00D9E: 1B       .byte $1B
PRG:00D9F: 24 0C    BIT $0C
PRG:00DA1: 0A       ASL
PRG:00DA2: 1C 1D 15 NOP $151D
PRG:00DA5: 0E 2B 00 ASL $002B
PRG:00DA8: 25 A7    AND $A7
PRG:00DAA: 13       .byte $13
PRG:00DAB: 22       .byte $22
PRG:00DAC: 18       CLC
PRG:00DAD: 1E 1B 24 ASL $241B
PRG:00DB0: 1A       NOP
PRG:00DB1: 1E 0E 1C ASL $1C0E
PRG:00DB4: 1D 24 12 ORA $1224
PRG:00DB7: 1C 24 18 NOP $1824
PRG:00DBA: 1F       .byte $1F
PRG:00DBB: 0E 1B AF ASL $AF1B
PRG:00DBE: 00 25    BRK $25
PRG:00DC0: E3       .byte $E3
PRG:00DC1: 1B       .byte $1B
PRG:00DC2: 20 0E 24 JSR $240E
PRG:00DC5: 19 1B 0E ORA $0E1B
PRG:00DC8: 1C 0E 17 NOP $170E
PRG:00DCB: 1D 24 22 ORA $2224
PRG:00DCE: 18       CLC
PRG:00DCF: 1E 24 0A ASL $0A24
PRG:00DD2: 24 17    BIT $17
PRG:00DD4: 0E 20 24 ASL $2420
PRG:00DD7: 1A       NOP
PRG:00DD8: 1E 0E 1C ASL $1C0E
PRG:00DDB: 1D AF 00 ORA $00AF
PRG:00DDE: 26 4A    ROL $4A
PRG:00DE0: 0D 19 1E ORA $1E19
PRG:00DE3: 1C 11 24 NOP $2411
PRG:00DE6: 0B       .byte $0B
PRG:00DE7: 1E 1D 1D ASL $1D1D
PRG:00DEA: 18       CLC
PRG:00DEB: 17       .byte $17
PRG:00DEC: 24 0B    BIT $0B
PRG:00DEE: 00 26    BRK $26
PRG:00DF0: 88       DEY
PRG:00DF1: 11 1D    ORA $1D
PRG:00DF3: 18       CLC
PRG:00DF4: 24 1C    BIT $1C
PRG:00DF6: 0E 15 0E ASL $0E15
PRG:00DF9: 0C 1D 24 NOP $241D
PRG:00DFC: 0A       ASL
PRG:00DFD: 24 20    BIT $20
PRG:00DFF: 18       CLC
PRG:00E00: 1B       .byte $1B
PRG:00E01: 15 0D    ORA $0D
PRG:00E03: 00 0A    BRK $0A
PRG:00E05: A8       TAY
PRG:00E06: 68       PLA
PRG:00E07: 85 04    STA $04
PRG:00E09: 68       PLA
PRG:00E0A: 85 05    STA $05
PRG:00E0C: C8       INY
PRG:00E0D: B1 04    LDA $04
PRG:00E0F: 85 06    STA $06
PRG:00E11: C8       INY
PRG:00E12: B1 04    LDA $04
PRG:00E14: 85 07    STA $07
PRG:00E16: 6C 06 00 JMP $0006
PRG:00E19: AD 02 20 LDA $2002
PRG:00E1C: AD 78 07 LDA $0778
PRG:00E1F: 09 10    ORA $10
PRG:00E21: 29 F0    AND $F0
PRG:00E23: 20 ED 8E JSR $8EED
PRG:00E26: A9 24    LDA $24
PRG:00E28: 20 2D 8E JSR $8E2D
PRG:00E2B: A9 20    LDA $20
PRG:00E2D: 8D 06 20 STA $2006
PRG:00E30: A9 00    LDA $00
PRG:00E32: 8D 06 20 STA $2006
PRG:00E35: A2 04    LDX $04
PRG:00E37: A0 C0    LDY $C0
PRG:00E39: A9 24    LDA $24
PRG:00E3B: 8D 07 20 STA $2007
PRG:00E3E: 88       DEY
PRG:00E3F: D0 FA    BNE $FA
PRG:00E41: CA       DEX
PRG:00E42: D0 F7    BNE $F7
PRG:00E44: A0 40    LDY $40
PRG:00E46: 8A       TXA
PRG:00E47: 8D 00 03 STA $0300
PRG:00E4A: 8D 01 03 STA $0301
PRG:00E4D: 8D 07 20 STA $2007
PRG:00E50: 88       DEY
PRG:00E51: D0 FA    BNE $FA
PRG:00E53: 8D 3F 07 STA $073F
PRG:00E56: 8D 40 07 STA $0740
PRG:00E59: 4C E6 8E JMP $8EE6
PRG:00E5C: A9 01    LDA $01
PRG:00E5E: 8D 16 40 STA $4016
PRG:00E61: 4A       LSR
PRG:00E62: AA       TAX
PRG:00E63: 8D 16 40 STA $4016
PRG:00E66: 20 6A 8E JSR $8E6A
PRG:00E69: E8       INX
PRG:00E6A: A0 08    LDY $08
PRG:00E6C: 48       PHA
PRG:00E6D: BD 16 40 LDA $4016
PRG:00E70: 85 00    STA $00
PRG:00E72: 4A       LSR
PRG:00E73: 05 00    ORA $00
PRG:00E75: 4A       LSR
PRG:00E76: 68       PLA
PRG:00E77: 2A       ROL
PRG:00E78: 88       DEY
PRG:00E79: D0 F1    BNE $F1
PRG:00E7B: 9D FC 06 STA $06FC
PRG:00E7E: 48       PHA
PRG:00E7F: 29 30    AND $30
PRG:00E81: 3D 4A 07 AND $074A
PRG:00E84: F0 07    BEQ $07
PRG:00E86: 68       PLA
PRG:00E87: 29 CF    AND $CF
PRG:00E89: 9D FC 06 STA $06FC
PRG:00E8C: 60       RTS
PRG:00E8D: 68       PLA
PRG:00E8E: 9D 4A 07 STA $074A
PRG:00E91: 60       RTS
PRG:00E92: 8D 06 20 STA $2006
PRG:00E95: C8       INY
PRG:00E96: B1 00    LDA $00
PRG:00E98: 8D 06 20 STA $2006
PRG:00E9B: C8       INY
PRG:00E9C: B1 00    LDA $00
PRG:00E9E: 0A       ASL
PRG:00E9F: 48       PHA
PRG:00EA0: AD 78 07 LDA $0778
PRG:00EA3: 09 04    ORA $04
PRG:00EA5: B0 02    BCS $02
PRG:00EA7: 29 FB    AND $FB
PRG:00EA9: 20 ED 8E JSR $8EED
PRG:00EAC: 68       PLA
PRG:00EAD: 0A       ASL
PRG:00EAE: 90 03    BCC $03
PRG:00EB0: 09 02    ORA $02
PRG:00EB2: C8       INY
PRG:00EB3: 4A       LSR
PRG:00EB4: 4A       LSR
PRG:00EB5: AA       TAX
PRG:00EB6: B0 01    BCS $01
PRG:00EB8: C8       INY
PRG:00EB9: B1 00    LDA $00
PRG:00EBB: 8D 07 20 STA $2007
PRG:00EBE: CA       DEX
PRG:00EBF: D0 F5    BNE $F5
PRG:00EC1: 38       SEC
PRG:00EC2: 98       TYA
PRG:00EC3: 65 00    ADC $00
PRG:00EC5: 85 00    STA $00
PRG:00EC7: A9 00    LDA $00
PRG:00EC9: 65 01    ADC $01
PRG:00ECB: 85 01    STA $01
PRG:00ECD: A9 3F    LDA $3F
PRG:00ECF: 8D 06 20 STA $2006
PRG:00ED2: A9 00    LDA $00
PRG:00ED4: 8D 06 20 STA $2006
PRG:00ED7: 8D 06 20 STA $2006
PRG:00EDA: 8D 06 20 STA $2006
PRG:00EDD: AE 02 20 LDX $2002
PRG:00EE0: A0 00    LDY $00
PRG:00EE2: B1 00    LDA $00
PRG:00EE4: D0 AC    BNE $AC
PRG:00EE6: 8D 05 20 STA $2005
PRG:00EE9: 8D 05 20 STA $2005
PRG:00EEC: 60       RTS
PRG:00EED: 8D 00 20 STA $2000
PRG:00EF0: 8D 78 07 STA $0778
PRG:00EF3: 60       RTS
PRG:00EF4: F0 06    BEQ $06
PRG:00EF6: 62       .byte $62
PRG:00EF7: 06 62    ASL $62
PRG:00EF9: 06 6D    ASL $6D
PRG:00EFB: 02       .byte $02
PRG:00EFC: 6D 02 7A ADC $7A02
PRG:00EFF: 03       .byte $03
PRG:00F00: 06 0C    ASL $0C
PRG:00F02: 12       .byte $12
PRG:00F03: 18       CLC
PRG:00F04: 1E 24 85 ASL $8524
PRG:00F07: 00 20    BRK $20
PRG:00F09: 11 8F    ORA $8F
PRG:00F0B: A5 00    LDA $00
PRG:00F0D: 4A       LSR
PRG:00F0E: 4A       LSR
PRG:00F0F: 4A       LSR
PRG:00F10: 4A       LSR
PRG:00F11: 18       CLC
PRG:00F12: 69 01    ADC $01
PRG:00F14: 29 0F    AND $0F
PRG:00F16: C9 06    CMP $06
PRG:00F18: B0 44    BCS $44
PRG:00F1A: 48       PHA
PRG:00F1B: 0A       ASL
PRG:00F1C: A8       TAY
PRG:00F1D: AE 00 03 LDX $0300
PRG:00F20: A9 20    LDA $20
PRG:00F22: C0 00    CPY $00
PRG:00F24: D0 02    BNE $02
PRG:00F26: A9 22    LDA $22
PRG:00F28: 9D 01 03 STA $0301
PRG:00F2B: B9 F4 8E LDA $8EF4
PRG:00F2E: 9D 02 03 STA $0302
PRG:00F31: B9 F5 8E LDA $8EF5
PRG:00F34: 9D 03 03 STA $0303
PRG:00F37: 85 03    STA $03
PRG:00F39: 86 02    STX $02
PRG:00F3B: 68       PLA
PRG:00F3C: AA       TAX
PRG:00F3D: BD 00 8F LDA $8F00
PRG:00F40: 38       SEC
PRG:00F41: F9 F5 8E SBC $8EF5
PRG:00F44: A8       TAY
PRG:00F45: A6 02    LDX $02
PRG:00F47: B9 D7 07 LDA $07D7
PRG:00F4A: 9D 04 03 STA $0304
PRG:00F4D: E8       INX
PRG:00F4E: C8       INY
PRG:00F4F: C6 03    DEC $03
PRG:00F51: D0 F4    BNE $F4
PRG:00F53: A9 00    LDA $00
PRG:00F55: 9D 04 03 STA $0304
PRG:00F58: E8       INX
PRG:00F59: E8       INX
PRG:00F5A: E8       INX
PRG:00F5B: 8E 00 03 STX $0300
PRG:00F5E: 60       RTS
PRG:00F5F: AD 70 07 LDA $0770
PRG:00F62: C9 00    CMP $00
PRG:00F64: F0 16    BEQ $16
PRG:00F66: A2 05    LDX $05
PRG:00F68: BD 34 01 LDA $0134
PRG:00F6B: 18       CLC
PRG:00F6C: 79 D7 07 ADC $07D7
PRG:00F6F: 30 16    BMI $16
PRG:00F71: C9 0A    CMP $0A
PRG:00F73: B0 19    BCS $19
PRG:00F75: 99 D7 07 STA $07D7
PRG:00F78: 88       DEY
PRG:00F79: CA       DEX
PRG:00F7A: 10 EC    BPL $EC
PRG:00F7C: A9 00    LDA $00
PRG:00F7E: A2 06    LDX $06
PRG:00F80: 9D 33 01 STA $0133
PRG:00F83: CA       DEX
PRG:00F84: 10 FA    BPL $FA
PRG:00F86: 60       RTS
PRG:00F87: DE 33 01 DEC $0133
PRG:00F8A: A9 09    LDA $09
PRG:00F8C: D0 E7    BNE $E7
PRG:00F8E: 38       SEC
PRG:00F8F: E9 0A    SBC $0A
PRG:00F91: FE 33 01 INC $0133
PRG:00F94: 4C 75 8F JMP $8F75
PRG:00F97: A2 05    LDX $05
PRG:00F99: 20 9E 8F JSR $8F9E
PRG:00F9C: A2 0B    LDX $0B
PRG:00F9E: A0 05    LDY $05
PRG:00FA0: 38       SEC
PRG:00FA1: BD DD 07 LDA $07DD
PRG:00FA4: F9 D7 07 SBC $07D7
PRG:00FA7: CA       DEX
PRG:00FA8: 88       DEY
PRG:00FA9: 10 F6    BPL $F6
PRG:00FAB: 90 0E    BCC $0E
PRG:00FAD: E8       INX
PRG:00FAE: C8       INY
PRG:00FAF: BD DD 07 LDA $07DD
PRG:00FB2: 99 D7 07 STA $07D7
PRG:00FB5: E8       INX
PRG:00FB6: C8       INY
PRG:00FB7: C0 06    CPY $06
PRG:00FB9: 90 F4    BCC $F4
PRG:00FBB: 60       RTS
PRG:00FBC: 04 30    NOP $30
PRG:00FBE: 48       PHA
PRG:00FBF: 60       RTS
PRG:00FC0: 78       SEI
PRG:00FC1: 90 A8    BCC $A8
PRG:00FC3: C0 D8    CPY $D8
PRG:00FC5: E8       INX
PRG:00FC6: 24 F8    BIT $F8
PRG:00FC8: FC 28 2C NOP $2C28
PRG:00FCB: 18       CLC
PRG:00FCC: FF       .byte $FF
PRG:00FCD: 23       .byte $23
PRG:00FCE: 58       CLI
PRG:00FCF: A0 6F    LDY $6F
PRG:00FD1: 20 CC 90 JSR $90CC
PRG:00FD4: A0 1F    LDY $1F
PRG:00FD6: 99 B0 07 STA $07B0
PRG:00FD9: 88       DEY
PRG:00FDA: 10 FA    BPL $FA
PRG:00FDC: A9 18    LDA $18
PRG:00FDE: 8D A2 07 STA $07A2
PRG:00FE1: 20 03 9C JSR $9C03
PRG:00FE4: A0 4B    LDY $4B
PRG:00FE6: 20 CC 90 JSR $90CC
PRG:00FE9: A2 21    LDX $21
PRG:00FEB: A9 00    LDA $00
PRG:00FED: 9D 80 07 STA $0780
PRG:00FF0: CA       DEX
PRG:00FF1: 10 FA    BPL $FA
PRG:00FF3: AD 5B 07 LDA $075B
PRG:00FF6: AC 52 07 LDY $0752
PRG:00FF9: F0 03    BEQ $03
PRG:00FFB: AD 51 07 LDA $0751
PRG:00FFE: 8D 1A 07 STA $071A
PRG:01001: 8D 25 07 STA $0725
PRG:01004: 8D 28 07 STA $0728
PRG:01007: 20 38 B0 JSR $B038
PRG:0100A: A0 20    LDY $20
PRG:0100C: 29 01    AND $01
PRG:0100E: F0 02    BEQ $02
PRG:01010: A0 24    LDY $24
PRG:01012: 8C 20 07 STY $0720
PRG:01015: A0 80    LDY $80
PRG:01017: 8C 21 07 STY $0721
PRG:0101A: 0A       ASL
PRG:0101B: 0A       ASL
PRG:0101C: 0A       ASL
PRG:0101D: 0A       ASL
PRG:0101E: 8D A0 06 STA $06A0
PRG:01021: CE 30 07 DEC $0730
PRG:01024: CE 31 07 DEC $0731
PRG:01027: CE 32 07 DEC $0732
PRG:0102A: A9 0B    LDA $0B
PRG:0102C: 8D 1E 07 STA $071E
PRG:0102F: 20 22 9C JSR $9C22
PRG:01032: AD 6A 07 LDA $076A
PRG:01035: D0 10    BNE $10
PRG:01037: AD 5F 07 LDA $075F
PRG:0103A: C9 04    CMP $04
PRG:0103C: 90 0C    BCC $0C
PRG:0103E: D0 07    BNE $07
PRG:01040: AD 5C 07 LDA $075C
PRG:01043: C9 02    CMP $02
PRG:01045: 90 03    BCC $03
PRG:01047: EE CC 06 INC $06CC
PRG:0104A: AD 5B 07 LDA $075B
PRG:0104D: F0 05    BEQ $05
PRG:0104F: A9 02    LDA $02
PRG:01051: 8D 10 07 STA $0710
PRG:01054: A9 80    LDA $80
PRG:01056: 85 FB    STA $FB
PRG:01058: A9 01    LDA $01
PRG:0105A: 8D 74 07 STA $0774
PRG:0105D: EE 72 07 INC $0772
PRG:01060: 60       RTS
PRG:01061: A9 01    LDA $01
PRG:01063: 8D 57 07 STA $0757
PRG:01066: 8D 54 07 STA $0754
PRG:01069: A9 02    LDA $02
PRG:0106B: 8D 5A 07 STA $075A
PRG:0106E: 8D 61 07 STA $0761
PRG:01071: A9 00    LDA $00
PRG:01073: 8D 74 07 STA $0774
PRG:01076: A8       TAY
PRG:01077: 99 00 03 STA $0300
PRG:0107A: C8       INY
PRG:0107B: D0 FA    BNE $FA
PRG:0107D: 8D 59 07 STA $0759
PRG:01080: 8D 69 07 STA $0769
PRG:01083: 8D 28 07 STA $0728
PRG:01086: A9 FF    LDA $FF
PRG:01088: 8D A0 03 STA $03A0
PRG:0108B: AD 1A 07 LDA $071A
PRG:0108E: 4E 78 07 LSR $0778
PRG:01091: 29 01    AND $01
PRG:01093: 6A       ROR
PRG:01094: 2E 78 07 ROL $0778
PRG:01097: 20 ED 90 JSR $90ED
PRG:0109A: A9 38    LDA $38
PRG:0109C: 8D E3 06 STA $06E3
PRG:0109F: A9 48    LDA $48
PRG:010A1: 8D E2 06 STA $06E2
PRG:010A4: A9 58    LDA $58
PRG:010A6: 8D E1 06 STA $06E1
PRG:010A9: A2 0E    LDX $0E
PRG:010AB: BD BC 8F LDA $8FBC
PRG:010AE: 9D E4 06 STA $06E4
PRG:010B1: CA       DEX
PRG:010B2: 10 F7    BPL $F7
PRG:010B4: A0 03    LDY $03
PRG:010B6: B9 CB 8F LDA $8FCB
PRG:010B9: 99 00 02 STA $0200
PRG:010BC: 88       DEY
PRG:010BD: 10 F7    BPL $F7
PRG:010BF: 20 AF 92 JSR $92AF
PRG:010C2: 20 AA 92 JSR $92AA
PRG:010C5: EE 22 07 INC $0722
PRG:010C8: EE 72 07 INC $0772
PRG:010CB: 60       RTS
PRG:010CC: A2 07    LDX $07
PRG:010CE: A9 00    LDA $00
PRG:010D0: 85 06    STA $06
PRG:010D2: 86 07    STX $07
PRG:010D4: E0 01    CPX $01
PRG:010D6: D0 04    BNE $04
PRG:010D8: C0 60    CPY $60
PRG:010DA: B0 02    BCS $02
PRG:010DC: 91 06    STA $06
PRG:010DE: 88       DEY
PRG:010DF: C0 FF    CPY $FF
PRG:010E1: D0 F1    BNE $F1
PRG:010E3: CA       DEX
PRG:010E4: 10 EC    BPL $EC
PRG:010E6: 60       RTS
PRG:010E7: 02       .byte $02
PRG:010E8: 01 04    ORA $04
PRG:010EA: 08       PHP
PRG:010EB: 10 20    BPL $20
PRG:010ED: AD 70 07 LDA $0770
PRG:010F0: F0 23    BEQ $23
PRG:010F2: AD 52 07 LDA $0752
PRG:010F5: C9 02    CMP $02
PRG:010F7: F0 0D    BEQ $0D
PRG:010F9: A0 05    LDY $05
PRG:010FB: AD 10 07 LDA $0710
PRG:010FE: C9 06    CMP $06
PRG:01100: F0 0E    BEQ $0E
PRG:01102: C9 07    CMP $07
PRG:01104: F0 0A    BEQ $0A
PRG:01106: AC 4E 07 LDY $074E
PRG:01109: AD 43 07 LDA $0743
PRG:0110C: F0 02    BEQ $02
PRG:0110E: A0 04    LDY $04
PRG:01110: B9 E7 90 LDA $90E7
PRG:01113: 85 FB    STA $FB
PRG:01115: 60       RTS
PRG:01116: 28       PLP
PRG:01117: 18       CLC
PRG:01118: 38       SEC
PRG:01119: 28       PLP
PRG:0111A: 08       PHP
PRG:0111B: 00 00    BRK $00
PRG:0111D: 20 B0 50 JSR $50B0
PRG:01120: 00 00    BRK $00
PRG:01122: B0 B0    BCS $B0
PRG:01124: F0 00    BEQ $00
PRG:01126: 20 00 00 JSR $0000
PRG:01129: 00 00    BRK $00
PRG:0112B: 00 00    BRK $00
PRG:0112D: 20 04 03 JSR $0304
PRG:01130: 02       .byte $02
PRG:01131: AD 1A 07 LDA $071A
PRG:01134: 85 6D    STA $6D
PRG:01136: A9 28    LDA $28
PRG:01138: 8D 0A 07 STA $070A
PRG:0113B: A9 01    LDA $01
PRG:0113D: 85 33    STA $33
PRG:0113F: 85 B5    STA $B5
PRG:01141: A9 00    LDA $00
PRG:01143: 85 1D    STA $1D
PRG:01145: CE 90 04 DEC $0490
PRG:01148: A0 00    LDY $00
PRG:0114A: 8C 5B 07 STY $075B
PRG:0114D: AD 4E 07 LDA $074E
PRG:01150: D0 01    BNE $01
PRG:01152: C8       INY
PRG:01153: 8C 04 07 STY $0704
PRG:01156: AE 10 07 LDX $0710
PRG:01159: AC 52 07 LDY $0752
PRG:0115C: F0 07    BEQ $07
PRG:0115E: C0 01    CPY $01
PRG:01160: F0 03    BEQ $03
PRG:01162: BE 18 91 LDX $9118
PRG:01165: B9 16 91 LDA $9116
PRG:01168: 85 86    STA $86
PRG:0116A: BD 1C 91 LDA $911C
PRG:0116D: 85 CE    STA $CE
PRG:0116F: BD 25 91 LDA $9125
PRG:01172: 8D C4 03 STA $03C4
PRG:01175: 20 F1 85 JSR $85F1
PRG:01178: AC 15 07 LDY $0715
PRG:0117B: F0 1A    BEQ $1A
PRG:0117D: AD 57 07 LDA $0757
PRG:01180: F0 15    BEQ $15
PRG:01182: B9 2D 91 LDA $912D
PRG:01185: 8D F8 07 STA $07F8
PRG:01188: A9 01    LDA $01
PRG:0118A: 8D FA 07 STA $07FA
PRG:0118D: 4A       LSR
PRG:0118E: 8D F9 07 STA $07F9
PRG:01191: 8D 57 07 STA $0757
PRG:01194: 8D 9F 07 STA $079F
PRG:01197: AC 58 07 LDY $0758
PRG:0119A: F0 14    BEQ $14
PRG:0119C: A9 03    LDA $03
PRG:0119E: 85 1D    STA $1D
PRG:011A0: A2 00    LDX $00
PRG:011A2: 20 84 BD JSR $BD84
PRG:011A5: A9 F0    LDA $F0
PRG:011A7: 85 D7    STA $D7
PRG:011A9: A2 05    LDX $05
PRG:011AB: A0 00    LDY $00
PRG:011AD: 20 1E B9 JSR $B91E
PRG:011B0: AC 4E 07 LDY $074E
PRG:011B3: D0 03    BNE $03
PRG:011B5: 20 0B B7 JSR $B70B
PRG:011B8: A9 07    LDA $07
PRG:011BA: 85 0E    STA $0E
PRG:011BC: 60       RTS
PRG:011BD: 56 40    LSR $40
PRG:011BF: 65 70    ADC $70
PRG:011C1: 66 40    ROR $40
PRG:011C3: 66 40    ROR $40
PRG:011C5: 66 40    ROR $40
PRG:011C7: 66 60    ROR $60
PRG:011C9: 65 70    ADC $70
PRG:011CB: 00 00    BRK $00
PRG:011CD: EE 74 07 INC $0774
PRG:011D0: A9 00    LDA $00
PRG:011D2: 8D 22 07 STA $0722
PRG:011D5: A9 80    LDA $80
PRG:011D7: 85 FC    STA $FC
PRG:011D9: CE 5A 07 DEC $075A
PRG:011DC: 10 0B    BPL $0B
PRG:011DE: A9 00    LDA $00
PRG:011E0: 8D 72 07 STA $0772
PRG:011E3: A9 03    LDA $03
PRG:011E5: 8D 70 07 STA $0770
PRG:011E8: 60       RTS
PRG:011E9: AD 5F 07 LDA $075F
PRG:011EC: 0A       ASL
PRG:011ED: AA       TAX
PRG:011EE: AD 5C 07 LDA $075C
PRG:011F1: 29 02    AND $02
PRG:011F3: F0 01    BEQ $01
PRG:011F5: E8       INX
PRG:011F6: BC BD 91 LDY $91BD
PRG:011F9: AD 5C 07 LDA $075C
PRG:011FC: 4A       LSR
PRG:011FD: 98       TYA
PRG:011FE: B0 04    BCS $04
PRG:01200: 4A       LSR
PRG:01201: 4A       LSR
PRG:01202: 4A       LSR
PRG:01203: 4A       LSR
PRG:01204: 29 0F    AND $0F
PRG:01206: CD 1A 07 CMP $071A
PRG:01209: F0 04    BEQ $04
PRG:0120B: 90 02    BCC $02
PRG:0120D: A9 00    LDA $00
PRG:0120F: 8D 5B 07 STA $075B
PRG:01212: 20 82 92 JSR $9282
PRG:01215: 4C 64 92 JMP $9264
PRG:01218: AD 72 07 LDA $0772
PRG:0121B: 20 04 8E JSR $8E04
PRG:0121E: 24 92    BIT $92
PRG:01220: 67       .byte $67
PRG:01221: 85 37    STA $37
PRG:01223: 92       .byte $92
PRG:01224: A9 00    LDA $00
PRG:01226: 8D 3C 07 STA $073C
PRG:01229: 8D 22 07 STA $0722
PRG:0122C: A9 02    LDA $02
PRG:0122E: 85 FC    STA $FC
PRG:01230: EE 74 07 INC $0774
PRG:01233: EE 72 07 INC $0772
PRG:01236: 60       RTS
PRG:01237: A9 00    LDA $00
PRG:01239: 8D 74 07 STA $0774
PRG:0123C: AD FC 06 LDA $06FC
PRG:0123F: 29 10    AND $10
PRG:01241: D0 05    BNE $05
PRG:01243: AD A0 07 LDA $07A0
PRG:01246: D0 39    BNE $39
PRG:01248: A9 80    LDA $80
PRG:0124A: 85 FC    STA $FC
PRG:0124C: 20 82 92 JSR $9282
PRG:0124F: 90 13    BCC $13
PRG:01251: AD 5F 07 LDA $075F
PRG:01254: 8D FD 07 STA $07FD
PRG:01257: A9 00    LDA $00
PRG:01259: 0A       ASL
PRG:0125A: 8D 72 07 STA $0772
PRG:0125D: 8D A0 07 STA $07A0
PRG:01260: 8D 70 07 STA $0770
PRG:01263: 60       RTS
PRG:01264: 20 03 9C JSR $9C03
PRG:01267: A9 01    LDA $01
PRG:01269: 8D 54 07 STA $0754
PRG:0126C: EE 57 07 INC $0757
PRG:0126F: A9 00    LDA $00
PRG:01271: 8D 47 07 STA $0747
PRG:01274: 8D 56 07 STA $0756
PRG:01277: 85 0E    STA $0E
PRG:01279: 8D 72 07 STA $0772
PRG:0127C: A9 01    LDA $01
PRG:0127E: 8D 70 07 STA $0770
PRG:01281: 60       RTS
PRG:01282: 38       SEC
PRG:01283: AD 7A 07 LDA $077A
PRG:01286: F0 21    BEQ $21
PRG:01288: AD 61 07 LDA $0761
PRG:0128B: 30 1C    BMI $1C
PRG:0128D: AD 53 07 LDA $0753
PRG:01290: 49 01    EOR $01
PRG:01292: 8D 53 07 STA $0753
PRG:01295: A2 06    LDX $06
PRG:01297: BD 5A 07 LDA $075A
PRG:0129A: 48       PHA
PRG:0129B: BD 61 07 LDA $0761
PRG:0129E: 9D 5A 07 STA $075A
PRG:012A1: 68       PLA
PRG:012A2: 9D 61 07 STA $0761
PRG:012A5: CA       DEX
PRG:012A6: 10 EF    BPL $EF
PRG:012A8: 18       CLC
PRG:012A9: 60       RTS
PRG:012AA: A9 FF    LDA $FF
PRG:012AC: 8D C9 06 STA $06C9
PRG:012AF: 60       RTS
PRG:012B0: AC 1F 07 LDY $071F
PRG:012B3: D0 05    BNE $05
PRG:012B5: A0 08    LDY $08
PRG:012B7: 8C 1F 07 STY $071F
PRG:012BA: 88       DEY
PRG:012BB: 98       TYA
PRG:012BC: 20 C8 92 JSR $92C8
PRG:012BF: CE 1F 07 DEC $071F
PRG:012C2: D0 03    BNE $03
PRG:012C4: 20 6A 89 JSR $896A
PRG:012C7: 60       RTS
PRG:012C8: 20 04 8E JSR $8E04
PRG:012CB: DB       .byte $DB
PRG:012CC: 92       .byte $92
PRG:012CD: AE 88 AE LDX $AE88
PRG:012D0: 88       DEY
PRG:012D1: FC 93 DB NOP $DB93
PRG:012D4: 92       .byte $92
PRG:012D5: AE 88 AE LDX $AE88
PRG:012D8: 88       DEY
PRG:012D9: FC 93 EE NOP $EE93
PRG:012DC: 26 07    ROL $07
PRG:012DE: AD 26 07 LDA $0726
PRG:012E1: 29 0F    AND $0F
PRG:012E3: D0 06    BNE $06
PRG:012E5: 8D 26 07 STA $0726
PRG:012E8: EE 25 07 INC $0725
PRG:012EB: EE A0 06 INC $06A0
PRG:012EE: AD A0 06 LDA $06A0
PRG:012F1: 29 1F    AND $1F
PRG:012F3: 8D A0 06 STA $06A0
PRG:012F6: 60       RTS
PRG:012F7: 00 30    BRK $30
PRG:012F9: 60       RTS
PRG:012FA: 93       .byte $93
PRG:012FB: 00 00    BRK $00
PRG:012FD: 11 12    ORA $12
PRG:012FF: 12       .byte $12
PRG:01300: 13       .byte $13
PRG:01301: 00 00    BRK $00
PRG:01303: 51 52    EOR $52
PRG:01305: 53       .byte $53
PRG:01306: 00 00    BRK $00
PRG:01308: 00 00    BRK $00
PRG:0130A: 00 00    BRK $00
PRG:0130C: 01 02    ORA $02
PRG:0130E: 02       .byte $02
PRG:0130F: 03       .byte $03
PRG:01310: 00 00    BRK $00
PRG:01312: 00 00    BRK $00
PRG:01314: 00 00    BRK $00
PRG:01316: 91 92    STA $92
PRG:01318: 93       .byte $93
PRG:01319: 00 00    BRK $00
PRG:0131B: 00 00    BRK $00
PRG:0131D: 51 52    EOR $52
PRG:0131F: 53       .byte $53
PRG:01320: 41 42    EOR $42
PRG:01322: 43       .byte $43
PRG:01323: 00 00    BRK $00
PRG:01325: 00 00    BRK $00
PRG:01327: 00 91    BRK $91
PRG:01329: 92       .byte $92
PRG:0132A: 97       .byte $97
PRG:0132B: 87       .byte $87
PRG:0132C: 88       DEY
PRG:0132D: 89       .byte $89
PRG:0132E: 99 00 00 STA $0000
PRG:01331: 00 11    BRK $11
PRG:01333: 12       .byte $12
PRG:01334: 13       .byte $13
PRG:01335: A4 A5    LDY $A5
PRG:01337: A5 A5    LDA $A5
PRG:01339: A6 97    LDX $97
PRG:0133B: 98       TYA
PRG:0133C: 99 01 02 STA $0201
PRG:0133F: 03       .byte $03
PRG:01340: 00 A4    BRK $A4
PRG:01342: A5 A6    LDA $A6
PRG:01344: 00 11    BRK $11
PRG:01346: 12       .byte $12
PRG:01347: 12       .byte $12
PRG:01348: 12       .byte $12
PRG:01349: 13       .byte $13
PRG:0134A: 00 00    BRK $00
PRG:0134C: 00 00    BRK $00
PRG:0134E: 01 02    ORA $02
PRG:01350: 02       .byte $02
PRG:01351: 03       .byte $03
PRG:01352: 00 A4    BRK $A4
PRG:01354: A5 A5    LDA $A5
PRG:01356: A6 00    LDX $00
PRG:01358: 00 00    BRK $00
PRG:0135A: 11 12    ORA $12
PRG:0135C: 12       .byte $12
PRG:0135D: 13       .byte $13
PRG:0135E: 00 00    BRK $00
PRG:01360: 00 00    BRK $00
PRG:01362: 00 00    BRK $00
PRG:01364: 00 9C    BRK $9C
PRG:01366: 00 8B    BRK $8B
PRG:01368: AA       TAX
PRG:01369: AA       TAX
PRG:0136A: AA       TAX
PRG:0136B: AA       TAX
PRG:0136C: 11 12    ORA $12
PRG:0136E: 13       .byte $13
PRG:0136F: 8B       .byte $8B
PRG:01370: 00 9C    BRK $9C
PRG:01372: 9C       .byte $9C
PRG:01373: 00 00    BRK $00
PRG:01375: 01 02    ORA $02
PRG:01377: 03       .byte $03
PRG:01378: 11 12    ORA $12
PRG:0137A: 12       .byte $12
PRG:0137B: 13       .byte $13
PRG:0137C: 00 00    BRK $00
PRG:0137E: 00 00    BRK $00
PRG:01380: AA       TAX
PRG:01381: AA       TAX
PRG:01382: 9C       .byte $9C
PRG:01383: AA       TAX
PRG:01384: 00 8B    BRK $8B
PRG:01386: 00 01    BRK $01
PRG:01388: 02       .byte $02
PRG:01389: 03       .byte $03
PRG:0138A: 80 83    NOP $83
PRG:0138C: 00 81    BRK $81
PRG:0138E: 84 00    STY $00
PRG:01390: 82       .byte $82
PRG:01391: 85 00    STA $00
PRG:01393: 02       .byte $02
PRG:01394: 00 00    BRK $00
PRG:01396: 03       .byte $03
PRG:01397: 00 00    BRK $00
PRG:01399: 04 00    NOP $00
PRG:0139B: 00 00    BRK $00
PRG:0139D: 05 06    ORA $06
PRG:0139F: 07       .byte $07
PRG:013A0: 06 0A    ASL $0A
PRG:013A2: 00 08    BRK $08
PRG:013A4: 09 4D    ORA $4D
PRG:013A6: 00 00    BRK $00
PRG:013A8: 0D 0F 4E ORA $4E0F
PRG:013AB: 0E 4E 4E ASL $4E4E
PRG:013AE: 00 0D    BRK $0D
PRG:013B0: 1A       NOP
PRG:013B1: 86 87    STX $87
PRG:013B3: 87       .byte $87
PRG:013B4: 87       .byte $87
PRG:013B5: 87       .byte $87
PRG:013B6: 87       .byte $87
PRG:013B7: 87       .byte $87
PRG:013B8: 87       .byte $87
PRG:013B9: 87       .byte $87
PRG:013BA: 87       .byte $87
PRG:013BB: 87       .byte $87
PRG:013BC: 69 69    ADC $69
PRG:013BE: 00 00    BRK $00
PRG:013C0: 00 00    BRK $00
PRG:013C2: 00 45    BRK $45
PRG:013C4: 47       .byte $47
PRG:013C5: 47       .byte $47
PRG:013C6: 47       .byte $47
PRG:013C7: 47       .byte $47
PRG:013C8: 47       .byte $47
PRG:013C9: 00 00    BRK $00
PRG:013CB: 00 00    BRK $00
PRG:013CD: 00 00    BRK $00
PRG:013CF: 00 00    BRK $00
PRG:013D1: 00 00    BRK $00
PRG:013D3: 00 00    BRK $00
PRG:013D5: 00 86    BRK $86
PRG:013D7: 87       .byte $87
PRG:013D8: 69 54    ADC $54
PRG:013DA: 52       .byte $52
PRG:013DB: 62       .byte $62
PRG:013DC: 00 00    BRK $00
PRG:013DE: 00 18    BRK $18
PRG:013E0: 01 18    ORA $18
PRG:013E2: 07       .byte $07
PRG:013E3: 18       CLC
PRG:013E4: 0F       .byte $0F
PRG:013E5: 18       CLC
PRG:013E6: FF       .byte $FF
PRG:013E7: 18       CLC
PRG:013E8: 01 1F    ORA $1F
PRG:013EA: 07       .byte $07
PRG:013EB: 1F       .byte $1F
PRG:013EC: 0F       .byte $0F
PRG:013ED: 1F       .byte $1F
PRG:013EE: 81 1F    STA $1F
PRG:013F0: 01 00    ORA $00
PRG:013F2: 8F       .byte $8F
PRG:013F3: 1F       .byte $1F
PRG:013F4: F1 1F    SBC $1F
PRG:013F6: F9 18 F1 SBC $F118
PRG:013F9: 18       CLC
PRG:013FA: FF       .byte $FF
PRG:013FB: 1F       .byte $1F
PRG:013FC: AD 28 07 LDA $0728
PRG:013FF: F0 03    BEQ $03
PRG:01401: 20 08 95 JSR $9508
PRG:01404: A2 0C    LDX $0C
PRG:01406: A9 00    LDA $00
PRG:01408: 9D A1 06 STA $06A1
PRG:0140B: CA       DEX
PRG:0140C: 10 FA    BPL $FA
PRG:0140E: AC 42 07 LDY $0742
PRG:01411: F0 42    BEQ $42
PRG:01413: AD 25 07 LDA $0725
PRG:01416: C9 03    CMP $03
PRG:01418: 30 05    BMI $05
PRG:0141A: 38       SEC
PRG:0141B: E9 03    SBC $03
PRG:0141D: 10 F7    BPL $F7
PRG:0141F: 0A       ASL
PRG:01420: 0A       ASL
PRG:01421: 0A       ASL
PRG:01422: 0A       ASL
PRG:01423: 79 F6 92 ADC $92F6
PRG:01426: 6D 26 07 ADC $0726
PRG:01429: AA       TAX
PRG:0142A: BD FA 92 LDA $92FA
PRG:0142D: F0 26    BEQ $26
PRG:0142F: 48       PHA
PRG:01430: 29 0F    AND $0F
PRG:01432: 38       SEC
PRG:01433: E9 01    SBC $01
PRG:01435: 85 00    STA $00
PRG:01437: 0A       ASL
PRG:01438: 65 00    ADC $00
PRG:0143A: AA       TAX
PRG:0143B: 68       PLA
PRG:0143C: 4A       LSR
PRG:0143D: 4A       LSR
PRG:0143E: 4A       LSR
PRG:0143F: 4A       LSR
PRG:01440: A8       TAY
PRG:01441: A9 03    LDA $03
PRG:01443: 85 00    STA $00
PRG:01445: BD 8A 93 LDA $938A
PRG:01448: 99 A1 06 STA $06A1
PRG:0144B: E8       INX
PRG:0144C: C8       INY
PRG:0144D: C0 0B    CPY $0B
PRG:0144F: F0 04    BEQ $04
PRG:01451: C6 00    DEC $00
PRG:01453: D0 F0    BNE $F0
PRG:01455: AE 41 07 LDX $0741
PRG:01458: F0 13    BEQ $13
PRG:0145A: BC AD 93 LDY $93AD
PRG:0145D: A2 00    LDX $00
PRG:0145F: B9 B1 93 LDA $93B1
PRG:01462: F0 03    BEQ $03
PRG:01464: 9D A1 06 STA $06A1
PRG:01467: C8       INY
PRG:01468: E8       INX
PRG:01469: E0 0D    CPX $0D
PRG:0146B: D0 F2    BNE $F2
PRG:0146D: AC 4E 07 LDY $074E
PRG:01470: D0 0C    BNE $0C
PRG:01472: AD 5F 07 LDA $075F
PRG:01475: C9 07    CMP $07
PRG:01477: D0 05    BNE $05
PRG:01479: A9 62    LDA $62
PRG:0147B: 4C 88 94 JMP $9488
PRG:0147E: B9 D8 93 LDA $93D8
PRG:01481: AC 43 07 LDY $0743
PRG:01484: F0 02    BEQ $02
PRG:01486: A9 88    LDA $88
PRG:01488: 85 07    STA $07
PRG:0148A: A2 00    LDX $00
PRG:0148C: AD 27 07 LDA $0727
PRG:0148F: 0A       ASL
PRG:01490: A8       TAY
PRG:01491: B9 DC 93 LDA $93DC
PRG:01494: 85 00    STA $00
PRG:01496: C8       INY
PRG:01497: 84 01    STY $01
PRG:01499: AD 43 07 LDA $0743
PRG:0149C: F0 0A    BEQ $0A
PRG:0149E: E0 00    CPX $00
PRG:014A0: F0 06    BEQ $06
PRG:014A2: A5 00    LDA $00
PRG:014A4: 29 08    AND $08
PRG:014A6: 85 00    STA $00
PRG:014A8: A0 00    LDY $00
PRG:014AA: B9 8A C6 LDA $C68A
PRG:014AD: 24 00    BIT $00
PRG:014AF: F0 05    BEQ $05
PRG:014B1: A5 07    LDA $07
PRG:014B3: 9D A1 06 STA $06A1
PRG:014B6: E8       INX
PRG:014B7: E0 0D    CPX $0D
PRG:014B9: F0 18    BEQ $18
PRG:014BB: AD 4E 07 LDA $074E
PRG:014BE: C9 02    CMP $02
PRG:014C0: D0 08    BNE $08
PRG:014C2: E0 0B    CPX $0B
PRG:014C4: D0 04    BNE $04
PRG:014C6: A9 54    LDA $54
PRG:014C8: 85 07    STA $07
PRG:014CA: C8       INY
PRG:014CB: C0 08    CPY $08
PRG:014CD: D0 DB    BNE $DB
PRG:014CF: A4 01    LDY $01
PRG:014D1: D0 BE    BNE $BE
PRG:014D3: 20 08 95 JSR $9508
PRG:014D6: AD A0 06 LDA $06A0
PRG:014D9: 20 E1 9B JSR $9BE1
PRG:014DC: A2 00    LDX $00
PRG:014DE: A0 00    LDY $00
PRG:014E0: 84 00    STY $00
PRG:014E2: BD A1 06 LDA $06A1
PRG:014E5: 29 C0    AND $C0
PRG:014E7: 0A       ASL
PRG:014E8: 2A       ROL
PRG:014E9: 2A       ROL
PRG:014EA: A8       TAY
PRG:014EB: BD A1 06 LDA $06A1
PRG:014EE: D9 04 95 CMP $9504
PRG:014F1: B0 02    BCS $02
PRG:014F3: A9 00    LDA $00
PRG:014F5: A4 00    LDY $00
PRG:014F7: 91 06    STA $06
PRG:014F9: 98       TYA
PRG:014FA: 18       CLC
PRG:014FB: 69 10    ADC $10
PRG:014FD: A8       TAY
PRG:014FE: E8       INX
PRG:014FF: E0 0D    CPX $0D
PRG:01501: 90 DD    BCC $DD
PRG:01503: 60       RTS
PRG:01504: 10 51    BPL $51
PRG:01506: 88       DEY
PRG:01507: C0 A2    CPY $A2
PRG:01509: 02       .byte $02
PRG:0150A: 86 08    STX $08
PRG:0150C: A9 00    LDA $00
PRG:0150E: 8D 29 07 STA $0729
PRG:01511: AC 2C 07 LDY $072C
PRG:01514: B1 E7    LDA $E7
PRG:01516: C9 FD    CMP $FD
PRG:01518: F0 4B    BEQ $4B
PRG:0151A: BD 30 07 LDA $0730
PRG:0151D: 10 46    BPL $46
PRG:0151F: C8       INY
PRG:01520: B1 E7    LDA $E7
PRG:01522: 0A       ASL
PRG:01523: 90 0B    BCC $0B
PRG:01525: AD 2B 07 LDA $072B
PRG:01528: D0 06    BNE $06
PRG:0152A: EE 2B 07 INC $072B
PRG:0152D: EE 2A 07 INC $072A
PRG:01530: 88       DEY
PRG:01531: B1 E7    LDA $E7
PRG:01533: 29 0F    AND $0F
PRG:01535: C9 0D    CMP $0D
PRG:01537: D0 1B    BNE $1B
PRG:01539: C8       INY
PRG:0153A: B1 E7    LDA $E7
PRG:0153C: 88       DEY
PRG:0153D: 29 40    AND $40
PRG:0153F: D0 1C    BNE $1C
PRG:01541: AD 2B 07 LDA $072B
PRG:01544: D0 17    BNE $17
PRG:01546: C8       INY
PRG:01547: B1 E7    LDA $E7
PRG:01549: 29 1F    AND $1F
PRG:0154B: 8D 2A 07 STA $072A
PRG:0154E: EE 2B 07 INC $072B
PRG:01551: 4C 6E 95 JMP $956E
PRG:01554: C9 0E    CMP $0E
PRG:01556: D0 05    BNE $05
PRG:01558: AD 28 07 LDA $0728
PRG:0155B: D0 08    BNE $08
PRG:0155D: AD 2A 07 LDA $072A
PRG:01560: CD 25 07 CMP $0725
PRG:01563: 90 06    BCC $06
PRG:01565: 20 95 95 JSR $9595
PRG:01568: 4C 71 95 JMP $9571
PRG:0156B: EE 29 07 INC $0729
PRG:0156E: 20 89 95 JSR $9589
PRG:01571: A6 08    LDX $08
PRG:01573: BD 30 07 LDA $0730
PRG:01576: 30 03    BMI $03
PRG:01578: DE 30 07 DEC $0730
PRG:0157B: CA       DEX
PRG:0157C: 10 8C    BPL $8C
PRG:0157E: AD 29 07 LDA $0729
PRG:01581: D0 85    BNE $85
PRG:01583: AD 28 07 LDA $0728
PRG:01586: D0 80    BNE $80
PRG:01588: 60       RTS
PRG:01589: EE 2C 07 INC $072C
PRG:0158C: EE 2C 07 INC $072C
PRG:0158F: A9 00    LDA $00
PRG:01591: 8D 2B 07 STA $072B
PRG:01594: 60       RTS
PRG:01595: BD 30 07 LDA $0730
PRG:01598: 30 03    BMI $03
PRG:0159A: BC 2D 07 LDY $072D
PRG:0159D: A2 10    LDX $10
PRG:0159F: B1 E7    LDA $E7
PRG:015A1: C9 FD    CMP $FD
PRG:015A3: F0 E3    BEQ $E3
PRG:015A5: 29 0F    AND $0F
PRG:015A7: C9 0F    CMP $0F
PRG:015A9: F0 08    BEQ $08
PRG:015AB: A2 08    LDX $08
PRG:015AD: C9 0C    CMP $0C
PRG:015AF: F0 02    BEQ $02
PRG:015B1: A2 00    LDX $00
PRG:015B3: 86 07    STX $07
PRG:015B5: A6 08    LDX $08
PRG:015B7: C9 0E    CMP $0E
PRG:015B9: D0 08    BNE $08
PRG:015BB: A9 00    LDA $00
PRG:015BD: 85 07    STA $07
PRG:015BF: A9 2E    LDA $2E
PRG:015C1: D0 53    BNE $53
PRG:015C3: C9 0D    CMP $0D
PRG:015C5: D0 1B    BNE $1B
PRG:015C7: A9 22    LDA $22
PRG:015C9: 85 07    STA $07
PRG:015CB: C8       INY
PRG:015CC: B1 E7    LDA $E7
PRG:015CE: 29 40    AND $40
PRG:015D0: F0 63    BEQ $63
PRG:015D2: B1 E7    LDA $E7
PRG:015D4: 29 7F    AND $7F
PRG:015D6: C9 4B    CMP $4B
PRG:015D8: D0 03    BNE $03
PRG:015DA: EE 45 07 INC $0745
PRG:015DD: 29 3F    AND $3F
PRG:015DF: 4C 16 96 JMP $9616
PRG:015E2: C9 0C    CMP $0C
PRG:015E4: B0 27    BCS $27
PRG:015E6: C8       INY
PRG:015E7: B1 E7    LDA $E7
PRG:015E9: 29 70    AND $70
PRG:015EB: D0 0B    BNE $0B
PRG:015ED: A9 16    LDA $16
PRG:015EF: 85 07    STA $07
PRG:015F1: B1 E7    LDA $E7
PRG:015F3: 29 0F    AND $0F
PRG:015F5: 4C 16 96 JMP $9616
PRG:015F8: 85 00    STA $00
PRG:015FA: C9 70    CMP $70
PRG:015FC: D0 0A    BNE $0A
PRG:015FE: B1 E7    LDA $E7
PRG:01600: 29 08    AND $08
PRG:01602: F0 04    BEQ $04
PRG:01604: A9 00    LDA $00
PRG:01606: 85 00    STA $00
PRG:01608: A5 00    LDA $00
PRG:0160A: 4C 12 96 JMP $9612
PRG:0160D: C8       INY
PRG:0160E: B1 E7    LDA $E7
PRG:01610: 29 70    AND $70
PRG:01612: 4A       LSR
PRG:01613: 4A       LSR
PRG:01614: 4A       LSR
PRG:01615: 4A       LSR
PRG:01616: 85 00    STA $00
PRG:01618: BD 30 07 LDA $0730
PRG:0161B: 10 42    BPL $42
PRG:0161D: AD 2A 07 LDA $072A
PRG:01620: CD 25 07 CMP $0725
PRG:01623: F0 11    BEQ $11
PRG:01625: AC 2C 07 LDY $072C
PRG:01628: B1 E7    LDA $E7
PRG:0162A: 29 0F    AND $0F
PRG:0162C: C9 0E    CMP $0E
PRG:0162E: D0 05    BNE $05
PRG:01630: AD 28 07 LDA $0728
PRG:01633: D0 21    BNE $21
PRG:01635: 60       RTS
PRG:01636: AD 28 07 LDA $0728
PRG:01639: F0 0B    BEQ $0B
PRG:0163B: A9 00    LDA $00
PRG:0163D: 8D 28 07 STA $0728
PRG:01640: 8D 29 07 STA $0729
PRG:01643: 85 08    STA $08
PRG:01645: 60       RTS
PRG:01646: AC 2C 07 LDY $072C
PRG:01649: B1 E7    LDA $E7
PRG:0164B: 29 F0    AND $F0
PRG:0164D: 4A       LSR
PRG:0164E: 4A       LSR
PRG:0164F: 4A       LSR
PRG:01650: 4A       LSR
PRG:01651: CD 26 07 CMP $0726
PRG:01654: D0 DF    BNE $DF
PRG:01656: AD 2C 07 LDA $072C
PRG:01659: 9D 2D 07 STA $072D
PRG:0165C: 20 89 95 JSR $9589
PRG:0165F: A5 00    LDA $00
PRG:01661: 18       CLC
PRG:01662: 65 07    ADC $07
PRG:01664: 20 04 8E JSR $8E04
PRG:01667: E5 98    SBC $98
PRG:01669: 40       RTI
PRG:0166A: 97       .byte $97
PRG:0166B: 2E 9A 3E ROL $3E9A
PRG:0166E: 9A       TXS
PRG:0166F: F2       .byte $F2
PRG:01670: 99 50 9A STA $9A50
PRG:01673: 59 9A E5 EOR $E59A
PRG:01676: 98       TYA
PRG:01677: 41 9B    EOR $9B
PRG:01679: BA       TSX
PRG:0167A: 97       .byte $97
PRG:0167B: 79 99 7C ADC $7C99
PRG:0167E: 99 7F 99 STA $997F
PRG:01681: 57       .byte $57
PRG:01682: 99 68 99 STA $9968
PRG:01685: 6B       .byte $6B
PRG:01686: 99 D0 99 STA $99D0
PRG:01689: D7       .byte $D7
PRG:0168A: 99 06 98 STA $9806
PRG:0168D: B7       .byte $B7
PRG:0168E: 9A       TXS
PRG:0168F: AB       .byte $AB
PRG:01690: 98       TYA
PRG:01691: 94 99    STY $99
PRG:01693: 0E 9B 0E ASL $0E9B
PRG:01696: 9B       .byte $9B
PRG:01697: 0E 9B 01 ASL $019B
PRG:0169A: 9B       .byte $9B
PRG:0169B: 19 9B 19 ORA $199B
PRG:0169E: 9B       .byte $9B
PRG:0169F: 19 9B 14 ORA $149B
PRG:016A2: 9B       .byte $9B
PRG:016A3: 19 9B 6F ORA $6F9B
PRG:016A6: 98       TYA
PRG:016A7: 19 9A D3 ORA $D39A
PRG:016AA: 9A       TXS
PRG:016AB: 82       .byte $82
PRG:016AC: 98       TYA
PRG:016AD: 9E       .byte $9E
PRG:016AE: 99 09 9A STA $9A09
PRG:016B1: 0E 9A 01 ASL $019A
PRG:016B4: 9A       TXS
PRG:016B5: F2       .byte $F2
PRG:016B6: 96 0D    STX $0D
PRG:016B8: 97       .byte $97
PRG:016B9: 0D 97 2B ORA $2B97
PRG:016BC: 97       .byte $97
PRG:016BD: 2B       .byte $2B
PRG:016BE: 97       .byte $97
PRG:016BF: 2B       .byte $2B
PRG:016C0: 97       .byte $97
PRG:016C1: 45 96    EOR $96
PRG:016C3: C5 96    CMP $96
PRG:016C5: BC 2D 07 LDY $072D
PRG:016C8: C8       INY
PRG:016C9: B1 E7    LDA $E7
PRG:016CB: 48       PHA
PRG:016CC: 29 40    AND $40
PRG:016CE: D0 12    BNE $12
PRG:016D0: 68       PLA
PRG:016D1: 48       PHA
PRG:016D2: 29 0F    AND $0F
PRG:016D4: 8D 27 07 STA $0727
PRG:016D7: 68       PLA
PRG:016D8: 29 30    AND $30
PRG:016DA: 4A       LSR
PRG:016DB: 4A       LSR
PRG:016DC: 4A       LSR
PRG:016DD: 4A       LSR
PRG:016DE: 8D 42 07 STA $0742
PRG:016E1: 60       RTS
PRG:016E2: 68       PLA
PRG:016E3: 29 07    AND $07
PRG:016E5: C9 04    CMP $04
PRG:016E7: 90 05    BCC $05
PRG:016E9: 8D 44 07 STA $0744
PRG:016EC: A9 00    LDA $00
PRG:016EE: 8D 41 07 STA $0741
PRG:016F1: 60       RTS
PRG:016F2: A2 04    LDX $04
PRG:016F4: AD 5F 07 LDA $075F
PRG:016F7: F0 08    BEQ $08
PRG:016F9: E8       INX
PRG:016FA: AC 4E 07 LDY $074E
PRG:016FD: 88       DEY
PRG:016FE: D0 01    BNE $01
PRG:01700: E8       INX
PRG:01701: 8A       TXA
PRG:01702: 8D D6 06 STA $06D6
PRG:01705: 20 08 88 JSR $8808
PRG:01708: A9 0D    LDA $0D
PRG:0170A: 20 16 97 JSR $9716
PRG:0170D: AD 23 07 LDA $0723
PRG:01710: 49 01    EOR $01
PRG:01712: 8D 23 07 STA $0723
PRG:01715: 60       RTS
PRG:01716: 85 00    STA $00
PRG:01718: A9 00    LDA $00
PRG:0171A: A2 04    LDX $04
PRG:0171C: B4 16    LDY $16
PRG:0171E: C4 00    CPY $00
PRG:01720: D0 02    BNE $02
PRG:01722: 95 0F    STA $0F
PRG:01724: CA       DEX
PRG:01725: 10 F5    BPL $F5
PRG:01727: 60       RTS
PRG:01728: 14 17    NOP $17
PRG:0172A: 18       CLC
PRG:0172B: A6 00    LDX $00
PRG:0172D: BD 20 97 LDA $9720
PRG:01730: A0 05    LDY $05
PRG:01732: 88       DEY
PRG:01733: 30 07    BMI $07
PRG:01735: D9 16 00 CMP $0016
PRG:01738: D0 F8    BNE $F8
PRG:0173A: A9 00    LDA $00
PRG:0173C: 8D CD 06 STA $06CD
PRG:0173F: 60       RTS
PRG:01740: AD 33 07 LDA $0733
PRG:01743: 20 04 8E JSR $8E04
PRG:01746: 4C 97 78 JMP $7897
PRG:01749: 97       .byte $97
PRG:0174A: 69 9A    ADC $9A
PRG:0174C: 20 BB 9B JSR $9BBB
PRG:0174F: BD 30 07 LDA $0730
PRG:01752: F0 1F    BEQ $1F
PRG:01754: 10 11    BPL $11
PRG:01756: 98       TYA
PRG:01757: 9D 30 07 STA $0730
PRG:0175A: AD 25 07 LDA $0725
PRG:0175D: 0D 26 07 ORA $0726
PRG:01760: F0 05    BEQ $05
PRG:01762: A9 16    LDA $16
PRG:01764: 4C B0 97 JMP $97B0
PRG:01767: A6 07    LDX $07
PRG:01769: A9 17    LDA $17
PRG:0176B: 9D A1 06 STA $06A1
PRG:0176E: A9 4C    LDA $4C
PRG:01770: 4C AA 97 JMP $97AA
PRG:01773: A9 18    LDA $18
PRG:01775: 4C B0 97 JMP $97B0
PRG:01778: 20 AC 9B JSR $9BAC
PRG:0177B: 84 06    STY $06
PRG:0177D: 90 0C    BCC $0C
PRG:0177F: BD 30 07 LDA $0730
PRG:01782: 4A       LSR
PRG:01783: 9D 36 07 STA $0736
PRG:01786: A9 19    LDA $19
PRG:01788: 4C B0 97 JMP $97B0
PRG:0178B: A9 1B    LDA $1B
PRG:0178D: BC 30 07 LDY $0730
PRG:01790: F0 1E    BEQ $1E
PRG:01792: BD 36 07 LDA $0736
PRG:01795: 85 06    STA $06
PRG:01797: A6 07    LDX $07
PRG:01799: A9 1A    LDA $1A
PRG:0179B: 9D A1 06 STA $06A1
PRG:0179E: C4 06    CPY $06
PRG:017A0: D0 2C    BNE $2C
PRG:017A2: E8       INX
PRG:017A3: A9 4F    LDA $4F
PRG:017A5: 9D A1 06 STA $06A1
PRG:017A8: A9 50    LDA $50
PRG:017AA: E8       INX
PRG:017AB: A0 0F    LDY $0F
PRG:017AD: 4C 7D 9B JMP $9B7D
PRG:017B0: A6 07    LDX $07
PRG:017B2: A0 00    LDY $00
PRG:017B4: 4C 7D 9B JMP $9B7D
PRG:017B7: 42       .byte $42
PRG:017B8: 41 43    EOR $43
PRG:017BA: 20 AC 9B JSR $9BAC
PRG:017BD: A0 00    LDY $00
PRG:017BF: B0 07    BCS $07
PRG:017C1: C8       INY
PRG:017C2: BD 30 07 LDA $0730
PRG:017C5: D0 01    BNE $01
PRG:017C7: C8       INY
PRG:017C8: B9 B7 97 LDA $97B7
PRG:017CB: 8D A1 06 STA $06A1
PRG:017CE: 60       RTS
PRG:017CF: 00 45    BRK $45
PRG:017D1: 45 45    EOR $45
PRG:017D3: 00 00    BRK $00
PRG:017D5: 48       PHA
PRG:017D6: 47       .byte $47
PRG:017D7: 46 00    LSR $00
PRG:017D9: 45 49    EOR $49
PRG:017DB: 49 49    EOR $49
PRG:017DD: 45 47    EOR $47
PRG:017DF: 47       .byte $47
PRG:017E0: 4A       LSR
PRG:017E1: 47       .byte $47
PRG:017E2: 47       .byte $47
PRG:017E3: 47       .byte $47
PRG:017E4: 47       .byte $47
PRG:017E5: 4B       .byte $4B
PRG:017E6: 47       .byte $47
PRG:017E7: 47       .byte $47
PRG:017E8: 49 49    EOR $49
PRG:017EA: 49 49    EOR $49
PRG:017EC: 49 47    EOR $47
PRG:017EE: 4A       LSR
PRG:017EF: 47       .byte $47
PRG:017F0: 4A       LSR
PRG:017F1: 47       .byte $47
PRG:017F2: 47       .byte $47
PRG:017F3: 4B       .byte $4B
PRG:017F4: 47       .byte $47
PRG:017F5: 4B       .byte $4B
PRG:017F6: 47       .byte $47
PRG:017F7: 47       .byte $47
PRG:017F8: 47       .byte $47
PRG:017F9: 47       .byte $47
PRG:017FA: 47       .byte $47
PRG:017FB: 47       .byte $47
PRG:017FC: 4A       LSR
PRG:017FD: 47       .byte $47
PRG:017FE: 4A       LSR
PRG:017FF: 47       .byte $47
PRG:01800: 4A       LSR
PRG:01801: 4B       .byte $4B
PRG:01802: 47       .byte $47
PRG:01803: 4B       .byte $4B
PRG:01804: 47       .byte $47
PRG:01805: 4B       .byte $4B
PRG:01806: 20 BB 9B JSR $9BBB
PRG:01809: 84 07    STY $07
PRG:0180B: A0 04    LDY $04
PRG:0180D: 20 AF 9B JSR $9BAF
PRG:01810: 8A       TXA
PRG:01811: 48       PHA
PRG:01812: BC 30 07 LDY $0730
PRG:01815: A6 07    LDX $07
PRG:01817: A9 0B    LDA $0B
PRG:01819: 85 06    STA $06
PRG:0181B: B9 CF 97 LDA $97CF
PRG:0181E: 9D A1 06 STA $06A1
PRG:01821: E8       INX
PRG:01822: A5 06    LDA $06
PRG:01824: F0 07    BEQ $07
PRG:01826: C8       INY
PRG:01827: C8       INY
PRG:01828: C8       INY
PRG:01829: C8       INY
PRG:0182A: C8       INY
PRG:0182B: C6 06    DEC $06
PRG:0182D: E0 0B    CPX $0B
PRG:0182F: D0 EA    BNE $EA
PRG:01831: 68       PLA
PRG:01832: AA       TAX
PRG:01833: AD 25 07 LDA $0725
PRG:01836: F0 36    BEQ $36
PRG:01838: BD 30 07 LDA $0730
PRG:0183B: C9 01    CMP $01
PRG:0183D: F0 2A    BEQ $2A
PRG:0183F: A4 07    LDY $07
PRG:01841: D0 04    BNE $04
PRG:01843: C9 03    CMP $03
PRG:01845: F0 22    BEQ $22
PRG:01847: C9 02    CMP $02
PRG:01849: D0 23    BNE $23
PRG:0184B: 20 CB 9B JSR $9BCB
PRG:0184E: 48       PHA
PRG:0184F: 20 4A 99 JSR $994A
PRG:01852: 68       PLA
PRG:01853: 95 87    STA $87
PRG:01855: AD 25 07 LDA $0725
PRG:01858: 95 6E    STA $6E
PRG:0185A: A9 01    LDA $01
PRG:0185C: 95 B6    STA $B6
PRG:0185E: 95 0F    STA $0F
PRG:01860: A9 90    LDA $90
PRG:01862: 95 CF    STA $CF
PRG:01864: A9 31    LDA $31
PRG:01866: 95 16    STA $16
PRG:01868: 60       RTS
PRG:01869: A0 52    LDY $52
PRG:0186B: 8C AB 06 STY $06AB
PRG:0186E: 60       RTS
PRG:0186F: 20 BB 9B JSR $9BBB
PRG:01872: BC 30 07 LDY $0730
PRG:01875: A6 07    LDX $07
PRG:01877: A9 6B    LDA $6B
PRG:01879: 9D A1 06 STA $06A1
PRG:0187C: A9 6C    LDA $6C
PRG:0187E: 9D A2 06 STA $06A2
PRG:01881: 60       RTS
PRG:01882: A0 03    LDY $03
PRG:01884: 20 AF 9B JSR $9BAF
PRG:01887: A0 0A    LDY $0A
PRG:01889: 20 B3 98 JSR $98B3
PRG:0188C: B0 10    BCS $10
PRG:0188E: A2 06    LDX $06
PRG:01890: A9 00    LDA $00
PRG:01892: 9D A1 06 STA $06A1
PRG:01895: CA       DEX
PRG:01896: 10 F8    BPL $F8
PRG:01898: B9 DD 98 LDA $98DD
PRG:0189B: 8D A8 06 STA $06A8
PRG:0189E: 60       RTS
PRG:0189F: 15 14    ORA $14
PRG:018A1: 00 00    BRK $00
PRG:018A3: 15 1E    ORA $1E
PRG:018A5: 1D 1C 15 ORA $151C
PRG:018A8: 21 20    AND $20
PRG:018AA: 1F       .byte $1F
PRG:018AB: A0 03    LDY $03
PRG:018AD: 20 AF 9B JSR $9BAF
PRG:018B0: 20 BB 9B JSR $9BBB
PRG:018B3: 88       DEY
PRG:018B4: 88       DEY
PRG:018B5: 84 05    STY $05
PRG:018B7: BC 30 07 LDY $0730
PRG:018BA: 84 06    STY $06
PRG:018BC: A6 05    LDX $05
PRG:018BE: E8       INX
PRG:018BF: B9 9F 98 LDA $989F
PRG:018C2: C9 00    CMP $00
PRG:018C4: F0 08    BEQ $08
PRG:018C6: A2 00    LDX $00
PRG:018C8: A4 05    LDY $05
PRG:018CA: 20 7D 9B JSR $9B7D
PRG:018CD: 18       CLC
PRG:018CE: A4 06    LDY $06
PRG:018D0: B9 A3 98 LDA $98A3
PRG:018D3: 9D A1 06 STA $06A1
PRG:018D6: B9 A7 98 LDA $98A7
PRG:018D9: 9D A2 06 STA $06A2
PRG:018DC: 60       RTS
PRG:018DD: 11 10    ORA $10
PRG:018DF: 15 14    ORA $14
PRG:018E1: 13       .byte $13
PRG:018E2: 12       .byte $12
PRG:018E3: 15 14    ORA $14
PRG:018E5: 20 39 99 JSR $9939
PRG:018E8: A5 00    LDA $00
PRG:018EA: F0 04    BEQ $04
PRG:018EC: C8       INY
PRG:018ED: C8       INY
PRG:018EE: C8       INY
PRG:018EF: C8       INY
PRG:018F0: 98       TYA
PRG:018F1: 48       PHA
PRG:018F2: AD 60 07 LDA $0760
PRG:018F5: 0D 5F 07 ORA $075F
PRG:018F8: F0 2B    BEQ $2B
PRG:018FA: BC 30 07 LDY $0730
PRG:018FD: F0 26    BEQ $26
PRG:018FF: 20 4A 99 JSR $994A
PRG:01902: B0 21    BCS $21
PRG:01904: 20 CB 9B JSR $9BCB
PRG:01907: 18       CLC
PRG:01908: 69 08    ADC $08
PRG:0190A: 95 87    STA $87
PRG:0190C: AD 25 07 LDA $0725
PRG:0190F: 69 00    ADC $00
PRG:01911: 95 6E    STA $6E
PRG:01913: A9 01    LDA $01
PRG:01915: 95 B6    STA $B6
PRG:01917: 95 0F    STA $0F
PRG:01919: 20 D3 9B JSR $9BD3
PRG:0191C: 95 CF    STA $CF
PRG:0191E: A9 0D    LDA $0D
PRG:01920: 95 16    STA $16
PRG:01922: 20 87 C7 JSR $C787
PRG:01925: 68       PLA
PRG:01926: A8       TAY
PRG:01927: A6 07    LDX $07
PRG:01929: B9 DD 98 LDA $98DD
PRG:0192C: 9D A1 06 STA $06A1
PRG:0192F: E8       INX
PRG:01930: B9 DF 98 LDA $98DF
PRG:01933: A4 06    LDY $06
PRG:01935: 88       DEY
PRG:01936: 4C 7D 9B JMP $9B7D
PRG:01939: A0 01    LDY $01
PRG:0193B: 20 AF 9B JSR $9BAF
PRG:0193E: 20 BB 9B JSR $9BBB
PRG:01941: 98       TYA
PRG:01942: 29 07    AND $07
PRG:01944: 85 06    STA $06
PRG:01946: BC 30 07 LDY $0730
PRG:01949: 60       RTS
PRG:0194A: A2 00    LDX $00
PRG:0194C: 18       CLC
PRG:0194D: B5 0F    LDA $0F
PRG:0194F: F0 05    BEQ $05
PRG:01951: E8       INX
PRG:01952: E0 05    CPX $05
PRG:01954: D0 F6    BNE $F6
PRG:01956: 60       RTS
PRG:01957: 20 AC 9B JSR $9BAC
PRG:0195A: A9 86    LDA $86
PRG:0195C: 8D AB 06 STA $06AB
PRG:0195F: A2 0B    LDX $0B
PRG:01961: A0 01    LDY $01
PRG:01963: A9 87    LDA $87
PRG:01965: 4C 7D 9B JMP $9B7D
PRG:01968: A9 03    LDA $03
PRG:0196A: 2C A9 07 BIT $07A9
PRG:0196D: 48       PHA
PRG:0196E: 20 AC 9B JSR $9BAC
PRG:01971: 68       PLA
PRG:01972: AA       TAX
PRG:01973: A9 C0    LDA $C0
PRG:01975: 9D A1 06 STA $06A1
PRG:01978: 60       RTS
PRG:01979: A9 06    LDA $06
PRG:0197B: 2C A9 07 BIT $07A9
PRG:0197E: 2C A9 09 BIT $09A9
PRG:01981: 48       PHA
PRG:01982: 20 AC 9B JSR $9BAC
PRG:01985: 68       PLA
PRG:01986: AA       TAX
PRG:01987: A9 0B    LDA $0B
PRG:01989: 9D A1 06 STA $06A1
PRG:0198C: E8       INX
PRG:0198D: A0 00    LDY $00
PRG:0198F: A9 63    LDA $63
PRG:01991: 4C 7D 9B JMP $9B7D
PRG:01994: 20 BB 9B JSR $9BBB
PRG:01997: A2 02    LDX $02
PRG:01999: A9 6D    LDA $6D
PRG:0199B: 4C 7D 9B JMP $9B7D
PRG:0199E: A9 24    LDA $24
PRG:019A0: 8D A1 06 STA $06A1
PRG:019A3: A2 01    LDX $01
PRG:019A5: A0 08    LDY $08
PRG:019A7: A9 25    LDA $25
PRG:019A9: 20 7D 9B JSR $9B7D
PRG:019AC: A9 61    LDA $61
PRG:019AE: 8D AB 06 STA $06AB
PRG:019B1: 20 CB 9B JSR $9BCB
PRG:019B4: 38       SEC
PRG:019B5: E9 08    SBC $08
PRG:019B7: 85 8C    STA $8C
PRG:019B9: AD 25 07 LDA $0725
PRG:019BC: E9 00    SBC $00
PRG:019BE: 85 73    STA $73
PRG:019C0: A9 30    LDA $30
PRG:019C2: 85 D4    STA $D4
PRG:019C4: A9 B0    LDA $B0
PRG:019C6: 8D 0D 01 STA $010D
PRG:019C9: A9 30    LDA $30
PRG:019CB: 85 1B    STA $1B
PRG:019CD: E6 14    INC $14
PRG:019CF: 60       RTS
PRG:019D0: A2 00    LDX $00
PRG:019D2: A0 0F    LDY $0F
PRG:019D4: 4C E9 99 JMP $99E9
PRG:019D7: 8A       TXA
PRG:019D8: 48       PHA
PRG:019D9: A2 01    LDX $01
PRG:019DB: A0 0F    LDY $0F
PRG:019DD: A9 44    LDA $44
PRG:019DF: 20 7D 9B JSR $9B7D
PRG:019E2: 68       PLA
PRG:019E3: AA       TAX
PRG:019E4: 20 BB 9B JSR $9BBB
PRG:019E7: A2 01    LDX $01
PRG:019E9: A9 40    LDA $40
PRG:019EB: 4C 7D 9B JMP $9B7D
PRG:019EE: C3       .byte $C3
PRG:019EF: C2       .byte $C2
PRG:019F0: C2       .byte $C2
PRG:019F1: C2       .byte $C2
PRG:019F2: AC 4E 07 LDY $074E
PRG:019F5: B9 EE 99 LDA $99EE
PRG:019F8: 4C 44 9A JMP $9A44
PRG:019FB: 06 07    ASL $07
PRG:019FD: 08       PHP
PRG:019FE: C5 0C    CMP $0C
PRG:01A00: 89       .byte $89
PRG:01A01: A0 0C    LDY $0C
PRG:01A03: 20 AF 9B JSR $9BAF
PRG:01A06: 4C 0E 9A JMP $9A0E
PRG:01A09: A9 08    LDA $08
PRG:01A0B: 8D 73 07 STA $0773
PRG:01A0E: A4 00    LDY $00
PRG:01A10: BE F9 99 LDX $99F9
PRG:01A13: B9 FC 99 LDA $99FC
PRG:01A16: 4C 20 9A JMP $9A20
PRG:01A19: 20 BB 9B JSR $9BBB
PRG:01A1C: A6 07    LDX $07
PRG:01A1E: A9 C4    LDA $C4
PRG:01A20: A0 00    LDY $00
PRG:01A22: 4C 7D 9B JMP $9B7D
PRG:01A25: 69 61    ADC $61
PRG:01A27: 61 62    ADC $62
PRG:01A29: 22       .byte $22
PRG:01A2A: 51 52    EOR $52
PRG:01A2C: 52       .byte $52
PRG:01A2D: 88       DEY
PRG:01A2E: AC 4E 07 LDY $074E
PRG:01A31: AD 43 07 LDA $0743
PRG:01A34: F0 02    BEQ $02
PRG:01A36: A0 04    LDY $04
PRG:01A38: B9 29 9A LDA $9A29
PRG:01A3B: 4C 44 9A JMP $9A44
PRG:01A3E: AC 4E 07 LDY $074E
PRG:01A41: B9 25 9A LDA $9A25
PRG:01A44: 48       PHA
PRG:01A45: 20 AC 9B JSR $9BAC
PRG:01A48: A6 07    LDX $07
PRG:01A4A: A0 00    LDY $00
PRG:01A4C: 68       PLA
PRG:01A4D: 4C 7D 9B JMP $9B7D
PRG:01A50: AC 4E 07 LDY $074E
PRG:01A53: B9 29 9A LDA $9A29
PRG:01A56: 4C 5F 9A JMP $9A5F
PRG:01A59: AC 4E 07 LDY $074E
PRG:01A5C: B9 25 9A LDA $9A25
PRG:01A5F: 48       PHA
PRG:01A60: 20 BB 9B JSR $9BBB
PRG:01A63: 68       PLA
PRG:01A64: A6 07    LDX $07
PRG:01A66: 4C 7D 9B JMP $9B7D
PRG:01A69: 20 BB 9B JSR $9BBB
PRG:01A6C: A6 07    LDX $07
PRG:01A6E: A9 64    LDA $64
PRG:01A70: 9D A1 06 STA $06A1
PRG:01A73: E8       INX
PRG:01A74: 88       DEY
PRG:01A75: 30 0E    BMI $0E
PRG:01A77: A9 65    LDA $65
PRG:01A79: 9D A1 06 STA $06A1
PRG:01A7C: E8       INX
PRG:01A7D: 88       DEY
PRG:01A7E: 30 05    BMI $05
PRG:01A80: A9 66    LDA $66
PRG:01A82: 20 7D 9B JSR $9B7D
PRG:01A85: AE 6A 04 LDX $046A
PRG:01A88: 20 D3 9B JSR $9BD3
PRG:01A8B: 9D 77 04 STA $0477
PRG:01A8E: AD 25 07 LDA $0725
PRG:01A91: 9D 6B 04 STA $046B
PRG:01A94: 20 CB 9B JSR $9BCB
PRG:01A97: 9D 71 04 STA $0471
PRG:01A9A: E8       INX
PRG:01A9B: E0 06    CPX $06
PRG:01A9D: 90 02    BCC $02
PRG:01A9F: A2 00    LDX $00
PRG:01AA1: 8E 6A 04 STX $046A
PRG:01AA4: 60       RTS
PRG:01AA5: 07       .byte $07
PRG:01AA6: 07       .byte $07
PRG:01AA7: 06 05    ASL $05
PRG:01AA9: 04 03    NOP $03
PRG:01AAB: 02       .byte $02
PRG:01AAC: 01 00    ORA $00
PRG:01AAE: 03       .byte $03
PRG:01AAF: 03       .byte $03
PRG:01AB0: 04 05    NOP $05
PRG:01AB2: 06 07    ASL $07
PRG:01AB4: 08       PHP
PRG:01AB5: 09 0A    ORA $0A
PRG:01AB7: 20 AC 9B JSR $9BAC
PRG:01ABA: 90 05    BCC $05
PRG:01ABC: A9 09    LDA $09
PRG:01ABE: 8D 34 07 STA $0734
PRG:01AC1: CE 34 07 DEC $0734
PRG:01AC4: AC 34 07 LDY $0734
PRG:01AC7: BE AE 9A LDX $9AAE
PRG:01ACA: B9 A5 9A LDA $9AA5
PRG:01ACD: A8       TAY
PRG:01ACE: A9 61    LDA $61
PRG:01AD0: 4C 7D 9B JMP $9B7D
PRG:01AD3: 20 BB 9B JSR $9BBB
PRG:01AD6: 20 4A 99 JSR $994A
PRG:01AD9: 20 CB 9B JSR $9BCB
PRG:01ADC: 95 87    STA $87
PRG:01ADE: AD 25 07 LDA $0725
PRG:01AE1: 95 6E    STA $6E
PRG:01AE3: 20 D3 9B JSR $9BD3
PRG:01AE6: 95 CF    STA $CF
PRG:01AE8: 95 58    STA $58
PRG:01AEA: A9 32    LDA $32
PRG:01AEC: 95 16    STA $16
PRG:01AEE: A0 01    LDY $01
PRG:01AF0: 94 B6    STY $B6
PRG:01AF2: F6 0F    INC $0F
PRG:01AF4: A6 07    LDX $07
PRG:01AF6: A9 67    LDA $67
PRG:01AF8: 9D A1 06 STA $06A1
PRG:01AFB: A9 68    LDA $68
PRG:01AFD: 9D A2 06 STA $06A2
PRG:01B00: 60       RTS
PRG:01B01: AD 5D 07 LDA $075D
PRG:01B04: F0 36    BEQ $36
PRG:01B06: A9 00    LDA $00
PRG:01B08: 8D 5D 07 STA $075D
PRG:01B0B: 4C 19 9B JMP $9B19
PRG:01B0E: 20 36 9B JSR $9B36
PRG:01B11: 4C 2C 9B JMP $9B2C
PRG:01B14: A9 00    LDA $00
PRG:01B16: 8D BC 06 STA $06BC
PRG:01B19: 20 36 9B JSR $9B36
PRG:01B1C: 84 07    STY $07
PRG:01B1E: A9 00    LDA $00
PRG:01B20: AC 4E 07 LDY $074E
PRG:01B23: 88       DEY
PRG:01B24: F0 02    BEQ $02
PRG:01B26: A9 05    LDA $05
PRG:01B28: 18       CLC
PRG:01B29: 65 07    ADC $07
PRG:01B2B: A8       TAY
PRG:01B2C: B9 E8 BD LDA $BDE8
PRG:01B2F: 48       PHA
PRG:01B30: 20 BB 9B JSR $9BBB
PRG:01B33: 4C 48 9A JMP $9A48
PRG:01B36: A5 00    LDA $00
PRG:01B38: 38       SEC
PRG:01B39: E9 00    SBC $00
PRG:01B3B: A8       TAY
PRG:01B3C: 60       RTS
PRG:01B3D: 87       .byte $87
PRG:01B3E: 00 00    BRK $00
PRG:01B40: 00 20    BRK $20
PRG:01B42: AC 9B 90 LDY $909B
PRG:01B45: 2D AD 4E AND $4EAD
PRG:01B48: 07       .byte $07
PRG:01B49: D0 28    BNE $28
PRG:01B4B: AE 6A 04 LDX $046A
PRG:01B4E: 20 CB 9B JSR $9BCB
PRG:01B51: 38       SEC
PRG:01B52: E9 10    SBC $10
PRG:01B54: 9D 71 04 STA $0471
PRG:01B57: AD 25 07 LDA $0725
PRG:01B5A: E9 00    SBC $00
PRG:01B5C: 9D 6B 04 STA $046B
PRG:01B5F: C8       INY
PRG:01B60: C8       INY
PRG:01B61: 98       TYA
PRG:01B62: 0A       ASL
PRG:01B63: 0A       ASL
PRG:01B64: 0A       ASL
PRG:01B65: 0A       ASL
PRG:01B66: 9D 77 04 STA $0477
PRG:01B69: E8       INX
PRG:01B6A: E0 05    CPX $05
PRG:01B6C: 90 02    BCC $02
PRG:01B6E: A2 00    LDX $00
PRG:01B70: 8E 6A 04 STX $046A
PRG:01B73: AE 4E 07 LDX $074E
PRG:01B76: BD 3D 9B LDA $9B3D
PRG:01B79: A2 08    LDX $08
PRG:01B7B: A0 0F    LDY $0F
PRG:01B7D: 8C 35 07 STY $0735
PRG:01B80: BC A1 06 LDY $06A1
PRG:01B83: F0 18    BEQ $18
PRG:01B85: C0 17    CPY $17
PRG:01B87: F0 17    BEQ $17
PRG:01B89: C0 1A    CPY $1A
PRG:01B8B: F0 13    BEQ $13
PRG:01B8D: C0 C0    CPY $C0
PRG:01B8F: F0 0C    BEQ $0C
PRG:01B91: C0 C0    CPY $C0
PRG:01B93: B0 0B    BCS $0B
PRG:01B95: C0 54    CPY $54
PRG:01B97: D0 04    BNE $04
PRG:01B99: C9 50    CMP $50
PRG:01B9B: F0 03    BEQ $03
PRG:01B9D: 9D A1 06 STA $06A1
PRG:01BA0: E8       INX
PRG:01BA1: E0 0D    CPX $0D
PRG:01BA3: B0 06    BCS $06
PRG:01BA5: AC 35 07 LDY $0735
PRG:01BA8: 88       DEY
PRG:01BA9: 10 D2    BPL $D2
PRG:01BAB: 60       RTS
PRG:01BAC: 20 BB 9B JSR $9BBB
PRG:01BAF: BD 30 07 LDA $0730
PRG:01BB2: 18       CLC
PRG:01BB3: 10 05    BPL $05
PRG:01BB5: 98       TYA
PRG:01BB6: 9D 30 07 STA $0730
PRG:01BB9: 38       SEC
PRG:01BBA: 60       RTS
PRG:01BBB: BC 2D 07 LDY $072D
PRG:01BBE: B1 E7    LDA $E7
PRG:01BC0: 29 0F    AND $0F
PRG:01BC2: 85 07    STA $07
PRG:01BC4: C8       INY
PRG:01BC5: B1 E7    LDA $E7
PRG:01BC7: 29 0F    AND $0F
PRG:01BC9: A8       TAY
PRG:01BCA: 60       RTS
PRG:01BCB: AD 26 07 LDA $0726
PRG:01BCE: 0A       ASL
PRG:01BCF: 0A       ASL
PRG:01BD0: 0A       ASL
PRG:01BD1: 0A       ASL
PRG:01BD2: 60       RTS
PRG:01BD3: A5 07    LDA $07
PRG:01BD5: 0A       ASL
PRG:01BD6: 0A       ASL
PRG:01BD7: 0A       ASL
PRG:01BD8: 0A       ASL
PRG:01BD9: 18       CLC
PRG:01BDA: 69 20    ADC $20
PRG:01BDC: 60       RTS
PRG:01BDD: 00 D0    BRK $D0
PRG:01BDF: 05 05    ORA $05
PRG:01BE1: 48       PHA
PRG:01BE2: 4A       LSR
PRG:01BE3: 4A       LSR
PRG:01BE4: 4A       LSR
PRG:01BE5: 4A       LSR
PRG:01BE6: A8       TAY
PRG:01BE7: B9 DF 9B LDA $9BDF
PRG:01BEA: 85 07    STA $07
PRG:01BEC: 68       PLA
PRG:01BED: 29 0F    AND $0F
PRG:01BEF: 18       CLC
PRG:01BF0: 79 DD 9B ADC $9BDD
PRG:01BF3: 85 06    STA $06
PRG:01BF5: 60       RTS
PRG:01BF6: FF       .byte $FF
PRG:01BF7: FF       .byte $FF
PRG:01BF8: 12       .byte $12
PRG:01BF9: 36 0E    ROL $0E
PRG:01BFB: 0E 0E 32 ASL $320E
PRG:01BFE: 32       .byte $32
PRG:01BFF: 32       .byte $32
PRG:01C00: 0A       ASL
PRG:01C01: 26 40    ROL $40
PRG:01C03: 20 13 9C JSR $9C13
PRG:01C06: 8D 50 07 STA $0750
PRG:01C09: 29 60    AND $60
PRG:01C0B: 0A       ASL
PRG:01C0C: 2A       ROL
PRG:01C0D: 2A       ROL
PRG:01C0E: 2A       ROL
PRG:01C0F: 8D 4E 07 STA $074E
PRG:01C12: 60       RTS
PRG:01C13: AC 5F 07 LDY $075F
PRG:01C16: B9 B4 9C LDA $9CB4
PRG:01C19: 18       CLC
PRG:01C1A: 6D 60 07 ADC $0760
PRG:01C1D: A8       TAY
PRG:01C1E: B9 BC 9C LDA $9CBC
PRG:01C21: 60       RTS
PRG:01C22: AD 50 07 LDA $0750
PRG:01C25: 20 09 9C JSR $9C09
PRG:01C28: A8       TAY
PRG:01C29: AD 50 07 LDA $0750
PRG:01C2C: 29 1F    AND $1F
PRG:01C2E: 8D 4F 07 STA $074F
PRG:01C31: B9 E0 9C LDA $9CE0
PRG:01C34: 18       CLC
PRG:01C35: 6D 4F 07 ADC $074F
PRG:01C38: A8       TAY
PRG:01C39: B9 E4 9C LDA $9CE4
PRG:01C3C: 85 E9    STA $E9
PRG:01C3E: B9 06 9D LDA $9D06
PRG:01C41: 85 EA    STA $EA
PRG:01C43: AC 4E 07 LDY $074E
PRG:01C46: B9 28 9D LDA $9D28
PRG:01C49: 18       CLC
PRG:01C4A: 6D 4F 07 ADC $074F
PRG:01C4D: A8       TAY
PRG:01C4E: B9 2C 9D LDA $9D2C
PRG:01C51: 85 E7    STA $E7
PRG:01C53: B9 4E 9D LDA $9D4E
PRG:01C56: 85 E8    STA $E8
PRG:01C58: A0 00    LDY $00
PRG:01C5A: B1 E7    LDA $E7
PRG:01C5C: 48       PHA
PRG:01C5D: 29 07    AND $07
PRG:01C5F: C9 04    CMP $04
PRG:01C61: 90 05    BCC $05
PRG:01C63: 8D 44 07 STA $0744
PRG:01C66: A9 00    LDA $00
PRG:01C68: 8D 41 07 STA $0741
PRG:01C6B: 68       PLA
PRG:01C6C: 48       PHA
PRG:01C6D: 29 38    AND $38
PRG:01C6F: 4A       LSR
PRG:01C70: 4A       LSR
PRG:01C71: 4A       LSR
PRG:01C72: 8D 10 07 STA $0710
PRG:01C75: 68       PLA
PRG:01C76: 29 C0    AND $C0
PRG:01C78: 18       CLC
PRG:01C79: 2A       ROL
PRG:01C7A: 2A       ROL
PRG:01C7B: 2A       ROL
PRG:01C7C: 8D 15 07 STA $0715
PRG:01C7F: C8       INY
PRG:01C80: B1 E7    LDA $E7
PRG:01C82: 48       PHA
PRG:01C83: 29 0F    AND $0F
PRG:01C85: 8D 27 07 STA $0727
PRG:01C88: 68       PLA
PRG:01C89: 48       PHA
PRG:01C8A: 29 30    AND $30
PRG:01C8C: 4A       LSR
PRG:01C8D: 4A       LSR
PRG:01C8E: 4A       LSR
PRG:01C8F: 4A       LSR
PRG:01C90: 8D 42 07 STA $0742
PRG:01C93: 68       PLA
PRG:01C94: 29 C0    AND $C0
PRG:01C96: 18       CLC
PRG:01C97: 2A       ROL
PRG:01C98: 2A       ROL
PRG:01C99: 2A       ROL
PRG:01C9A: C9 03    CMP $03
PRG:01C9C: D0 05    BNE $05
PRG:01C9E: 8D 43 07 STA $0743
PRG:01CA1: A9 00    LDA $00
PRG:01CA3: 8D 33 07 STA $0733
PRG:01CA6: A5 E7    LDA $E7
PRG:01CA8: 18       CLC
PRG:01CA9: 69 02    ADC $02
PRG:01CAB: 85 E7    STA $E7
PRG:01CAD: A5 E8    LDA $E8
PRG:01CAF: 69 00    ADC $00
PRG:01CB1: 85 E8    STA $E8
PRG:01CB3: 60       RTS
PRG:01CB4: 00 05    BRK $05
PRG:01CB6: 0A       ASL
PRG:01CB7: 0E 13 17 ASL $1713
PRG:01CBA: 1B       .byte $1B
PRG:01CBB: 20 25 29 JSR $2925
PRG:01CBE: C0 26    CPY $26
PRG:01CC0: 60       RTS
PRG:01CC1: 28       PLP
PRG:01CC2: 29 01    AND $01
PRG:01CC4: 27       .byte $27
PRG:01CC5: 62       .byte $62
PRG:01CC6: 24 35    BIT $35
PRG:01CC8: 20 63 22 JSR $2263
PRG:01CCB: 29 41    AND $41
PRG:01CCD: 2C 61 2A BIT $2A61
PRG:01CD0: 31 26    AND $26
PRG:01CD2: 62       .byte $62
PRG:01CD3: 2E 23 2D ROL $2D23
PRG:01CD6: 60       RTS
PRG:01CD7: 33       .byte $33
PRG:01CD8: 29 01    AND $01
PRG:01CDA: 27       .byte $27
PRG:01CDB: 64 30    NOP $30
PRG:01CDD: 32       .byte $32
PRG:01CDE: 21 65    AND $65
PRG:01CE0: 1F       .byte $1F
PRG:01CE1: 06 1C    ASL $1C
PRG:01CE3: 00 70    BRK $70
PRG:01CE5: 97       .byte $97
PRG:01CE6: B0 DF    BCS $DF
PRG:01CE8: 0A       ASL
PRG:01CE9: 1F       .byte $1F
PRG:01CEA: 59 7E 9B EOR $9B7E
PRG:01CED: A9 D0    LDA $D0
PRG:01CEF: 01 1F    ORA $1F
PRG:01CF1: 3C 51 7B NOP $7B51
PRG:01CF4: 7C A0 A9 NOP $A9A0
PRG:01CF7: CE F1 FA DEC $FAF1
PRG:01CFA: FB       .byte $FB
PRG:01CFB: 35 60    AND $60
PRG:01CFD: 8E AA B3 STX $B3AA
PRG:01D00: D8       CLD
PRG:01D01: 05 33    ORA $33
PRG:01D03: 60       RTS
PRG:01D04: 71 9B    ADC $9B
PRG:01D06: 9D 9D 9D STA $9D9D
PRG:01D09: 9D 9E 9E STA $9E9E
PRG:01D0C: 9E       .byte $9E
PRG:01D0D: 9E       .byte $9E
PRG:01D0E: 9E       .byte $9E
PRG:01D0F: 9E       .byte $9E
PRG:01D10: 9E       .byte $9E
PRG:01D11: 9F       .byte $9F
PRG:01D12: 9F       .byte $9F
PRG:01D13: 9F       .byte $9F
PRG:01D14: 9F       .byte $9F
PRG:01D15: 9F       .byte $9F
PRG:01D16: 9F       .byte $9F
PRG:01D17: 9F       .byte $9F
PRG:01D18: 9F       .byte $9F
PRG:01D19: 9F       .byte $9F
PRG:01D1A: 9F       .byte $9F
PRG:01D1B: 9F       .byte $9F
PRG:01D1C: 9F       .byte $9F
PRG:01D1D: A0 A0    LDY $A0
PRG:01D1F: A0 A0    LDY $A0
PRG:01D21: A0 A0    LDY $A0
PRG:01D23: A1 A1    LDA $A1
PRG:01D25: A1 A1    LDA $A1
PRG:01D27: A1 00    LDA $00
PRG:01D29: 03       .byte $03
PRG:01D2A: 19 1C 06 ORA $061C
PRG:01D2D: 45 C0    EOR $C0
PRG:01D2F: 6B       .byte $6B
PRG:01D30: CE 37 8A DEC $8A37
PRG:01D33: 19 8E F3 ORA $F38E
PRG:01D36: 48       PHA
PRG:01D37: CD 32 3B CMP $3B32
PRG:01D3A: 7A       NOP
PRG:01D3B: 8F       .byte $8F
PRG:01D3C: F6 5B    INC $5B
PRG:01D3E: CE FF 92 DEC $92FF
PRG:01D41: 05 7E    ORA $7E
PRG:01D43: D7       .byte $D7
PRG:01D44: 02       .byte $02
PRG:01D45: 35 D8    AND $D8
PRG:01D47: 79 AF 10 ADC $10AF
PRG:01D4A: 8F       .byte $8F
PRG:01D4B: 02       .byte $02
PRG:01D4C: 6F       .byte $6F
PRG:01D4D: FA       NOP
PRG:01D4E: AE AE AE LDX $AEAE
PRG:01D51: A4 A4    LDY $A4
PRG:01D53: A5 A5    LDA $A5
PRG:01D55: A6 A6    LDX $A6
PRG:01D57: A6 A7    LDX $A7
PRG:01D59: A7       .byte $A7
PRG:01D5A: A8       TAY
PRG:01D5B: A8       TAY
PRG:01D5C: A8       TAY
PRG:01D5D: A8       TAY
PRG:01D5E: A8       TAY
PRG:01D5F: A9 A9    LDA $A9
PRG:01D61: A9 AA    LDA $AA
PRG:01D63: AB       .byte $AB
PRG:01D64: AB       .byte $AB
PRG:01D65: AB       .byte $AB
PRG:01D66: AC AC AC LDY $ACAC
PRG:01D69: AD A1 A2 LDA $A2A1
PRG:01D6C: A2 A3    LDX $A3
PRG:01D6E: A3       .byte $A3
PRG:01D6F: A3       .byte $A3
PRG:01D70: 76 DD    ROR $DD
PRG:01D72: BB       .byte $BB
PRG:01D73: 4C EA 1D JMP $1DEA
PRG:01D76: 1B       .byte $1B
PRG:01D77: CC 56 5D CPY $5D56
PRG:01D7A: 16 9D    ASL $9D
PRG:01D7C: C6 1D    DEC $1D
PRG:01D7E: 36 9D    ROL $9D
PRG:01D80: C9 1D    CMP $1D
PRG:01D82: 04 DB    NOP $DB
PRG:01D84: 49 1D    EOR $1D
PRG:01D86: 84 1B    STY $1B
PRG:01D88: C9 5D    CMP $5D
PRG:01D8A: 88       DEY
PRG:01D8B: 95 0F    STA $0F
PRG:01D8D: 08       PHP
PRG:01D8E: 30 4C    BMI $4C
PRG:01D90: 78       SEI
PRG:01D91: 2D A6 28 AND $28A6
PRG:01D94: 90 B5    BCC $B5
PRG:01D96: FF       .byte $FF
PRG:01D97: 0F       .byte $0F
PRG:01D98: 03       .byte $03
PRG:01D99: 56 1B    LSR $1B
PRG:01D9B: C9 1B    CMP $1B
PRG:01D9D: 0F       .byte $0F
PRG:01D9E: 07       .byte $07
PRG:01D9F: 36 1B    ROL $1B
PRG:01DA1: AA       TAX
PRG:01DA2: 1B       .byte $1B
PRG:01DA3: 48       PHA
PRG:01DA4: 95 0F    STA $0F
PRG:01DA6: 0A       ASL
PRG:01DA7: 2A       ROL
PRG:01DA8: 1B       .byte $1B
PRG:01DA9: 5B       .byte $5B
PRG:01DAA: 0C 78 2D NOP $2D78
PRG:01DAD: 90 B5    BCC $B5
PRG:01DAF: FF       .byte $FF
PRG:01DB0: 0B       .byte $0B
PRG:01DB1: 8C 4B 4C STY $4C4B
PRG:01DB4: 77       .byte $77
PRG:01DB5: 5F       .byte $5F
PRG:01DB6: EB       .byte $EB
PRG:01DB7: 0C BD DB NOP $DBBD
PRG:01DBA: 19 9D 75 ORA $759D
PRG:01DBD: 1D 7D 5B ORA $5B7D
PRG:01DC0: D9 1D 3D CMP $3D1D
PRG:01DC3: DD 99 1D CMP $1D99
PRG:01DC6: 26 9D    ROL $9D
PRG:01DC8: 5A       NOP
PRG:01DC9: 2B       .byte $2B
PRG:01DCA: 8A       TXA
PRG:01DCB: 2C CA 1B BIT $1BCA
PRG:01DCE: 20 95 7B JSR $7B95
PRG:01DD1: 5C DB 4C NOP $4CDB
PRG:01DD4: 1B       .byte $1B
PRG:01DD5: CC 3B CC CPY $CC3B
PRG:01DD8: 78       SEI
PRG:01DD9: 2D A6 28 AND $28A6
PRG:01DDC: 90 B5    BCC $B5
PRG:01DDE: FF       .byte $FF
PRG:01DDF: 0B       .byte $0B
PRG:01DE0: 8C 3B 1D STY $1D3B
PRG:01DE3: 8B       .byte $8B
PRG:01DE4: 1D AB 0C ORA $0CAB
PRG:01DE7: DB       .byte $DB
PRG:01DE8: 1D 0F 03 ORA $030F
PRG:01DEB: 65 1D    ADC $1D
PRG:01DED: 6B       .byte $6B
PRG:01DEE: 1B       .byte $1B
PRG:01DEF: 05 9D    ORA $9D
PRG:01DF1: 0B       .byte $0B
PRG:01DF2: 1B       .byte $1B
PRG:01DF3: 05 9B    ORA $9B
PRG:01DF5: 0B       .byte $0B
PRG:01DF6: 1D 8B 0C ORA $0C8B
PRG:01DF9: 1B       .byte $1B
PRG:01DFA: 8C 70 15 STY $1570
PRG:01DFD: 7B       .byte $7B
PRG:01DFE: 0C DB 0C NOP $0CDB
PRG:01E01: 0F       .byte $0F
PRG:01E02: 08       PHP
PRG:01E03: 78       SEI
PRG:01E04: 2D A6 28 AND $28A6
PRG:01E07: 90 B5    BCC $B5
PRG:01E09: FF       .byte $FF
PRG:01E0A: 27       .byte $27
PRG:01E0B: A9 4B    LDA $4B
PRG:01E0D: 0C 68 29 NOP $2968
PRG:01E10: 0F       .byte $0F
PRG:01E11: 06 77    ASL $77
PRG:01E13: 1B       .byte $1B
PRG:01E14: 0F       .byte $0F
PRG:01E15: 0B       .byte $0B
PRG:01E16: 60       RTS
PRG:01E17: 15 4B    ORA $4B
PRG:01E19: 8C 78 2D STY $2D78
PRG:01E1C: 90 B5    BCC $B5
PRG:01E1E: FF       .byte $FF
PRG:01E1F: 0F       .byte $0F
PRG:01E20: 03       .byte $03
PRG:01E21: 8E 65 E1 STX $E165
PRG:01E24: BB       .byte $BB
PRG:01E25: 38       SEC
PRG:01E26: 6D A8 3E ADC $3EA8
PRG:01E29: E5 E7    SBC $E7
PRG:01E2B: 0F       .byte $0F
PRG:01E2C: 08       PHP
PRG:01E2D: 0B       .byte $0B
PRG:01E2E: 02       .byte $02
PRG:01E2F: 2B       .byte $2B
PRG:01E30: 02       .byte $02
PRG:01E31: 5E 65 E1 LSR $E165
PRG:01E34: BB       .byte $BB
PRG:01E35: 0E DB 0E ASL $0EDB
PRG:01E38: BB       .byte $BB
PRG:01E39: 8E DB 0E STX $0EDB
PRG:01E3C: FE 65 EC INC $EC65
PRG:01E3F: 0F       .byte $0F
PRG:01E40: 0D 4E 65 ORA $654E
PRG:01E43: E1 0F    SBC $0F
PRG:01E45: 0E 4E 02 ASL $024E
PRG:01E48: E0 0F    CPX $0F
PRG:01E4A: 10 FE    BPL $FE
PRG:01E4C: E5 E1    SBC $E1
PRG:01E4E: 1B       .byte $1B
PRG:01E4F: 85 7B    STA $7B
PRG:01E51: 0C 5B 95 NOP $955B
PRG:01E54: 78       SEI
PRG:01E55: 2D 90 B5 AND $B590
PRG:01E58: FF       .byte $FF
PRG:01E59: A5 86    LDA $86
PRG:01E5B: E4 28    CPX $28
PRG:01E5D: 18       CLC
PRG:01E5E: A8       TAY
PRG:01E5F: 45 83    EOR $83
PRG:01E61: 69 03    ADC $03
PRG:01E63: C6 29    DEC $29
PRG:01E65: 9B       .byte $9B
PRG:01E66: 83       .byte $83
PRG:01E67: 16 A4    ASL $A4
PRG:01E69: 88       DEY
PRG:01E6A: 24 E9    BIT $E9
PRG:01E6C: 28       PLP
PRG:01E6D: 05 A8    ORA $A8
PRG:01E6F: 7B       .byte $7B
PRG:01E70: 28       PLP
PRG:01E71: 24 8F    BIT $8F
PRG:01E73: C8       INY
PRG:01E74: 03       .byte $03
PRG:01E75: E8       INX
PRG:01E76: 03       .byte $03
PRG:01E77: 46 A8    LSR $A8
PRG:01E79: 85 24    STA $24
PRG:01E7B: C8       INY
PRG:01E7C: 24 FF    BIT $FF
PRG:01E7E: EB       .byte $EB
PRG:01E7F: 8E 0F 03 STX $030F
PRG:01E82: FB       .byte $FB
PRG:01E83: 05 17    ORA $17
PRG:01E85: 85 DB    STA $DB
PRG:01E87: 8E 0F 07 STX $070F
PRG:01E8A: 57       .byte $57
PRG:01E8B: 05 7B    ORA $7B
PRG:01E8D: 05 9B    ORA $9B
PRG:01E8F: 80 2B    NOP $2B
PRG:01E91: 85 FB    STA $FB
PRG:01E93: 05 0F    ORA $0F
PRG:01E95: 0B       .byte $0B
PRG:01E96: 1B       .byte $1B
PRG:01E97: 05 9B    ORA $9B
PRG:01E99: 05 FF    ORA $FF
PRG:01E9B: 2E C2 66 ROL $66C2
PRG:01E9E: E2       .byte $E2
PRG:01E9F: 11 0F    ORA $0F
PRG:01EA1: 07       .byte $07
PRG:01EA2: 02       .byte $02
PRG:01EA3: 11 0F    ORA $0F
PRG:01EA5: 0C 12 11 NOP $1112
PRG:01EA8: FF       .byte $FF
PRG:01EA9: 0E C2 A8 ASL $A8C2
PRG:01EAC: AB       .byte $AB
PRG:01EAD: 00 BB    BRK $BB
PRG:01EAF: 8E 6B 82 STX $826B
PRG:01EB2: DE 00 A0 DEC $A000
PRG:01EB5: 33       .byte $33
PRG:01EB6: 86 43    STX $43
PRG:01EB8: 06 3E    ASL $3E
PRG:01EBA: B4 A0    LDY $A0
PRG:01EBC: CB       .byte $CB
PRG:01EBD: 02       .byte $02
PRG:01EBE: 0F       .byte $0F
PRG:01EBF: 07       .byte $07
PRG:01EC0: 7E 42 A6 ROR $A642
PRG:01EC3: 83       .byte $83
PRG:01EC4: 02       .byte $02
PRG:01EC5: 0F       .byte $0F
PRG:01EC6: 0A       ASL
PRG:01EC7: 3B       .byte $3B
PRG:01EC8: 02       .byte $02
PRG:01EC9: CB       .byte $CB
PRG:01ECA: 37       .byte $37
PRG:01ECB: 0F       .byte $0F
PRG:01ECC: 0C E3 0E NOP $0EE3
PRG:01ECF: FF       .byte $FF
PRG:01ED0: 9B       .byte $9B
PRG:01ED1: 8E CA 0E STX $0ECA
PRG:01ED4: EE 42 44 INC $4442
PRG:01ED7: 5B       .byte $5B
PRG:01ED8: 86 80    STX $80
PRG:01EDA: B8       CLV
PRG:01EDB: 1B       .byte $1B
PRG:01EDC: 80 50    NOP $50
PRG:01EDE: BA       TSX
PRG:01EDF: 10 B7    BPL $B7
PRG:01EE1: 5B       .byte $5B
PRG:01EE2: 00 17    BRK $17
PRG:01EE4: 85 4B    STA $4B
PRG:01EE6: 05 FE    ORA $FE
PRG:01EE8: 34 40    NOP $40
PRG:01EEA: B7       .byte $B7
PRG:01EEB: 86 C6    STX $C6
PRG:01EED: 06 5B    ASL $5B
PRG:01EEF: 80 83    NOP $83
PRG:01EF1: 00 D0    BRK $D0
PRG:01EF3: 38       SEC
PRG:01EF4: 5B       .byte $5B
PRG:01EF5: 8E 8A 0E STX $0E8A
PRG:01EF8: A6 00    LDX $00
PRG:01EFA: BB       .byte $BB
PRG:01EFB: 0E C5 80 ASL $80C5
PRG:01EFE: F3       .byte $F3
PRG:01EFF: 00 FF    BRK $FF
PRG:01F01: 1E C2 00 ASL $00C2
PRG:01F04: 6B       .byte $6B
PRG:01F05: 06 8B    ASL $8B
PRG:01F07: 86 63    STX $63
PRG:01F09: B7       .byte $B7
PRG:01F0A: 0F       .byte $0F
PRG:01F0B: 05 03    ORA $03
PRG:01F0D: 06 23    ASL $23
PRG:01F0F: 06 4B    ASL $4B
PRG:01F11: B7       .byte $B7
PRG:01F12: BB       .byte $BB
PRG:01F13: 00 5B    BRK $5B
PRG:01F15: B7       .byte $B7
PRG:01F16: FB       .byte $FB
PRG:01F17: 37       .byte $37
PRG:01F18: 3B       .byte $3B
PRG:01F19: B7       .byte $B7
PRG:01F1A: 0F       .byte $0F
PRG:01F1B: 0B       .byte $0B
PRG:01F1C: 1B       .byte $1B
PRG:01F1D: 37       .byte $37
PRG:01F1E: FF       .byte $FF
PRG:01F1F: 2B       .byte $2B
PRG:01F20: D7       .byte $D7
PRG:01F21: E3       .byte $E3
PRG:01F22: 03       .byte $03
PRG:01F23: C2       .byte $C2
PRG:01F24: 86 E2    STX $E2
PRG:01F26: 06 76    ASL $76
PRG:01F28: A5 A3    LDA $A3
PRG:01F2A: 8F       .byte $8F
PRG:01F2B: 03       .byte $03
PRG:01F2C: 86 2B    STX $2B
PRG:01F2E: 57       .byte $57
PRG:01F2F: 68       PLA
PRG:01F30: 28       PLP
PRG:01F31: E9 28    SBC $28
PRG:01F33: E5 83    SBC $83
PRG:01F35: 24 8F    BIT $8F
PRG:01F37: 36 A8    ROL $A8
PRG:01F39: 5B       .byte $5B
PRG:01F3A: 03       .byte $03
PRG:01F3B: FF       .byte $FF
PRG:01F3C: 0F       .byte $0F
PRG:01F3D: 02       .byte $02
PRG:01F3E: 78       SEI
PRG:01F3F: 40       RTI
PRG:01F40: 48       PHA
PRG:01F41: CE F8 C3 DEC $C3F8
PRG:01F44: F8       SED
PRG:01F45: C3       .byte $C3
PRG:01F46: 0F       .byte $0F
PRG:01F47: 07       .byte $07
PRG:01F48: 7B       .byte $7B
PRG:01F49: 43       .byte $43
PRG:01F4A: C6 D0    DEC $D0
PRG:01F4C: 0F       .byte $0F
PRG:01F4D: 8A       TXA
PRG:01F4E: C8       INY
PRG:01F4F: 50 FF    BVC $FF
PRG:01F51: 85 86    STA $86
PRG:01F53: 0B       .byte $0B
PRG:01F54: 80 1B    NOP $1B
PRG:01F56: 00 DB    BRK $DB
PRG:01F58: 37       .byte $37
PRG:01F59: 77       .byte $77
PRG:01F5A: 80 EB    NOP $EB
PRG:01F5C: 37       .byte $37
PRG:01F5D: FE 2B 20 INC $202B
PRG:01F60: 2B       .byte $2B
PRG:01F61: 80 7B    NOP $7B
PRG:01F63: 38       SEC
PRG:01F64: AB       .byte $AB
PRG:01F65: B8       CLV
PRG:01F66: 77       .byte $77
PRG:01F67: 86 FE    STX $FE
PRG:01F69: 42       .byte $42
PRG:01F6A: 20 49 86 JSR $8649
PRG:01F6D: 8B       .byte $8B
PRG:01F6E: 06 9B    ASL $9B
PRG:01F70: 80 7B    NOP $7B
PRG:01F72: 8E 5B B7 STX $B75B
PRG:01F75: 9B       .byte $9B
PRG:01F76: 0E BB 0E ASL $0EBB
PRG:01F79: 9B       .byte $9B
PRG:01F7A: 80 FF    NOP $FF
PRG:01F7C: 0B       .byte $0B
PRG:01F7D: 80 60    NOP $60
PRG:01F7F: 38       SEC
PRG:01F80: 10 B8    BPL $B8
PRG:01F82: C0 3B    CPY $3B
PRG:01F84: DB       .byte $DB
PRG:01F85: 8E 40 B8 STX $B840
PRG:01F88: F0 38    BEQ $38
PRG:01F8A: 7B       .byte $7B
PRG:01F8B: 8E A0 B8 STX $B8A0
PRG:01F8E: C0 B8    CPY $B8
PRG:01F90: FB       .byte $FB
PRG:01F91: 00 A0    BRK $A0
PRG:01F93: B8       CLV
PRG:01F94: 30 BB    BMI $BB
PRG:01F96: EE 42 88 INC $8842
PRG:01F99: 0F       .byte $0F
PRG:01F9A: 0B       .byte $0B
PRG:01F9B: 2B       .byte $2B
PRG:01F9C: 0E 67 0E ASL $0E67
PRG:01F9F: FF       .byte $FF
PRG:01FA0: 0A       ASL
PRG:01FA1: AA       TAX
PRG:01FA2: 0E 28 2A ASL $2A28
PRG:01FA5: 0E 31 88 ASL $8831
PRG:01FA8: FF       .byte $FF
PRG:01FA9: C7       .byte $C7
PRG:01FAA: 83       .byte $83
PRG:01FAB: D7       .byte $D7
PRG:01FAC: 03       .byte $03
PRG:01FAD: 42       .byte $42
PRG:01FAE: 8F       .byte $8F
PRG:01FAF: 7A       NOP
PRG:01FB0: 03       .byte $03
PRG:01FB1: 05 A4    ORA $A4
PRG:01FB3: 78       SEI
PRG:01FB4: 24 A6    BIT $A6
PRG:01FB6: 25 E4    AND $E4
PRG:01FB8: 25 4B    AND $4B
PRG:01FBA: 83       .byte $83
PRG:01FBB: E3       .byte $E3
PRG:01FBC: 03       .byte $03
PRG:01FBD: 05 A4    ORA $A4
PRG:01FBF: 89       .byte $89
PRG:01FC0: 24 B5    BIT $B5
PRG:01FC2: 24 09    BIT $09
PRG:01FC4: A4 65    LDY $65
PRG:01FC6: 24 C9    BIT $C9
PRG:01FC8: 24 0F    BIT $0F
PRG:01FCA: 08       PHP
PRG:01FCB: 85 25    STA $25
PRG:01FCD: FF       .byte $FF
PRG:01FCE: CD A5 B5 CMP $B5A5
PRG:01FD1: A8       TAY
PRG:01FD2: 07       .byte $07
PRG:01FD3: A8       TAY
PRG:01FD4: 76 28    ROR $28
PRG:01FD6: CC 25 65 CPY $6525
PRG:01FD9: A4 A9    LDY $A9
PRG:01FDB: 24 E5    BIT $E5
PRG:01FDD: 24 19    BIT $19
PRG:01FDF: A4 0F    LDY $0F
PRG:01FE1: 07       .byte $07
PRG:01FE2: 95 28    STA $28
PRG:01FE4: E6 24    INC $24
PRG:01FE6: 19 A4 D7 ORA $D7A4
PRG:01FE9: 29 16    AND $16
PRG:01FEB: A9 58    LDA $58
PRG:01FED: 29 97    AND $97
PRG:01FEF: 29 FF    AND $FF
PRG:01FF1: 0F       .byte $0F
PRG:01FF2: 02       .byte $02
PRG:01FF3: 02       .byte $02
PRG:01FF4: 11 0F    ORA $0F
PRG:01FF6: 07       .byte $07
PRG:01FF7: 02       .byte $02
PRG:01FF8: 11 FF    ORA $FF
PRG:01FFA: FF       .byte $FF
PRG:01FFB: 2B       .byte $2B
PRG:01FFC: 82       .byte $82
PRG:01FFD: AB       .byte $AB
PRG:01FFE: 38       SEC
PRG:01FFF: DE 42 E2 DEC $E242
PRG:02002: 1B       .byte $1B
PRG:02003: B8       CLV
PRG:02004: EB       .byte $EB
PRG:02005: 3B       .byte $3B
PRG:02006: DB       .byte $DB
PRG:02007: 80 8B    NOP $8B
PRG:02009: B8       CLV
PRG:0200A: 1B       .byte $1B
PRG:0200B: 82       .byte $82
PRG:0200C: FB       .byte $FB
PRG:0200D: B8       CLV
PRG:0200E: 7B       .byte $7B
PRG:0200F: 80 FB    NOP $FB
PRG:02011: 3C 5B BC NOP $BC5B
PRG:02014: 7B       .byte $7B
PRG:02015: B8       CLV
PRG:02016: 1B       .byte $1B
PRG:02017: 8E CB 0E STX $0ECB
PRG:0201A: 1B       .byte $1B
PRG:0201B: 8E 0F 0D STX $0D0F
PRG:0201E: 2B       .byte $2B
PRG:0201F: 3B       .byte $3B
PRG:02020: BB       .byte $BB
PRG:02021: B8       CLV
PRG:02022: EB       .byte $EB
PRG:02023: 82       .byte $82
PRG:02024: 4B       .byte $4B
PRG:02025: B8       CLV
PRG:02026: BB       .byte $BB
PRG:02027: 38       SEC
PRG:02028: 3B       .byte $3B
PRG:02029: B7       .byte $B7
PRG:0202A: BB       .byte $BB
PRG:0202B: 02       .byte $02
PRG:0202C: 0F       .byte $0F
PRG:0202D: 13       .byte $13
PRG:0202E: 1B       .byte $1B
PRG:0202F: 00 CB    BRK $CB
PRG:02031: 80 6B    NOP $6B
PRG:02033: BC FF 7B LDY $7BFF
PRG:02036: 80 AE    NOP $AE
PRG:02038: 00 80    BRK $80
PRG:0203A: 8B       .byte $8B
PRG:0203B: 8E E8 05 STX $05E8
PRG:0203E: F9 86 17 SBC $1786
PRG:02041: 86 16    STX $16
PRG:02043: 85 4E    STA $4E
PRG:02045: 2B       .byte $2B
PRG:02046: 80 AB    NOP $AB
PRG:02048: 8E 87 85 STX $8587
PRG:0204B: C3       .byte $C3
PRG:0204C: 05 8B    ORA $8B
PRG:0204E: 82       .byte $82
PRG:0204F: 9B       .byte $9B
PRG:02050: 02       .byte $02
PRG:02051: AB       .byte $AB
PRG:02052: 02       .byte $02
PRG:02053: BB       .byte $BB
PRG:02054: 86 CB    STX $CB
PRG:02056: 06 D3    ASL $D3
PRG:02058: 03       .byte $03
PRG:02059: 3B       .byte $3B
PRG:0205A: 8E 6B 0E STX $0E6B
PRG:0205D: A7       .byte $A7
PRG:0205E: 8E FF 29 STX $29FF
PRG:02061: 8E 52 11 STX $1152
PRG:02064: 83       .byte $83
PRG:02065: 0E 0F 03 ASL $030F
PRG:02068: 9B       .byte $9B
PRG:02069: 0E 2B 8E ASL $8E2B
PRG:0206C: 5B       .byte $5B
PRG:0206D: 0E CB 8E ASL $8ECB
PRG:02070: FB       .byte $FB
PRG:02071: 0E FB 82 ASL $82FB
PRG:02074: 9B       .byte $9B
PRG:02075: 82       .byte $82
PRG:02076: BB       .byte $BB
PRG:02077: 02       .byte $02
PRG:02078: FE 42 E8 INC $E842
PRG:0207B: BB       .byte $BB
PRG:0207C: 8E 0F 0A STX $0A0F
PRG:0207F: AB       .byte $AB
PRG:02080: 0E CB 0E ASL $0ECB
PRG:02083: F9 0E 88 SBC $880E
PRG:02086: 86 A6    STX $A6
PRG:02088: 06 DB    ASL $DB
PRG:0208A: 02       .byte $02
PRG:0208B: B6 8E    LDX $8E
PRG:0208D: FF       .byte $FF
PRG:0208E: AB       .byte $AB
PRG:0208F: CE DE 42 DEC $42DE
PRG:02092: C0 CB    CPY $CB
PRG:02094: CE 5B 8E DEC $8E5B
PRG:02097: 1B       .byte $1B
PRG:02098: CE 4B 85 DEC $854B
PRG:0209B: 67       .byte $67
PRG:0209C: 45 0F    EOR $0F
PRG:0209E: 07       .byte $07
PRG:0209F: 2B       .byte $2B
PRG:020A0: 00 7B    BRK $7B
PRG:020A2: 85 97    STA $97
PRG:020A4: 05 0F    ORA $0F
PRG:020A6: 0A       ASL
PRG:020A7: 92       .byte $92
PRG:020A8: 02       .byte $02
PRG:020A9: FF       .byte $FF
PRG:020AA: 0A       ASL
PRG:020AB: AA       TAX
PRG:020AC: 0E 24 4A ASL $4A24
PRG:020AF: 1E 23 AA ASL $AA23
PRG:020B2: FF       .byte $FF
PRG:020B3: 1B       .byte $1B
PRG:020B4: 80 BB    NOP $BB
PRG:020B6: 38       SEC
PRG:020B7: 4B       .byte $4B
PRG:020B8: BC EB 3B LDY $3BEB
PRG:020BB: 0F       .byte $0F
PRG:020BC: 04 2B    NOP $2B
PRG:020BE: 00 AB    BRK $AB
PRG:020C0: 38       SEC
PRG:020C1: EB       .byte $EB
PRG:020C2: 00 CB    BRK $CB
PRG:020C4: 8E FB 80 STX $80FB
PRG:020C7: AB       .byte $AB
PRG:020C8: B8       CLV
PRG:020C9: 6B       .byte $6B
PRG:020CA: 80 FB    NOP $FB
PRG:020CC: 3C 9B BB NOP $BB9B
PRG:020CF: 5B       .byte $5B
PRG:020D0: BC FB 00 LDY $00FB
PRG:020D3: 6B       .byte $6B
PRG:020D4: B8       CLV
PRG:020D5: FB       .byte $FB
PRG:020D6: 38       SEC
PRG:020D7: FF       .byte $FF
PRG:020D8: 0B       .byte $0B
PRG:020D9: 86 1A    STX $1A
PRG:020DB: 06 DB    ASL $DB
PRG:020DD: 06 DE    ASL $DE
PRG:020DF: C2       .byte $C2
PRG:020E0: 02       .byte $02
PRG:020E1: F0 3B    BEQ $3B
PRG:020E3: BB       .byte $BB
PRG:020E4: 80 EB    NOP $EB
PRG:020E6: 06 0B    ASL $0B
PRG:020E8: 86 93    STX $93
PRG:020EA: 06 F0    ASL $F0
PRG:020EC: 39 0F 06 AND $060F
PRG:020EF: 60       RTS
PRG:020F0: B8       CLV
PRG:020F1: 1B       .byte $1B
PRG:020F2: 86 A0    STX $A0
PRG:020F4: B9 B7 27 LDA $27B7
PRG:020F7: BD 27 2B LDA $2B27
PRG:020FA: 83       .byte $83
PRG:020FB: A1 26    LDA $26
PRG:020FD: A9 26    LDA $26
PRG:020FF: EE 25 0B INC $0B25
PRG:02102: 27       .byte $27
PRG:02103: B4 FF    LDY $FF
PRG:02105: 0F       .byte $0F
PRG:02106: 02       .byte $02
PRG:02107: 1E 2F 60 ASL $602F
PRG:0210A: E0 3A    CPX $3A
PRG:0210C: A5 A7    LDA $A7
PRG:0210E: DB       .byte $DB
PRG:0210F: 80 3B    NOP $3B
PRG:02111: 82       .byte $82
PRG:02112: 8B       .byte $8B
PRG:02113: 02       .byte $02
PRG:02114: FE 42 68 INC $6842
PRG:02117: 70 BB    BVS $BB
PRG:02119: 25 A7    AND $A7
PRG:0211B: 2C 27 B2 BIT $B227
PRG:0211E: 26 B9    ROL $B9
PRG:02120: 26 9B    ROL $9B
PRG:02122: 80 A8    NOP $A8
PRG:02124: 82       .byte $82
PRG:02125: B5 27    LDA $27
PRG:02127: BC 27 B0 LDY $B027
PRG:0212A: BB       .byte $BB
PRG:0212B: 3B       .byte $3B
PRG:0212C: 82       .byte $82
PRG:0212D: 87       .byte $87
PRG:0212E: 34 EE    NOP $EE
PRG:02130: 25 6B    AND $6B
PRG:02132: FF       .byte $FF
PRG:02133: 1E A5 0A ASL $0AA5
PRG:02136: 2E 28 27 ROL $2728
PRG:02139: 2E 33 C7 ROL $C733
PRG:0213C: 0F       .byte $0F
PRG:0213D: 03       .byte $03
PRG:0213E: 1E 40 07 ASL $0740
PRG:02141: 2E 30 E7 ROL $E730
PRG:02144: 0F       .byte $0F
PRG:02145: 05 1E    ORA $1E
PRG:02147: 24 44    BIT $44
PRG:02149: 0F       .byte $0F
PRG:0214A: 07       .byte $07
PRG:0214B: 1E 22 6A ASL $6A22
PRG:0214E: 2E 23 AB ROL $AB23
PRG:02151: 0F       .byte $0F
PRG:02152: 09 1E    ORA $1E
PRG:02154: 41 68    EOR $68
PRG:02156: 1E 2A 8A ASL $8A2A
PRG:02159: 2E 23 A2 ROL $A223
PRG:0215C: 2E 32 EA ROL $EA32
PRG:0215F: FF       .byte $FF
PRG:02160: 3B       .byte $3B
PRG:02161: 87       .byte $87
PRG:02162: 66 27    ROR $27
PRG:02164: CC 27 EE CPY $EE27
PRG:02167: 31 87    AND $87
PRG:02169: EE 23 A7 INC $A723
PRG:0216C: 3B       .byte $3B
PRG:0216D: 87       .byte $87
PRG:0216E: DB       .byte $DB
PRG:0216F: 07       .byte $07
PRG:02170: FF       .byte $FF
PRG:02171: 0F       .byte $0F
PRG:02172: 01 2E    ORA $2E
PRG:02174: 25 2B    AND $2B
PRG:02176: 2E 25 4B ROL $4B25
PRG:02179: 4E 25 CB LSR $CB25
PRG:0217C: 6B       .byte $6B
PRG:0217D: 07       .byte $07
PRG:0217E: 97       .byte $97
PRG:0217F: 47       .byte $47
PRG:02180: E9 87    SBC $87
PRG:02182: 47       .byte $47
PRG:02183: C7       .byte $C7
PRG:02184: 7A       NOP
PRG:02185: 07       .byte $07
PRG:02186: D6 C7    DEC $C7
PRG:02188: 78       SEI
PRG:02189: 07       .byte $07
PRG:0218A: 38       SEC
PRG:0218B: 87       .byte $87
PRG:0218C: AB       .byte $AB
PRG:0218D: 47       .byte $47
PRG:0218E: E3       .byte $E3
PRG:0218F: 07       .byte $07
PRG:02190: 9B       .byte $9B
PRG:02191: 87       .byte $87
PRG:02192: 0F       .byte $0F
PRG:02193: 09 68    ORA $68
PRG:02195: 47       .byte $47
PRG:02196: DB       .byte $DB
PRG:02197: C7       .byte $C7
PRG:02198: 3B       .byte $3B
PRG:02199: C7       .byte $C7
PRG:0219A: FF       .byte $FF
PRG:0219B: 47       .byte $47
PRG:0219C: 9B       .byte $9B
PRG:0219D: CB       .byte $CB
PRG:0219E: 07       .byte $07
PRG:0219F: FA       NOP
PRG:021A0: 1D 86 9B ORA $9B86
PRG:021A3: 3A       NOP
PRG:021A4: 87       .byte $87
PRG:021A5: 56 07    LSR $07
PRG:021A7: 88       DEY
PRG:021A8: 1B       .byte $1B
PRG:021A9: 07       .byte $07
PRG:021AA: 9D 2E 65 STA $652E
PRG:021AD: F0 FF    BEQ $FF
PRG:021AF: 9B       .byte $9B
PRG:021B0: 07       .byte $07
PRG:021B1: 05 32    ORA $32
PRG:021B3: 06 33    ASL $33
PRG:021B5: 07       .byte $07
PRG:021B6: 34 CE    NOP $CE
PRG:021B8: 03       .byte $03
PRG:021B9: DC 51 EE NOP $EE51
PRG:021BC: 07       .byte $07
PRG:021BD: 73       .byte $73
PRG:021BE: E0 74    CPX $74
PRG:021C0: 0A       ASL
PRG:021C1: 7E 06 9E ROR $9E06
PRG:021C4: 0A       ASL
PRG:021C5: CE 06 E4 DEC $E406
PRG:021C8: 00 E8    BRK $E8
PRG:021CA: 0A       ASL
PRG:021CB: FE 0A 2E INC $2E0A
PRG:021CE: 89       .byte $89
PRG:021CF: 4E 0B 54 LSR $540B
PRG:021D2: 0A       ASL
PRG:021D3: 14 8A    NOP $8A
PRG:021D5: C4 0A    CPY $0A
PRG:021D7: 34 8A    NOP $8A
PRG:021D9: 7E 06 C7 ROR $C706
PRG:021DC: 0A       ASL
PRG:021DD: 01 E0    ORA $E0
PRG:021DF: 02       .byte $02
PRG:021E0: 0A       ASL
PRG:021E1: 47       .byte $47
PRG:021E2: 0A       ASL
PRG:021E3: 81 60    STA $60
PRG:021E5: 82       .byte $82
PRG:021E6: 0A       ASL
PRG:021E7: C7       .byte $C7
PRG:021E8: 0A       ASL
PRG:021E9: 0E 87 7E ASL $7E87
PRG:021EC: 02       .byte $02
PRG:021ED: A7       .byte $A7
PRG:021EE: 02       .byte $02
PRG:021EF: B3       .byte $B3
PRG:021F0: 02       .byte $02
PRG:021F1: D7       .byte $D7
PRG:021F2: 02       .byte $02
PRG:021F3: E3       .byte $E3
PRG:021F4: 02       .byte $02
PRG:021F5: 07       .byte $07
PRG:021F6: 82       .byte $82
PRG:021F7: 13       .byte $13
PRG:021F8: 02       .byte $02
PRG:021F9: 3E 06 7E ROL $7E06
PRG:021FC: 02       .byte $02
PRG:021FD: AE 07 FE LDX $FE07
PRG:02200: 0A       ASL
PRG:02201: 0D C4 CD ORA $CDC4
PRG:02204: 43       .byte $43
PRG:02205: CE 09 DE DEC $DE09
PRG:02208: 0B       .byte $0B
PRG:02209: DD 42 FE CMP $FE42
PRG:0220C: 02       .byte $02
PRG:0220D: 5D C7 FD EOR $FDC7
PRG:02210: 5B       .byte $5B
PRG:02211: 07       .byte $07
PRG:02212: 05 32    ORA $32
PRG:02214: 06 33    ASL $33
PRG:02216: 07       .byte $07
PRG:02217: 34 5E    NOP $5E
PRG:02219: 0A       ASL
PRG:0221A: 68       PLA
PRG:0221B: 64 98    NOP $98
PRG:0221D: 64 A8    NOP $A8
PRG:0221F: 64 CE    NOP $CE
PRG:02221: 06 FE    ASL $FE
PRG:02223: 02       .byte $02
PRG:02224: 0D 01 1E ORA $1E01
PRG:02227: 0E 7E 02 ASL $027E
PRG:0222A: 94 63    STY $63
PRG:0222C: B4 63    LDY $63
PRG:0222E: D4 63    NOP $63
PRG:02230: F4 63    NOP $63
PRG:02232: 14 E3    NOP $E3
PRG:02234: 2E 0E 5E ROL $5E0E
PRG:02237: 02       .byte $02
PRG:02238: 64 35    NOP $35
PRG:0223A: 88       DEY
PRG:0223B: 72       .byte $72
PRG:0223C: BE 0E 0D LDX $0D0E
PRG:0223F: 04 AE    NOP $AE
PRG:02241: 02       .byte $02
PRG:02242: CE 08 CD DEC $CD08
PRG:02245: 4B       .byte $4B
PRG:02246: FE 02 0D INC $0D02
PRG:02249: 05 68    ORA $68
PRG:0224B: 31 7E    AND $7E
PRG:0224D: 0A       ASL
PRG:0224E: 96 31    STX $31
PRG:02250: A9 63    LDA $63
PRG:02252: A8       TAY
PRG:02253: 33       .byte $33
PRG:02254: D5 30    CMP $30
PRG:02256: EE 02 E6 INC $E602
PRG:02259: 62       .byte $62
PRG:0225A: F4 61    NOP $61
PRG:0225C: 04 B1    NOP $B1
PRG:0225E: 08       PHP
PRG:0225F: 3F       .byte $3F
PRG:02260: 44 33    NOP $33
PRG:02262: 94 63    STY $63
PRG:02264: A4 31    LDY $31
PRG:02266: E4 31    CPX $31
PRG:02268: 04 BF    NOP $BF
PRG:0226A: 08       PHP
PRG:0226B: 3F       .byte $3F
PRG:0226C: 04 BF    NOP $BF
PRG:0226E: 08       PHP
PRG:0226F: 3F       .byte $3F
PRG:02270: CD 4B 03 CMP $034B
PRG:02273: E4 0E    CPX $0E
PRG:02275: 03       .byte $03
PRG:02276: 2E 01 7E ROL $7E01
PRG:02279: 06 BE    ASL $BE
PRG:0227B: 02       .byte $02
PRG:0227C: DE 06 FE DEC $FE06
PRG:0227F: 0A       ASL
PRG:02280: 0D C4 CD ORA $CDC4
PRG:02283: 43       .byte $43
PRG:02284: CE 09 DE DEC $DE09
PRG:02287: 0B       .byte $0B
PRG:02288: DD 42 FE CMP $FE42
PRG:0228B: 02       .byte $02
PRG:0228C: 5D C7 FD EOR $FDC7
PRG:0228F: 9B       .byte $9B
PRG:02290: 07       .byte $07
PRG:02291: 05 32    ORA $32
PRG:02293: 06 33    ASL $33
PRG:02295: 07       .byte $07
PRG:02296: 34 FE    NOP $FE
PRG:02298: 00 27    BRK $27
PRG:0229A: B1 65    LDA $65
PRG:0229C: 32       .byte $32
PRG:0229D: 75 0A    ADC $0A
PRG:0229F: 71 00    ADC $00
PRG:022A1: B7       .byte $B7
PRG:022A2: 31 08    AND $08
PRG:022A4: E4 18    CPX $18
PRG:022A6: 64 1E    NOP $1E
PRG:022A8: 04 57    NOP $57
PRG:022AA: 3B       .byte $3B
PRG:022AB: BB       .byte $BB
PRG:022AC: 0A       ASL
PRG:022AD: 17       .byte $17
PRG:022AE: 8A       TXA
PRG:022AF: 27       .byte $27
PRG:022B0: 3A       NOP
PRG:022B1: 73       .byte $73
PRG:022B2: 0A       ASL
PRG:022B3: 7B       .byte $7B
PRG:022B4: 0A       ASL
PRG:022B5: D7       .byte $D7
PRG:022B6: 0A       ASL
PRG:022B7: E7       .byte $E7
PRG:022B8: 3A       NOP
PRG:022B9: 3B       .byte $3B
PRG:022BA: 8A       TXA
PRG:022BB: 97       .byte $97
PRG:022BC: 0A       ASL
PRG:022BD: FE 08 24 INC $2408
PRG:022C0: 8A       TXA
PRG:022C1: 2E 00 3E ROL $3E00
PRG:022C4: 40       RTI
PRG:022C5: 38       SEC
PRG:022C6: 64 6F    NOP $6F
PRG:022C8: 00 9F    BRK $9F
PRG:022CA: 00 BE    BRK $BE
PRG:022CC: 43       .byte $43
PRG:022CD: C8       INY
PRG:022CE: 0A       ASL
PRG:022CF: C9 63    CMP $63
PRG:022D1: CE 07 FE DEC $FE07
PRG:022D4: 07       .byte $07
PRG:022D5: 2E 81 66 ROL $6681
PRG:022D8: 42       .byte $42
PRG:022D9: 6A       ROR
PRG:022DA: 42       .byte $42
PRG:022DB: 79 0A BE ADC $BE0A
PRG:022DE: 00 C8    BRK $C8
PRG:022E0: 64 F8    NOP $F8
PRG:022E2: 64 08    NOP $08
PRG:022E4: E4 2E    CPX $2E
PRG:022E6: 07       .byte $07
PRG:022E7: 7E 03 9E ROR $9E03
PRG:022EA: 07       .byte $07
PRG:022EB: BE 03 DE LDX $DE03
PRG:022EE: 07       .byte $07
PRG:022EF: FE 0A 03 INC $030A
PRG:022F2: A5 0D    LDA $0D
PRG:022F4: 44 CD    NOP $CD
PRG:022F6: 43       .byte $43
PRG:022F7: CE 09 DD DEC $DD09
PRG:022FA: 42       .byte $42
PRG:022FB: DE 0B FE DEC $FE0B
PRG:022FE: 02       .byte $02
PRG:022FF: 5D C7 FD EOR $FDC7
PRG:02302: 9B       .byte $9B
PRG:02303: 07       .byte $07
PRG:02304: 05 32    ORA $32
PRG:02306: 06 33    ASL $33
PRG:02308: 07       .byte $07
PRG:02309: 34 FE    NOP $FE
PRG:0230B: 06 0C    ASL $0C
PRG:0230D: 81 39    STA $39
PRG:0230F: 0A       ASL
PRG:02310: 5C 01 89 NOP $8901
PRG:02313: 0A       ASL
PRG:02314: AC 01 D9 LDY $D901
PRG:02317: 0A       ASL
PRG:02318: FC 01 2E NOP $2E01
PRG:0231B: 83       .byte $83
PRG:0231C: A7       .byte $A7
PRG:0231D: 01 B7    ORA $B7
PRG:0231F: 00 C7    BRK $C7
PRG:02321: 01 DE    ORA $DE
PRG:02323: 0A       ASL
PRG:02324: FE 02 4E INC $4E02
PRG:02327: 83       .byte $83
PRG:02328: 5A       NOP
PRG:02329: 32       .byte $32
PRG:0232A: 63       .byte $63
PRG:0232B: 0A       ASL
PRG:0232C: 69 0A    ADC $0A
PRG:0232E: 7E 02 EE ROR $EE02
PRG:02331: 03       .byte $03
PRG:02332: FA       NOP
PRG:02333: 32       .byte $32
PRG:02334: 03       .byte $03
PRG:02335: 8A       TXA
PRG:02336: 09 0A    ORA $0A
PRG:02338: 1E 02 EE ASL $EE02
PRG:0233B: 03       .byte $03
PRG:0233C: FA       NOP
PRG:0233D: 32       .byte $32
PRG:0233E: 03       .byte $03
PRG:0233F: 8A       TXA
PRG:02340: 09 0A    ORA $0A
PRG:02342: 14 42    NOP $42
PRG:02344: 1E 02 7E ASL $7E02
PRG:02347: 0A       ASL
PRG:02348: 9E       .byte $9E
PRG:02349: 07       .byte $07
PRG:0234A: FE 0A 2E INC $2E0A
PRG:0234D: 86 5E    STX $5E
PRG:0234F: 0A       ASL
PRG:02350: 8E 06 BE STX $BE06
PRG:02353: 0A       ASL
PRG:02354: EE 07 3E INC $3E07
PRG:02357: 83       .byte $83
PRG:02358: 5E 07 FE LSR $FE07
PRG:0235B: 0A       ASL
PRG:0235C: 0D C4 41 ORA $41C4
PRG:0235F: 52       .byte $52
PRG:02360: 51 52    EOR $52
PRG:02362: CD 43 CE CMP $CE43
PRG:02365: 09 DE    ORA $DE
PRG:02367: 0B       .byte $0B
PRG:02368: DD 42 FE CMP $FE42
PRG:0236B: 02       .byte $02
PRG:0236C: 5D C7 FD EOR $FDC7
PRG:0236F: 5B       .byte $5B
PRG:02370: 07       .byte $07
PRG:02371: 05 32    ORA $32
PRG:02373: 06 33    ASL $33
PRG:02375: 07       .byte $07
PRG:02376: 34 FE    NOP $FE
PRG:02378: 0A       ASL
PRG:02379: AE 86 BE LDX $BE86
PRG:0237C: 07       .byte $07
PRG:0237D: FE 02 0D INC $0D02
PRG:02380: 02       .byte $02
PRG:02381: 27       .byte $27
PRG:02382: 32       .byte $32
PRG:02383: 46 61    LSR $61
PRG:02385: 55 62    EOR $62
PRG:02387: 5E 0E 1E LSR $1E0E
PRG:0238A: 82       .byte $82
PRG:0238B: 68       PLA
PRG:0238C: 3C 74 3A NOP $3A74
PRG:0238F: 7D 4B 5E ADC $5E4B
PRG:02392: 8E 7D 4B STX $4B7D
PRG:02395: 7E 82 84 ROR $8482
PRG:02398: 62       .byte $62
PRG:02399: 94 61    STY $61
PRG:0239B: A4 31    LDY $31
PRG:0239D: BD 4B CE LDA $CE4B
PRG:023A0: 06 FE    ASL $FE
PRG:023A2: 02       .byte $02
PRG:023A3: 0D 06 34 ORA $3406
PRG:023A6: 31 3E    AND $3E
PRG:023A8: 0A       ASL
PRG:023A9: 64 32    NOP $32
PRG:023AB: 75 0A    ADC $0A
PRG:023AD: 7B       .byte $7B
PRG:023AE: 61 A4    ADC $A4
PRG:023B0: 33       .byte $33
PRG:023B1: AE 02 DE LDX $DE02
PRG:023B4: 0E 3E 82 ASL $823E
PRG:023B7: 64 32    NOP $32
PRG:023B9: 78       SEI
PRG:023BA: 32       .byte $32
PRG:023BB: B4 36    LDY $36
PRG:023BD: C8       INY
PRG:023BE: 36 DD    ROL $DD
PRG:023C0: 4B       .byte $4B
PRG:023C1: 44 B2    NOP $B2
PRG:023C3: 58       CLI
PRG:023C4: 32       .byte $32
PRG:023C5: 94 63    STY $63
PRG:023C7: A4 3E    LDY $3E
PRG:023C9: BA       TSX
PRG:023CA: 30 C9    BMI $C9
PRG:023CC: 61 CE    ADC $CE
PRG:023CE: 06 DD    ASL $DD
PRG:023D0: 4B       .byte $4B
PRG:023D1: CE 86 DD DEC $DD86
PRG:023D4: 4B       .byte $4B
PRG:023D5: FE 02 2E INC $2E02
PRG:023D8: 86 5E    STX $5E
PRG:023DA: 02       .byte $02
PRG:023DB: 7E 06 FE ROR $FE06
PRG:023DE: 02       .byte $02
PRG:023DF: 1E 86 3E ASL $3E86
PRG:023E2: 02       .byte $02
PRG:023E3: 5E 06 7E LSR $7E06
PRG:023E6: 02       .byte $02
PRG:023E7: 9E       .byte $9E
PRG:023E8: 06 FE    ASL $FE
PRG:023EA: 0A       ASL
PRG:023EB: 0D C4 CD ORA $CDC4
PRG:023EE: 43       .byte $43
PRG:023EF: CE 09 DE DEC $DE09
PRG:023F2: 0B       .byte $0B
PRG:023F3: DD 42 FE CMP $FE42
PRG:023F6: 02       .byte $02
PRG:023F7: 5D C7 FD EOR $FDC7
PRG:023FA: 5B       .byte $5B
PRG:023FB: 06 05    ASL $05
PRG:023FD: 32       .byte $32
PRG:023FE: 06 33    ASL $33
PRG:02400: 07       .byte $07
PRG:02401: 34 5E    NOP $5E
PRG:02403: 0A       ASL
PRG:02404: AE 02 0D LDX $0D02
PRG:02407: 01 39    ORA $39
PRG:02409: 73       .byte $73
PRG:0240A: 0D 03 39 ORA $3903
PRG:0240D: 7B       .byte $7B
PRG:0240E: 4D 4B DE EOR $DE4B
PRG:02411: 06 1E    ASL $1E
PRG:02413: 8A       TXA
PRG:02414: AE 06 C4 LDX $C406
PRG:02417: 33       .byte $33
PRG:02418: 16 FE    ASL $FE
PRG:0241A: A5 77    LDA $77
PRG:0241C: FE 02 FE INC $FE02
PRG:0241F: 82       .byte $82
PRG:02420: 0D 07 39 ORA $3907
PRG:02423: 73       .byte $73
PRG:02424: A8       TAY
PRG:02425: 74 ED    NOP $ED
PRG:02427: 4B       .byte $4B
PRG:02428: 49 FB    EOR $FB
PRG:0242A: E8       INX
PRG:0242B: 74 FE    NOP $FE
PRG:0242D: 0A       ASL
PRG:0242E: 2E 82 67 ROL $6782
PRG:02431: 02       .byte $02
PRG:02432: 84 7A    STY $7A
PRG:02434: 87       .byte $87
PRG:02435: 31 0D    AND $0D
PRG:02437: 0B       .byte $0B
PRG:02438: FE 02 0D INC $0D02
PRG:0243B: 0C 39 73 NOP $7339
PRG:0243E: 5E 06 C6 LSR $C606
PRG:02441: 76 45    ROR $45
PRG:02443: FF       .byte $FF
PRG:02444: BE 0A DD LDX $DD0A
PRG:02447: 48       PHA
PRG:02448: FE 06 3D INC $3D06
PRG:0244B: CB       .byte $CB
PRG:0244C: 46 7E    LSR $7E
PRG:0244E: AD 4A FE LDA $FE4A
PRG:02451: 82       .byte $82
PRG:02452: 39 F3 A9 AND $A9F3
PRG:02455: 7B       .byte $7B
PRG:02456: 4E 8A 9E LSR $9E8A
PRG:02459: 07       .byte $07
PRG:0245A: FE 0A 0D INC $0D0A
PRG:0245D: C4 CD    CPY $CD
PRG:0245F: 43       .byte $43
PRG:02460: CE 09 DE DEC $DE09
PRG:02463: 0B       .byte $0B
PRG:02464: DD 42 FE CMP $FE42
PRG:02467: 02       .byte $02
PRG:02468: 5D C7 FD EOR $FDC7
PRG:0246B: 94 11    STY $11
PRG:0246D: 0F       .byte $0F
PRG:0246E: 26 FE    ROL $FE
PRG:02470: 10 28    BPL $28
PRG:02472: 94 65    STY $65
PRG:02474: 15 EB    ORA $EB
PRG:02476: 12       .byte $12
PRG:02477: FA       NOP
PRG:02478: 41 4A    EOR $4A
PRG:0247A: 96 54    STX $54
PRG:0247C: 40       RTI
PRG:0247D: A4 42    LDY $42
PRG:0247F: B7       .byte $B7
PRG:02480: 13       .byte $13
PRG:02481: E9 19    SBC $19
PRG:02483: F5 15    SBC $15
PRG:02485: 11 80    ORA $80
PRG:02487: 47       .byte $47
PRG:02488: 42       .byte $42
PRG:02489: 71 13    ADC $13
PRG:0248B: 80 41    NOP $41
PRG:0248D: 15 92    ORA $92
PRG:0248F: 1B       .byte $1B
PRG:02490: 1F       .byte $1F
PRG:02491: 24 40    BIT $40
PRG:02493: 55 12    EOR $12
PRG:02495: 64 40    NOP $40
PRG:02497: 95 12    STA $12
PRG:02499: A4 40    LDY $40
PRG:0249B: D2       .byte $D2
PRG:0249C: 12       .byte $12
PRG:0249D: E1 40    SBC $40
PRG:0249F: 13       .byte $13
PRG:024A0: C0 2C    CPY $2C
PRG:024A2: 17       .byte $17
PRG:024A3: 2F       .byte $2F
PRG:024A4: 12       .byte $12
PRG:024A5: 49 13    EOR $13
PRG:024A7: 83       .byte $83
PRG:024A8: 40       RTI
PRG:024A9: 9F       .byte $9F
PRG:024AA: 14 A3    NOP $A3
PRG:024AC: 40       RTI
PRG:024AD: 17       .byte $17
PRG:024AE: 92       .byte $92
PRG:024AF: 83       .byte $83
PRG:024B0: 13       .byte $13
PRG:024B1: 92       .byte $92
PRG:024B2: 41 B9    EOR $B9
PRG:024B4: 14 C5    NOP $C5
PRG:024B6: 12       .byte $12
PRG:024B7: C8       INY
PRG:024B8: 40       RTI
PRG:024B9: D4 40    NOP $40
PRG:024BB: 4B       .byte $4B
PRG:024BC: 92       .byte $92
PRG:024BD: 78       SEI
PRG:024BE: 1B       .byte $1B
PRG:024BF: 9C       .byte $9C
PRG:024C0: 94 9F    STY $9F
PRG:024C2: 11 DF    ORA $DF
PRG:024C4: 14 FE    NOP $FE
PRG:024C6: 11 7D    ORA $7D
PRG:024C8: C1 9E    CMP $9E
PRG:024CA: 42       .byte $42
PRG:024CB: CF       .byte $CF
PRG:024CC: 20 FD 90 JSR $90FD
PRG:024CF: B1 0F    LDA $0F
PRG:024D1: 26 29    ROL $29
PRG:024D3: 91 7E    STA $7E
PRG:024D5: 42       .byte $42
PRG:024D6: FE 40 28 INC $2840
PRG:024D9: 92       .byte $92
PRG:024DA: 4E 42 2E LSR $2E42
PRG:024DD: C0 57    CPY $57
PRG:024DF: 73       .byte $73
PRG:024E0: C3       .byte $C3
PRG:024E1: 25 C7    AND $C7
PRG:024E3: 27       .byte $27
PRG:024E4: 23       .byte $23
PRG:024E5: 84 33    STY $33
PRG:024E7: 20 5C 01 JSR $015C
PRG:024EA: 77       .byte $77
PRG:024EB: 63       .byte $63
PRG:024EC: 88       DEY
PRG:024ED: 62       .byte $62
PRG:024EE: 99 61 AA STA $AA61
PRG:024F1: 60       RTS
PRG:024F2: BC 01 EE LDY $EE01
PRG:024F5: 42       .byte $42
PRG:024F6: 4E C0 69 LSR $69C0
PRG:024F9: 11 7E    ORA $7E
PRG:024FB: 42       .byte $42
PRG:024FC: DE 40 F8 DEC $F840
PRG:024FF: 62       .byte $62
PRG:02500: 0E C2 AE ASL $AEC2
PRG:02503: 40       RTI
PRG:02504: D7       .byte $D7
PRG:02505: 63       .byte $63
PRG:02506: E7       .byte $E7
PRG:02507: 63       .byte $63
PRG:02508: 33       .byte $33
PRG:02509: A7       .byte $A7
PRG:0250A: 37       .byte $37
PRG:0250B: 27       .byte $27
PRG:0250C: 43       .byte $43
PRG:0250D: 04 CC    NOP $CC
PRG:0250F: 01 E7    ORA $E7
PRG:02511: 73       .byte $73
PRG:02512: 0C 81 3E NOP $3E81
PRG:02515: 42       .byte $42
PRG:02516: 0D 0A 5E ORA $5E0A
PRG:02519: 40       RTI
PRG:0251A: 88       DEY
PRG:0251B: 72       .byte $72
PRG:0251C: BE 42 E7 LDX $E742
PRG:0251F: 87       .byte $87
PRG:02520: FE 40 39 INC $3940
PRG:02523: E1 4E    SBC $4E
PRG:02525: 00 69    BRK $69
PRG:02527: 60       RTS
PRG:02528: 87       .byte $87
PRG:02529: 60       RTS
PRG:0252A: A5 60    LDA $60
PRG:0252C: C3       .byte $C3
PRG:0252D: 31 FE    AND $FE
PRG:0252F: 31 6D    AND $6D
PRG:02531: C1 BE    CMP $BE
PRG:02533: 42       .byte $42
PRG:02534: EF       .byte $EF
PRG:02535: 20 FD 52 JSR $52FD
PRG:02538: 21 0F    AND $0F
PRG:0253A: 20 6E 40 JSR $406E
PRG:0253D: 58       CLI
PRG:0253E: F2       .byte $F2
PRG:0253F: 93       .byte $93
PRG:02540: 01 97    ORA $97
PRG:02542: 00 0C    BRK $0C
PRG:02544: 81 97    STA $97
PRG:02546: 40       RTI
PRG:02547: A6 41    LDX $41
PRG:02549: C7       .byte $C7
PRG:0254A: 40       RTI
PRG:0254B: 0D 04 03 ORA $0304
PRG:0254E: 01 07    ORA $07
PRG:02550: 01 23    ORA $23
PRG:02552: 01 27    ORA $27
PRG:02554: 01 EC    ORA $EC
PRG:02556: 03       .byte $03
PRG:02557: AC F3 C3 LDY $C3F3
PRG:0255A: 03       .byte $03
PRG:0255B: 78       SEI
PRG:0255C: E2       .byte $E2
PRG:0255D: 94 43    STY $43
PRG:0255F: 47       .byte $47
PRG:02560: F3       .byte $F3
PRG:02561: 74 43    NOP $43
PRG:02563: 47       .byte $47
PRG:02564: FB       .byte $FB
PRG:02565: 74 43    NOP $43
PRG:02567: 2C F1 4C BIT $4CF1
PRG:0256A: 63       .byte $63
PRG:0256B: 47       .byte $47
PRG:0256C: 00 57    BRK $57
PRG:0256E: 21 5C    AND $5C
PRG:02570: 01 7C    ORA $7C
PRG:02572: 72       .byte $72
PRG:02573: 39 F1 EC AND $ECF1
PRG:02576: 02       .byte $02
PRG:02577: 4C 81 D8 JMP $D881
PRG:0257A: 62       .byte $62
PRG:0257B: EC 01 0D CPX $0D01
PRG:0257E: 0D 0F 38 ORA $380F
PRG:02581: C7       .byte $C7
PRG:02582: 07       .byte $07
PRG:02583: ED 4A 1D SBC $1D4A
PRG:02586: C1 5F    CMP $5F
PRG:02588: 26 FD    ROL $FD
PRG:0258A: 54 21    NOP $21
PRG:0258C: 0F       .byte $0F
PRG:0258D: 26 A7    ROL $A7
PRG:0258F: 22       .byte $22
PRG:02590: 37       .byte $37
PRG:02591: FB       .byte $FB
PRG:02592: 73       .byte $73
PRG:02593: 20 83 07 JSR $0783
PRG:02596: 87       .byte $87
PRG:02597: 02       .byte $02
PRG:02598: 93       .byte $93
PRG:02599: 20 C7 73 JSR $73C7
PRG:0259C: 04 F1    NOP $F1
PRG:0259E: 06 31    ASL $31
PRG:025A0: 39 71 59 AND $5971
PRG:025A3: 71 E7    ADC $E7
PRG:025A5: 73       .byte $73
PRG:025A6: 37       .byte $37
PRG:025A7: A0 47    LDY $47
PRG:025A9: 04 86    NOP $86
PRG:025AB: 7C E5 71 NOP $71E5
PRG:025AE: E7       .byte $E7
PRG:025AF: 31 33    AND $33
PRG:025B1: A4 39    LDY $39
PRG:025B3: 71 A9    ADC $A9
PRG:025B5: 71 D3    ADC $D3
PRG:025B7: 23       .byte $23
PRG:025B8: 08       PHP
PRG:025B9: F2       .byte $F2
PRG:025BA: 13       .byte $13
PRG:025BB: 05 27    ORA $27
PRG:025BD: 02       .byte $02
PRG:025BE: 49 71    EOR $71
PRG:025C0: 75 75    ADC $75
PRG:025C2: E8       INX
PRG:025C3: 72       .byte $72
PRG:025C4: 67       .byte $67
PRG:025C5: F3       .byte $F3
PRG:025C6: 99 71 E7 STA $E771
PRG:025C9: 20 F4 72 JSR $72F4
PRG:025CC: F7       .byte $F7
PRG:025CD: 31 17    AND $17
PRG:025CF: A0 33    LDY $33
PRG:025D1: 20 39 71 JSR $7139
PRG:025D4: 73       .byte $73
PRG:025D5: 28       PLP
PRG:025D6: BC 05 39 LDY $3905
PRG:025D9: F1 79    SBC $79
PRG:025DB: 71 A6    ADC $A6
PRG:025DD: 21 C3    AND $C3
PRG:025DF: 06 D3    ASL $D3
PRG:025E1: 20 DC 00 JSR $00DC
PRG:025E4: FC 00 07 NOP $0700
PRG:025E7: A2 13    LDX $13
PRG:025E9: 21 5F    AND $5F
PRG:025EB: 32       .byte $32
PRG:025EC: 8C 00 98 STY $9800
PRG:025EF: 7A       NOP
PRG:025F0: C7       .byte $C7
PRG:025F1: 63       .byte $63
PRG:025F2: D9 61 03 CMP $0361
PRG:025F5: A2 07    LDX $07
PRG:025F7: 22       .byte $22
PRG:025F8: 74 72    NOP $72
PRG:025FA: 77       .byte $77
PRG:025FB: 31 E7    AND $E7
PRG:025FD: 73       .byte $73
PRG:025FE: 39 F1 58 AND $58F1
PRG:02601: 72       .byte $72
PRG:02602: 77       .byte $77
PRG:02603: 73       .byte $73
PRG:02604: D8       CLD
PRG:02605: 72       .byte $72
PRG:02606: 7F       .byte $7F
PRG:02607: B1 97    LDA $97
PRG:02609: 73       .byte $73
PRG:0260A: B6 64    LDX $64
PRG:0260C: C5 65    CMP $65
PRG:0260E: D4 66    NOP $66
PRG:02610: E3       .byte $E3
PRG:02611: 67       .byte $67
PRG:02612: F3       .byte $F3
PRG:02613: 67       .byte $67
PRG:02614: 8D C1 CF STA $CFC1
PRG:02617: 26 FD    ROL $FD
PRG:02619: 52       .byte $52
PRG:0261A: 31 0F    AND $0F
PRG:0261C: 20 6E 66 JSR $666E
PRG:0261F: 07       .byte $07
PRG:02620: 81 36    STA $36
PRG:02622: 01 66    ORA $66
PRG:02624: 00 A7    BRK $A7
PRG:02626: 22       .byte $22
PRG:02627: 08       PHP
PRG:02628: F2       .byte $F2
PRG:02629: 67       .byte $67
PRG:0262A: 7B       .byte $7B
PRG:0262B: DC 02 98 NOP $9802
PRG:0262E: F2       .byte $F2
PRG:0262F: D7       .byte $D7
PRG:02630: 20 39 F1 JSR $F139
PRG:02633: 9F       .byte $9F
PRG:02634: 33       .byte $33
PRG:02635: DC 27 DC NOP $DC27
PRG:02638: 57       .byte $57
PRG:02639: 23       .byte $23
PRG:0263A: 83       .byte $83
PRG:0263B: 57       .byte $57
PRG:0263C: 63       .byte $63
PRG:0263D: 6C 51 87 JMP $8751
PRG:02640: 63       .byte $63
PRG:02641: 99 61 A3 STA $A361
PRG:02644: 06 B3    ASL $B3
PRG:02646: 21 77    AND $77
PRG:02648: F3       .byte $F3
PRG:02649: F3       .byte $F3
PRG:0264A: 21 F7    AND $F7
PRG:0264C: 2A       ROL
PRG:0264D: 13       .byte $13
PRG:0264E: 81 23    STA $23
PRG:02650: 22       .byte $22
PRG:02651: 53       .byte $53
PRG:02652: 00 63    BRK $63
PRG:02654: 22       .byte $22
PRG:02655: E9 0B    SBC $0B
PRG:02657: 0C 83 13 NOP $1383
PRG:0265A: 21 16    AND $16
PRG:0265C: 22       .byte $22
PRG:0265D: 33       .byte $33
PRG:0265E: 05 8F    ORA $8F
PRG:02660: 35 EC    AND $EC
PRG:02662: 01 63    ORA $63
PRG:02664: A0 67    LDY $67
PRG:02666: 20 73 01 JSR $0173
PRG:02669: 77       .byte $77
PRG:0266A: 01 83    ORA $83
PRG:0266C: 20 87 20 JSR $2087
PRG:0266F: B3       .byte $B3
PRG:02670: 20 B7 20 JSR $20B7
PRG:02673: C3       .byte $C3
PRG:02674: 01 C7    ORA $C7
PRG:02676: 00 D3    BRK $D3
PRG:02678: 20 D7 20 JSR $20D7
PRG:0267B: 67       .byte $67
PRG:0267C: A0 77    LDY $77
PRG:0267E: 07       .byte $07
PRG:0267F: 87       .byte $87
PRG:02680: 22       .byte $22
PRG:02681: E8       INX
PRG:02682: 62       .byte $62
PRG:02683: F5 65    SBC $65
PRG:02685: 1C 82 7F NOP $7F82
PRG:02688: 38       SEC
PRG:02689: 8D C1 CF STA $CFC1
PRG:0268C: 26 FD    ROL $FD
PRG:0268E: 50 21    BVC $21
PRG:02690: 07       .byte $07
PRG:02691: 81 47    STA $47
PRG:02693: 24 57    BIT $57
PRG:02695: 00 63    BRK $63
PRG:02697: 01 77    ORA $77
PRG:02699: 01 C9    ORA $C9
PRG:0269B: 71 68    ADC $68
PRG:0269D: F2       .byte $F2
PRG:0269E: E7       .byte $E7
PRG:0269F: 73       .byte $73
PRG:026A0: 97       .byte $97
PRG:026A1: FB       .byte $FB
PRG:026A2: 06 83    ASL $83
PRG:026A4: 5C 01 D7 NOP $D701
PRG:026A7: 22       .byte $22
PRG:026A8: E7       .byte $E7
PRG:026A9: 00 03    BRK $03
PRG:026AB: A7       .byte $A7
PRG:026AC: 6C 02 B3 JMP $B302
PRG:026AF: 22       .byte $22
PRG:026B0: E3       .byte $E3
PRG:026B1: 01 E7    ORA $E7
PRG:026B3: 07       .byte $07
PRG:026B4: 47       .byte $47
PRG:026B5: A0 57    LDY $57
PRG:026B7: 06 A7    ASL $A7
PRG:026B9: 01 D3    ORA $D3
PRG:026BB: 00 D7    BRK $D7
PRG:026BD: 01 07    ORA $07
PRG:026BF: 81 67    STA $67
PRG:026C1: 20 93 22 JSR $2293
PRG:026C4: 03       .byte $03
PRG:026C5: A3       .byte $A3
PRG:026C6: 1C 61 17 NOP $1761
PRG:026C9: 21 6F    AND $6F
PRG:026CB: 33       .byte $33
PRG:026CC: C7       .byte $C7
PRG:026CD: 63       .byte $63
PRG:026CE: D8       CLD
PRG:026CF: 62       .byte $62
PRG:026D0: E9 61    SBC $61
PRG:026D2: FA       NOP
PRG:026D3: 60       RTS
PRG:026D4: 4F       .byte $4F
PRG:026D5: B3       .byte $B3
PRG:026D6: 87       .byte $87
PRG:026D7: 63       .byte $63
PRG:026D8: 9C       .byte $9C
PRG:026D9: 01 B7    ORA $B7
PRG:026DB: 63       .byte $63
PRG:026DC: C8       INY
PRG:026DD: 62       .byte $62
PRG:026DE: D9 61 EA CMP $EA61
PRG:026E1: 60       RTS
PRG:026E2: 39 F1 87 AND $87F1
PRG:026E5: 21 A7    AND $A7
PRG:026E7: 01 B7    ORA $B7
PRG:026E9: 20 39 F1 JSR $F139
PRG:026EC: 5F       .byte $5F
PRG:026ED: 38       SEC
PRG:026EE: 6D C1 AF ADC $AFC1
PRG:026F1: 26 FD    ROL $FD
PRG:026F3: 90 11    BCC $11
PRG:026F5: 0F       .byte $0F
PRG:026F6: 26 FE    ROL $FE
PRG:026F8: 10 2A    BPL $2A
PRG:026FA: 93       .byte $93
PRG:026FB: 87       .byte $87
PRG:026FC: 17       .byte $17
PRG:026FD: A3       .byte $A3
PRG:026FE: 14 B2    NOP $B2
PRG:02700: 42       .byte $42
PRG:02701: 0A       ASL
PRG:02702: 92       .byte $92
PRG:02703: 19 40 36 ORA $3640
PRG:02706: 14 50    NOP $50
PRG:02708: 41 82    EOR $82
PRG:0270A: 16 2B    ASL $2B
PRG:0270C: 93       .byte $93
PRG:0270D: 24 41    BIT $41
PRG:0270F: BB       .byte $BB
PRG:02710: 14 B8    NOP $B8
PRG:02712: 00 C2    BRK $C2
PRG:02714: 43       .byte $43
PRG:02715: C3       .byte $C3
PRG:02716: 13       .byte $13
PRG:02717: 1B       .byte $1B
PRG:02718: 94 67    STY $67
PRG:0271A: 12       .byte $12
PRG:0271B: C4 15    CPY $15
PRG:0271D: 53       .byte $53
PRG:0271E: C1 D2    CMP $D2
PRG:02720: 41 12    EOR $12
PRG:02722: C1 29    CMP $29
PRG:02724: 13       .byte $13
PRG:02725: 85 17    STA $17
PRG:02727: 1B       .byte $1B
PRG:02728: 92       .byte $92
PRG:02729: 1A       NOP
PRG:0272A: 42       .byte $42
PRG:0272B: 47       .byte $47
PRG:0272C: 13       .byte $13
PRG:0272D: 83       .byte $83
PRG:0272E: 41 A7    EOR $A7
PRG:02730: 13       .byte $13
PRG:02731: 0E 91 A7 ASL $A791
PRG:02734: 63       .byte $63
PRG:02735: B7       .byte $B7
PRG:02736: 63       .byte $63
PRG:02737: C5 65    CMP $65
PRG:02739: D5 65    CMP $65
PRG:0273B: DD 4A E3 CMP $E34A
PRG:0273E: 67       .byte $67
PRG:0273F: F3       .byte $F3
PRG:02740: 67       .byte $67
PRG:02741: 8D C1 AE STA $AEC1
PRG:02744: 42       .byte $42
PRG:02745: DF       .byte $DF
PRG:02746: 20 FD 90 JSR $90FD
PRG:02749: 11 0F    ORA $0F
PRG:0274B: 26 6E    ROL $6E
PRG:0274D: 10 8B    BPL $8B
PRG:0274F: 17       .byte $17
PRG:02750: AF       .byte $AF
PRG:02751: 32       .byte $32
PRG:02752: D8       CLD
PRG:02753: 62       .byte $62
PRG:02754: E8       INX
PRG:02755: 62       .byte $62
PRG:02756: FC 3F AD NOP $AD3F
PRG:02759: C8       INY
PRG:0275A: F8       SED
PRG:0275B: 64 0C    NOP $0C
PRG:0275D: BE 43 43 LDX $4343
PRG:02760: F8       SED
PRG:02761: 64 0C    NOP $0C
PRG:02763: BF       .byte $BF
PRG:02764: 73       .byte $73
PRG:02765: 40       RTI
PRG:02766: 84 40    STY $40
PRG:02768: 93       .byte $93
PRG:02769: 40       RTI
PRG:0276A: A4 40    LDY $40
PRG:0276C: B3       .byte $B3
PRG:0276D: 40       RTI
PRG:0276E: F8       SED
PRG:0276F: 64 48    NOP $48
PRG:02771: E4 5C    CPX $5C
PRG:02773: 39 83 40 AND $4083
PRG:02776: 92       .byte $92
PRG:02777: 41 B3    EOR $B3
PRG:02779: 40       RTI
PRG:0277A: F8       SED
PRG:0277B: 64 48    NOP $48
PRG:0277D: E4 5C    CPX $5C
PRG:0277F: 39 F8 64 AND $64F8
PRG:02782: 13       .byte $13
PRG:02783: C2       .byte $C2
PRG:02784: 37       .byte $37
PRG:02785: 65 4C    ADC $4C
PRG:02787: 24 63    BIT $63
PRG:02789: 00 97    BRK $97
PRG:0278B: 65 C3    ADC $C3
PRG:0278D: 42       .byte $42
PRG:0278E: 0B       .byte $0B
PRG:0278F: 97       .byte $97
PRG:02790: AC 32 F8 LDY $F832
PRG:02793: 64 0C    NOP $0C
PRG:02795: BE 53 45 LDX $4553
PRG:02798: 9D 48 F8 STA $F848
PRG:0279B: 64 2A    NOP $2A
PRG:0279D: E2       .byte $E2
PRG:0279E: 3C 47 56 NOP $5647
PRG:027A1: 43       .byte $43
PRG:027A2: BA       TSX
PRG:027A3: 62       .byte $62
PRG:027A4: F8       SED
PRG:027A5: 64 0C    NOP $0C
PRG:027A7: B7       .byte $B7
PRG:027A8: 88       DEY
PRG:027A9: 64 BC    NOP $BC
PRG:027AB: 31 D4    AND $D4
PRG:027AD: 45 FC    EOR $FC
PRG:027AF: 31 3C    AND $3C
PRG:027B1: B1 78    LDA $78
PRG:027B3: 64 8C    NOP $8C
PRG:027B5: 38       SEC
PRG:027B6: 0B       .byte $0B
PRG:027B7: 9C       .byte $9C
PRG:027B8: 1A       NOP
PRG:027B9: 33       .byte $33
PRG:027BA: 18       CLC
PRG:027BB: 61 28    ADC $28
PRG:027BD: 61 39    ADC $39
PRG:027BF: 60       RTS
PRG:027C0: 5D 4A EE EOR $EE4A
PRG:027C3: 11 0F    ORA $0F
PRG:027C5: B8       CLV
PRG:027C6: 1D C1 3E ORA $3EC1
PRG:027C9: 42       .byte $42
PRG:027CA: 6F       .byte $6F
PRG:027CB: 20 FD 52 JSR $52FD
PRG:027CE: 31 0F    AND $0F
PRG:027D0: 20 6E 40 JSR $406E
PRG:027D3: F7       .byte $F7
PRG:027D4: 20 07 84 JSR $8407
PRG:027D7: 17       .byte $17
PRG:027D8: 20 4F 34 JSR $344F
PRG:027DB: C3       .byte $C3
PRG:027DC: 03       .byte $03
PRG:027DD: C7       .byte $C7
PRG:027DE: 02       .byte $02
PRG:027DF: D3       .byte $D3
PRG:027E0: 22       .byte $22
PRG:027E1: 27       .byte $27
PRG:027E2: E3       .byte $E3
PRG:027E3: 39 61 E7 AND $E761
PRG:027E6: 73       .byte $73
PRG:027E7: 5C E4 57 NOP $57E4
PRG:027EA: 00 6C    BRK $6C
PRG:027EC: 73       .byte $73
PRG:027ED: 47       .byte $47
PRG:027EE: A0 53    LDY $53
PRG:027F0: 06 63    ASL $63
PRG:027F2: 22       .byte $22
PRG:027F3: A7       .byte $A7
PRG:027F4: 73       .byte $73
PRG:027F5: FC 73 13 NOP $1373
PRG:027F8: A1 33    LDA $33
PRG:027FA: 05 43    ORA $43
PRG:027FC: 21 5C    AND $5C
PRG:027FE: 72       .byte $72
PRG:027FF: C3       .byte $C3
PRG:02800: 23       .byte $23
PRG:02801: CC 03 77 CPY $7703
PRG:02804: FB       .byte $FB
PRG:02805: AC 02 39 LDY $3902
PRG:02808: F1 A7    SBC $A7
PRG:0280A: 73       .byte $73
PRG:0280B: D3       .byte $D3
PRG:0280C: 04 E8    NOP $E8
PRG:0280E: 72       .byte $72
PRG:0280F: E3       .byte $E3
PRG:02810: 22       .byte $22
PRG:02811: 26 F4    ROL $F4
PRG:02813: BC 02 8C LDY $8C02
PRG:02816: 81 A8    STA $A8
PRG:02818: 62       .byte $62
PRG:02819: 17       .byte $17
PRG:0281A: 87       .byte $87
PRG:0281B: 43       .byte $43
PRG:0281C: 24 A7    BIT $A7
PRG:0281E: 01 C3    ORA $C3
PRG:02820: 04 08    NOP $08
PRG:02822: F2       .byte $F2
PRG:02823: 97       .byte $97
PRG:02824: 21 A3    AND $A3
PRG:02826: 02       .byte $02
PRG:02827: C9 0B    CMP $0B
PRG:02829: E1 69    SBC $69
PRG:0282B: F1 69    SBC $69
PRG:0282D: 8D C1 CF STA $CFC1
PRG:02830: 26 FD    ROL $FD
PRG:02832: 38       SEC
PRG:02833: 11 0F    ORA $0F
PRG:02835: 26 AD    ROL $AD
PRG:02837: 40       RTI
PRG:02838: 3D C7 FD AND $FDC7
PRG:0283B: 95 B1    STA $B1
PRG:0283D: 0F       .byte $0F
PRG:0283E: 26 0D    ROL $0D
PRG:02840: 02       .byte $02
PRG:02841: C8       INY
PRG:02842: 72       .byte $72
PRG:02843: 1C 81 38 NOP $3881
PRG:02846: 72       .byte $72
PRG:02847: 0D 05 97 ORA $9705
PRG:0284A: 34 98    NOP $98
PRG:0284C: 62       .byte $62
PRG:0284D: A3       .byte $A3
PRG:0284E: 20 B3 06 JSR $06B3
PRG:02851: C3       .byte $C3
PRG:02852: 20 CC 03 JSR $03CC
PRG:02855: F9 91 2C SBC $2C91
PRG:02858: 81 48    STA $48
PRG:0285A: 62       .byte $62
PRG:0285B: 0D 09 37 ORA $3709
PRG:0285E: 63       .byte $63
PRG:0285F: 47       .byte $47
PRG:02860: 03       .byte $03
PRG:02861: 57       .byte $57
PRG:02862: 21 8C    AND $8C
PRG:02864: 02       .byte $02
PRG:02865: C5 79    CMP $79
PRG:02867: C7       .byte $C7
PRG:02868: 31 F9    AND $F9
PRG:0286A: 11 39    ORA $39
PRG:0286C: F1 A9    SBC $A9
PRG:0286E: 11 6F    ORA $6F
PRG:02870: B4 D3    LDY $D3
PRG:02872: 65 E3    ADC $E3
PRG:02874: 65 7D    ADC $7D
PRG:02876: C1 BF    CMP $BF
PRG:02878: 26 FD    ROL $FD
PRG:0287A: 00 C1    BRK $C1
PRG:0287C: 4C 00 F4 JMP $F400
PRG:0287F: 4F       .byte $4F
PRG:02880: 0D 02 02 ORA $0202
PRG:02883: 42       .byte $42
PRG:02884: 43       .byte $43
PRG:02885: 4F       .byte $4F
PRG:02886: 52       .byte $52
PRG:02887: C2       .byte $C2
PRG:02888: DE 00 5A DEC $5A00
PRG:0288B: C2       .byte $C2
PRG:0288C: 4D C7 FD EOR $FDC7
PRG:0288F: 90 51    BCC $51
PRG:02891: 0F       .byte $0F
PRG:02892: 26 EE    ROL $EE
PRG:02894: 10 0B    BPL $0B
PRG:02896: 94 33    STY $33
PRG:02898: 14 42    NOP $42
PRG:0289A: 42       .byte $42
PRG:0289B: 77       .byte $77
PRG:0289C: 16 86    ASL $86
PRG:0289E: 44 02    NOP $02
PRG:028A0: 92       .byte $92
PRG:028A1: 4A       LSR
PRG:028A2: 16 69    ASL $69
PRG:028A4: 42       .byte $42
PRG:028A5: 73       .byte $73
PRG:028A6: 14 B0    NOP $B0
PRG:028A8: 00 C7    BRK $C7
PRG:028AA: 12       .byte $12
PRG:028AB: 05 C0    ORA $C0
PRG:028AD: 1C 17 1F NOP $1F17
PRG:028B0: 11 36    ORA $36
PRG:028B2: 12       .byte $12
PRG:028B3: 8F       .byte $8F
PRG:028B4: 14 91    NOP $91
PRG:028B6: 40       RTI
PRG:028B7: 1B       .byte $1B
PRG:028B8: 94 35    STY $35
PRG:028BA: 12       .byte $12
PRG:028BB: 34 42    NOP $42
PRG:028BD: 60       RTS
PRG:028BE: 42       .byte $42
PRG:028BF: 61 12    ADC $12
PRG:028C1: 87       .byte $87
PRG:028C2: 12       .byte $12
PRG:028C3: 96 40    STX $40
PRG:028C5: A3       .byte $A3
PRG:028C6: 14 1C    NOP $1C
PRG:028C8: 98       TYA
PRG:028C9: 1F       .byte $1F
PRG:028CA: 11 47    ORA $47
PRG:028CC: 12       .byte $12
PRG:028CD: 9F       .byte $9F
PRG:028CE: 15 CC    ORA $CC
PRG:028D0: 15 CF    ORA $CF
PRG:028D2: 11 05    ORA $05
PRG:028D4: C0 1F    CPY $1F
PRG:028D6: 15 39    ORA $39
PRG:028D8: 12       .byte $12
PRG:028D9: 7C 16 7F NOP $7F16
PRG:028DC: 11 82    ORA $82
PRG:028DE: 40       RTI
PRG:028DF: 98       TYA
PRG:028E0: 12       .byte $12
PRG:028E1: DF       .byte $DF
PRG:028E2: 15 16    ORA $16
PRG:028E4: C4 17    CPY $17
PRG:028E6: 14 54    NOP $54
PRG:028E8: 12       .byte $12
PRG:028E9: 9B       .byte $9B
PRG:028EA: 16 28    ASL $28
PRG:028EC: 94 CE    STY $CE
PRG:028EE: 01 3D    ORA $3D
PRG:028F0: C1 5E    CMP $5E
PRG:028F2: 42       .byte $42
PRG:028F3: 8F       .byte $8F
PRG:028F4: 20 FD 97 JSR $97FD
PRG:028F7: 11 0F    ORA $0F
PRG:028F9: 26 FE    ROL $FE
PRG:028FB: 10 2B    BPL $2B
PRG:028FD: 92       .byte $92
PRG:028FE: 57       .byte $57
PRG:028FF: 12       .byte $12
PRG:02900: 8B       .byte $8B
PRG:02901: 12       .byte $12
PRG:02902: C0 41    CPY $41
PRG:02904: F7       .byte $F7
PRG:02905: 13       .byte $13
PRG:02906: 5B       .byte $5B
PRG:02907: 92       .byte $92
PRG:02908: 69 0B    ADC $0B
PRG:0290A: BB       .byte $BB
PRG:0290B: 12       .byte $12
PRG:0290C: B2       .byte $B2
PRG:0290D: 46 19    LSR $19
PRG:0290F: 93       .byte $93
PRG:02910: 71 00    ADC $00
PRG:02912: 17       .byte $17
PRG:02913: 94 7C    STY $7C
PRG:02915: 14 7F    NOP $7F
PRG:02917: 11 93    ORA $93
PRG:02919: 41 BF    EOR $BF
PRG:0291B: 15 FC    ORA $FC
PRG:0291D: 13       .byte $13
PRG:0291E: FF       .byte $FF
PRG:0291F: 11 2F    ORA $2F
PRG:02921: 95 50    STA $50
PRG:02923: 42       .byte $42
PRG:02924: 51 12    EOR $12
PRG:02926: 58       CLI
PRG:02927: 14 A6    NOP $A6
PRG:02929: 12       .byte $12
PRG:0292A: DB       .byte $DB
PRG:0292B: 12       .byte $12
PRG:0292C: 1B       .byte $1B
PRG:0292D: 93       .byte $93
PRG:0292E: 46 43    LSR $43
PRG:02930: 7B       .byte $7B
PRG:02931: 12       .byte $12
PRG:02932: 8D 49 B7 STA $B749
PRG:02935: 14 1B    NOP $1B
PRG:02937: 94 49    STY $49
PRG:02939: 0B       .byte $0B
PRG:0293A: BB       .byte $BB
PRG:0293B: 12       .byte $12
PRG:0293C: FC 13 FF NOP $FF13
PRG:0293F: 12       .byte $12
PRG:02940: 03       .byte $03
PRG:02941: C1 2F    CMP $2F
PRG:02943: 15 43    ORA $43
PRG:02945: 12       .byte $12
PRG:02946: 4B       .byte $4B
PRG:02947: 13       .byte $13
PRG:02948: 77       .byte $77
PRG:02949: 13       .byte $13
PRG:0294A: 9D 4A 15 STA $154A
PRG:0294D: C1 A1    CMP $A1
PRG:0294F: 41 C3    EOR $C3
PRG:02951: 12       .byte $12
PRG:02952: FE 01 7D INC $7D01
PRG:02955: C1 9E    CMP $9E
PRG:02957: 42       .byte $42
PRG:02958: CF       .byte $CF
PRG:02959: 20 FD 52 JSR $52FD
PRG:0295C: 21 0F    AND $0F
PRG:0295E: 20 6E 44 JSR $446E
PRG:02961: 0C F1 4C NOP $4CF1
PRG:02964: 01 AA    ORA $AA
PRG:02966: 35 D9    AND $D9
PRG:02968: 34 EE    NOP $EE
PRG:0296A: 20 08 B3 JSR $B308
PRG:0296D: 37       .byte $37
PRG:0296E: 32       .byte $32
PRG:0296F: 43       .byte $43
PRG:02970: 04 4E    NOP $4E
PRG:02972: 21 53    AND $53
PRG:02974: 20 7C 01 JSR $017C
PRG:02977: 97       .byte $97
PRG:02978: 21 B7    AND $B7
PRG:0297A: 07       .byte $07
PRG:0297B: 9C       .byte $9C
PRG:0297C: 81 E7    STA $E7
PRG:0297E: 42       .byte $42
PRG:0297F: 5F       .byte $5F
PRG:02980: B3       .byte $B3
PRG:02981: 97       .byte $97
PRG:02982: 63       .byte $63
PRG:02983: AC 02 C5 LDY $C502
PRG:02986: 41 49    EOR $49
PRG:02988: E0 58    CPX $58
PRG:0298A: 61 76    ADC $76
PRG:0298C: 64 85    NOP $85
PRG:0298E: 65 94    ADC $94
PRG:02990: 66 A4    ROR $A4
PRG:02992: 22       .byte $22
PRG:02993: A6 03    LDX $03
PRG:02995: C8       INY
PRG:02996: 22       .byte $22
PRG:02997: DC 02 68 NOP $6802
PRG:0299A: F2       .byte $F2
PRG:0299B: 96 42    STX $42
PRG:0299D: 13       .byte $13
PRG:0299E: 82       .byte $82
PRG:0299F: 17       .byte $17
PRG:029A0: 02       .byte $02
PRG:029A1: AF       .byte $AF
PRG:029A2: 34 F6    NOP $F6
PRG:029A4: 21 FC    AND $FC
PRG:029A6: 06 26    ASL $26
PRG:029A8: 80 2A    NOP $2A
PRG:029AA: 24 36    BIT $36
PRG:029AC: 01 8C    ORA $8C
PRG:029AE: 00 FF    BRK $FF
PRG:029B0: 35 4E    AND $4E
PRG:029B2: A0 55    LDY $55
PRG:029B4: 21 77    AND $77
PRG:029B6: 20 87 07 JSR $0787
PRG:029B9: 89       .byte $89
PRG:029BA: 22       .byte $22
PRG:029BB: AE 21 4C LDX $4C21
PRG:029BE: 82       .byte $82
PRG:029BF: 9F       .byte $9F
PRG:029C0: 34 EC    NOP $EC
PRG:029C2: 01 03    ORA $03
PRG:029C4: E7       .byte $E7
PRG:029C5: 13       .byte $13
PRG:029C6: 67       .byte $67
PRG:029C7: 8D 4A AD STA $AD4A
PRG:029CA: 41 0F    EOR $0F
PRG:029CC: A6 FD    LDX $FD
PRG:029CE: 10 51    BPL $51
PRG:029D0: 4C 00 C7 JMP $C700
PRG:029D3: 12       .byte $12
PRG:029D4: C6 42    DEC $42
PRG:029D6: 03       .byte $03
PRG:029D7: 92       .byte $92
PRG:029D8: 02       .byte $02
PRG:029D9: 42       .byte $42
PRG:029DA: 29 12    AND $12
PRG:029DC: 63       .byte $63
PRG:029DD: 12       .byte $12
PRG:029DE: 62       .byte $62
PRG:029DF: 42       .byte $42
PRG:029E0: 69 14    ADC $14
PRG:029E2: A5 12    LDA $12
PRG:029E4: A4 42    LDY $42
PRG:029E6: E2       .byte $E2
PRG:029E7: 14 E1    NOP $E1
PRG:029E9: 44 F8    NOP $F8
PRG:029EB: 16 37    ASL $37
PRG:029ED: C1 8F    CMP $8F
PRG:029EF: 38       SEC
PRG:029F0: 02       .byte $02
PRG:029F1: BB       .byte $BB
PRG:029F2: 28       PLP
PRG:029F3: 7A       NOP
PRG:029F4: 68       PLA
PRG:029F5: 7A       NOP
PRG:029F6: A8       TAY
PRG:029F7: 7A       NOP
PRG:029F8: E0 6A    CPX $6A
PRG:029FA: F0 6A    BEQ $6A
PRG:029FC: 6D C5 FD ADC $FDC5
PRG:029FF: 92       .byte $92
PRG:02A00: 31 0F    AND $0F
PRG:02A02: 20 6E 40 JSR $406E
PRG:02A05: 0D 02 37 ORA $3702
PRG:02A08: 73       .byte $73
PRG:02A09: EC 00 0C CPX $0C00
PRG:02A0C: 80 3C    NOP $3C
PRG:02A0E: 00 6C    BRK $6C
PRG:02A10: 00 9C    BRK $9C
PRG:02A12: 00 06    BRK $06
PRG:02A14: C0 C7    CPY $C7
PRG:02A16: 73       .byte $73
PRG:02A17: 06 83    ASL $83
PRG:02A19: 28       PLP
PRG:02A1A: 72       .byte $72
PRG:02A1B: 96 40    STX $40
PRG:02A1D: E7       .byte $E7
PRG:02A1E: 73       .byte $73
PRG:02A1F: 26 C0    ROL $C0
PRG:02A21: 87       .byte $87
PRG:02A22: 7B       .byte $7B
PRG:02A23: D2       .byte $D2
PRG:02A24: 41 39    EOR $39
PRG:02A26: F1 C8    SBC $C8
PRG:02A28: F2       .byte $F2
PRG:02A29: 97       .byte $97
PRG:02A2A: E3       .byte $E3
PRG:02A2B: A3       .byte $A3
PRG:02A2C: 23       .byte $23
PRG:02A2D: E7       .byte $E7
PRG:02A2E: 02       .byte $02
PRG:02A2F: E3       .byte $E3
PRG:02A30: 07       .byte $07
PRG:02A31: F3       .byte $F3
PRG:02A32: 22       .byte $22
PRG:02A33: 37       .byte $37
PRG:02A34: E3       .byte $E3
PRG:02A35: 9C       .byte $9C
PRG:02A36: 00 BC    BRK $BC
PRG:02A38: 00 EC    BRK $EC
PRG:02A3A: 00 0C    BRK $0C
PRG:02A3C: 80 3C    NOP $3C
PRG:02A3E: 00 86    BRK $86
PRG:02A40: 21 A6    AND $A6
PRG:02A42: 06 B6    ASL $B6
PRG:02A44: 24 5C    BIT $5C
PRG:02A46: 80 7C    NOP $7C
PRG:02A48: 00 9C    BRK $9C
PRG:02A4A: 00 29    BRK $29
PRG:02A4C: E1 DC    SBC $DC
PRG:02A4E: 05 F6    ORA $F6
PRG:02A50: 41 DC    EOR $DC
PRG:02A52: 80 E8    NOP $E8
PRG:02A54: 72       .byte $72
PRG:02A55: 0C 81 27 NOP $2781
PRG:02A58: 73       .byte $73
PRG:02A59: 4C 01 66 JMP $6601
PRG:02A5C: 74 0D    NOP $0D
PRG:02A5E: 11 3F    ORA $3F
PRG:02A60: 35 B6    AND $B6
PRG:02A62: 41 2C    EOR $2C
PRG:02A64: 82       .byte $82
PRG:02A65: 36 40    ROL $40
PRG:02A67: 7C 02 86 NOP $8602
PRG:02A6A: 40       RTI
PRG:02A6B: F9 61 39 SBC $3961
PRG:02A6E: E1 AC    SBC $AC
PRG:02A70: 04 C6    NOP $C6
PRG:02A72: 41 0C    EOR $0C
PRG:02A74: 83       .byte $83
PRG:02A75: 16 41    ASL $41
PRG:02A77: 88       DEY
PRG:02A78: F2       .byte $F2
PRG:02A79: 39 F1 7C AND $7CF1
PRG:02A7C: 00 89    BRK $89
PRG:02A7E: 61 9C    ADC $9C
PRG:02A80: 00 A7    BRK $A7
PRG:02A82: 63       .byte $63
PRG:02A83: BC 00 C5 LDY $C500
PRG:02A86: 65 DC    ADC $DC
PRG:02A88: 00 E3    BRK $E3
PRG:02A8A: 67       .byte $67
PRG:02A8B: F3       .byte $F3
PRG:02A8C: 67       .byte $67
PRG:02A8D: 8D C1 CF STA $CFC1
PRG:02A90: 26 FD    ROL $FD
PRG:02A92: 55 B1    EOR $B1
PRG:02A94: 0F       .byte $0F
PRG:02A95: 26 CF    ROL $CF
PRG:02A97: 33       .byte $33
PRG:02A98: 07       .byte $07
PRG:02A99: B2       .byte $B2
PRG:02A9A: 15 11    ORA $11
PRG:02A9C: 52       .byte $52
PRG:02A9D: 42       .byte $42
PRG:02A9E: 99 0B AC STA $AC0B
PRG:02AA1: 02       .byte $02
PRG:02AA2: D3       .byte $D3
PRG:02AA3: 24 D6    BIT $D6
PRG:02AA5: 42       .byte $42
PRG:02AA6: D7       .byte $D7
PRG:02AA7: 25 23    AND $23
PRG:02AA9: 84 CF    STY $CF
PRG:02AAB: 33       .byte $33
PRG:02AAC: 07       .byte $07
PRG:02AAD: E3       .byte $E3
PRG:02AAE: 19 61 78 ORA $7861
PRG:02AB1: 7A       NOP
PRG:02AB2: EF       .byte $EF
PRG:02AB3: 33       .byte $33
PRG:02AB4: 2C 81 46 BIT $4681
PRG:02AB7: 64 55    NOP $55
PRG:02AB9: 65 65    ADC $65
PRG:02ABB: 65 EC    ADC $EC
PRG:02ABD: 74 47    NOP $47
PRG:02ABF: 82       .byte $82
PRG:02AC0: 53       .byte $53
PRG:02AC1: 05 63    ORA $63
PRG:02AC3: 21 62    AND $62
PRG:02AC5: 41 96    EOR $96
PRG:02AC7: 22       .byte $22
PRG:02AC8: 9A       TXS
PRG:02AC9: 41 CC    EOR $CC
PRG:02ACB: 03       .byte $03
PRG:02ACC: B9 91 39 LDA $3991
PRG:02ACF: F1 63    SBC $63
PRG:02AD1: 26 67    ROL $67
PRG:02AD3: 27       .byte $27
PRG:02AD4: D3       .byte $D3
PRG:02AD5: 06 FC    ASL $FC
PRG:02AD7: 01 18    ORA $18
PRG:02AD9: E2       .byte $E2
PRG:02ADA: D9 07 E9 CMP $E907
PRG:02ADD: 04 0C    NOP $0C
PRG:02ADF: 86 37    STX $37
PRG:02AE1: 22       .byte $22
PRG:02AE2: 93       .byte $93
PRG:02AE3: 24 87    BIT $87
PRG:02AE5: 84 AC    STY $AC
PRG:02AE7: 02       .byte $02
PRG:02AE8: C2       .byte $C2
PRG:02AE9: 41 C3    EOR $C3
PRG:02AEB: 23       .byte $23
PRG:02AEC: D9 71 FC CMP $FC71
PRG:02AEF: 01 7F    ORA $7F
PRG:02AF1: B1 9C    LDA $9C
PRG:02AF3: 00 A7    BRK $A7
PRG:02AF5: 63       .byte $63
PRG:02AF6: B6 64    LDX $64
PRG:02AF8: CC 00 D4 CPY $D400
PRG:02AFB: 66 E3    ROR $E3
PRG:02AFD: 67       .byte $67
PRG:02AFE: F3       .byte $F3
PRG:02AFF: 67       .byte $67
PRG:02B00: 8D C1 CF STA $CFC1
PRG:02B03: 26 FD    ROL $FD
PRG:02B05: 50 B1    BVC $B1
PRG:02B07: 0F       .byte $0F
PRG:02B08: 26 FC    ROL $FC
PRG:02B0A: 00 1F    BRK $1F
PRG:02B0C: B3       .byte $B3
PRG:02B0D: 5C 00 65 NOP $6500
PRG:02B10: 65 74    ADC $74
PRG:02B12: 66 83    ROR $83
PRG:02B14: 67       .byte $67
PRG:02B15: 93       .byte $93
PRG:02B16: 67       .byte $67
PRG:02B17: DC 73 4C NOP $4C73
PRG:02B1A: 80 B3    NOP $B3
PRG:02B1C: 20 C9 0B JSR $0BC9
PRG:02B1F: C3       .byte $C3
PRG:02B20: 08       PHP
PRG:02B21: D3       .byte $D3
PRG:02B22: 2F       .byte $2F
PRG:02B23: DC 00 2C NOP $2C00
PRG:02B26: 80 4C    NOP $4C
PRG:02B28: 00 8C    BRK $8C
PRG:02B2A: 00 D3    BRK $D3
PRG:02B2C: 2E ED 4A ROL $4AED
PRG:02B2F: FC 00 D7 NOP $D700
PRG:02B32: A1 EC    LDA $EC
PRG:02B34: 01 4C    ORA $4C
PRG:02B36: 80 59    NOP $59
PRG:02B38: 11 D8    ORA $D8
PRG:02B3A: 11 DA    ORA $DA
PRG:02B3C: 10 37    BPL $37
PRG:02B3E: A0 47    LDY $47
PRG:02B40: 04 99    NOP $99
PRG:02B42: 11 E7    ORA $E7
PRG:02B44: 21 3A    AND $3A
PRG:02B46: 90 67    BCC $67
PRG:02B48: 20 76 10 JSR $1076
PRG:02B4B: 77       .byte $77
PRG:02B4C: 60       RTS
PRG:02B4D: 87       .byte $87
PRG:02B4E: 07       .byte $07
PRG:02B4F: D8       CLD
PRG:02B50: 12       .byte $12
PRG:02B51: 39 F1 AC AND $ACF1
PRG:02B54: 00 E9    BRK $E9
PRG:02B56: 71 0C    ADC $0C
PRG:02B58: 80 2C    NOP $2C
PRG:02B5A: 00 4C    BRK $4C
PRG:02B5C: 05 C7    ORA $C7
PRG:02B5E: 7B       .byte $7B
PRG:02B5F: 39 F1 EC AND $ECF1
PRG:02B62: 00 F9    BRK $F9
PRG:02B64: 11 0C    ORA $0C
PRG:02B66: 82       .byte $82
PRG:02B67: 6F       .byte $6F
PRG:02B68: 34 F8    NOP $F8
PRG:02B6A: 11 FA    ORA $FA
PRG:02B6C: 10 7F    BPL $7F
PRG:02B6E: B2       .byte $B2
PRG:02B6F: AC 00 B6 LDY $B600
PRG:02B72: 64 CC    NOP $CC
PRG:02B74: 01 E3    ORA $E3
PRG:02B76: 67       .byte $67
PRG:02B77: F3       .byte $F3
PRG:02B78: 67       .byte $67
PRG:02B79: 8D C1 CF STA $CFC1
PRG:02B7C: 26 FD    ROL $FD
PRG:02B7E: 52       .byte $52
PRG:02B7F: B1 0F    LDA $0F
PRG:02B81: 20 6E 45 JSR $456E
PRG:02B84: 39 91 B3 AND $B391
PRG:02B87: 04 C3    NOP $C3
PRG:02B89: 21 C8    AND $C8
PRG:02B8B: 11 CA    ORA $CA
PRG:02B8D: 10 49    BPL $49
PRG:02B8F: 91 7C    STA $7C
PRG:02B91: 73       .byte $73
PRG:02B92: E8       INX
PRG:02B93: 12       .byte $12
PRG:02B94: 88       DEY
PRG:02B95: 91 8A    STA $8A
PRG:02B97: 10 E7    BPL $E7
PRG:02B99: 21 05    AND $05
PRG:02B9B: 91 07    STA $07
PRG:02B9D: 30 17    BMI $17
PRG:02B9F: 07       .byte $07
PRG:02BA0: 27       .byte $27
PRG:02BA1: 20 49 11 JSR $1149
PRG:02BA4: 9C       .byte $9C
PRG:02BA5: 01 C8    ORA $C8
PRG:02BA7: 72       .byte $72
PRG:02BA8: 23       .byte $23
PRG:02BA9: A6 27    LDX $27
PRG:02BAB: 26 D3    ROL $D3
PRG:02BAD: 03       .byte $03
PRG:02BAE: D8       CLD
PRG:02BAF: 7A       NOP
PRG:02BB0: 89       .byte $89
PRG:02BB1: 91 D8    STA $D8
PRG:02BB3: 72       .byte $72
PRG:02BB4: 39 F1 A9 AND $A9F1
PRG:02BB7: 11 09    ORA $09
PRG:02BB9: F1 63    SBC $63
PRG:02BBB: 24 67    BIT $67
PRG:02BBD: 24 D8    BIT $D8
PRG:02BBF: 62       .byte $62
PRG:02BC0: 28       PLP
PRG:02BC1: 91 2A    STA $2A
PRG:02BC3: 10 56    BPL $56
PRG:02BC5: 21 70    AND $70
PRG:02BC7: 04 79    NOP $79
PRG:02BC9: 0B       .byte $0B
PRG:02BCA: 8C 00 94 STY $9400
PRG:02BCD: 21 9F    AND $9F
PRG:02BCF: 35 2F    AND $2F
PRG:02BD1: B8       CLV
PRG:02BD2: 3D C1 7F AND $7FC1
PRG:02BD5: 26 FD    ROL $FD
PRG:02BD7: 06 C1    ASL $C1
PRG:02BD9: 4C 00 F4 JMP $F400
PRG:02BDC: 4F       .byte $4F
PRG:02BDD: 0D 02 06 ORA $0602
PRG:02BE0: 20 24 4F JSR $4F24
PRG:02BE3: 35 A0    AND $A0
PRG:02BE5: 36 20    ROL $20
PRG:02BE7: 53       .byte $53
PRG:02BE8: 46 D5    LSR $D5
PRG:02BEA: 20 D6 20 JSR $20D6
PRG:02BED: 34 A1    NOP $A1
PRG:02BEF: 73       .byte $73
PRG:02BF0: 49 74    EOR $74
PRG:02BF2: 20 94 20 JSR $2094
PRG:02BF5: B4 20    LDY $20
PRG:02BF7: D4 20    NOP $20
PRG:02BF9: F4 20    NOP $20
PRG:02BFB: 2E 80 59 ROL $5980
PRG:02BFE: 42       .byte $42
PRG:02BFF: 4D C7 FD EOR $FDC7
PRG:02C02: 96 31    STX $31
PRG:02C04: 0F       .byte $0F
PRG:02C05: 26 0D    ROL $0D
PRG:02C07: 03       .byte $03
PRG:02C08: 1A       NOP
PRG:02C09: 60       RTS
PRG:02C0A: 77       .byte $77
PRG:02C0B: 42       .byte $42
PRG:02C0C: C4 00    CPY $00
PRG:02C0E: C8       INY
PRG:02C0F: 62       .byte $62
PRG:02C10: B9 E1 D3 LDA $D3E1
PRG:02C13: 06 D7    ASL $D7
PRG:02C15: 07       .byte $07
PRG:02C16: F9 61 0C SBC $0C61
PRG:02C19: 81 4E    STA $4E
PRG:02C1B: B1 8E    LDA $8E
PRG:02C1D: B1 BC    LDA $BC
PRG:02C1F: 01 E4    ORA $E4
PRG:02C21: 50 E9    BVC $E9
PRG:02C23: 61 0C    ADC $0C
PRG:02C25: 81 0D    STA $0D
PRG:02C27: 0A       ASL
PRG:02C28: 84 43    STY $43
PRG:02C2A: 98       TYA
PRG:02C2B: 72       .byte $72
PRG:02C2C: 0D 0C 0F ORA $0F0C
PRG:02C2F: 38       SEC
PRG:02C30: 1D C1 5F ORA $5FC1
PRG:02C33: 26 FD    ROL $FD
PRG:02C35: 48       PHA
PRG:02C36: 0F       .byte $0F
PRG:02C37: 0E 01 5E ASL $5E01
PRG:02C3A: 02       .byte $02
PRG:02C3B: A7       .byte $A7
PRG:02C3C: 00 BC    BRK $BC
PRG:02C3E: 73       .byte $73
PRG:02C3F: 1A       NOP
PRG:02C40: E0 39    CPX $39
PRG:02C42: 61 58    ADC $58
PRG:02C44: 62       .byte $62
PRG:02C45: 77       .byte $77
PRG:02C46: 63       .byte $63
PRG:02C47: 97       .byte $97
PRG:02C48: 63       .byte $63
PRG:02C49: B8       CLV
PRG:02C4A: 62       .byte $62
PRG:02C4B: D6 07    DEC $07
PRG:02C4D: F8       SED
PRG:02C4E: 62       .byte $62
PRG:02C4F: 19 E1 75 ORA $75E1
PRG:02C52: 52       .byte $52
PRG:02C53: 86 40    STX $40
PRG:02C55: 87       .byte $87
PRG:02C56: 50 95    BVC $95
PRG:02C58: 52       .byte $52
PRG:02C59: 93       .byte $93
PRG:02C5A: 43       .byte $43
PRG:02C5B: A5 21    LDA $21
PRG:02C5D: C5 52    CMP $52
PRG:02C5F: D6 40    DEC $40
PRG:02C61: D7       .byte $D7
PRG:02C62: 20 E5 06 JSR $06E5
PRG:02C65: E6 51    INC $51
PRG:02C67: 3E 8D 5E ROL $5E8D
PRG:02C6A: 03       .byte $03
PRG:02C6B: 67       .byte $67
PRG:02C6C: 52       .byte $52
PRG:02C6D: 77       .byte $77
PRG:02C6E: 52       .byte $52
PRG:02C6F: 7E 02 9E ROR $9E02
PRG:02C72: 03       .byte $03
PRG:02C73: A6 43    LDX $43
PRG:02C75: A7       .byte $A7
PRG:02C76: 23       .byte $23
PRG:02C77: DE 05 FE DEC $FE05
PRG:02C7A: 02       .byte $02
PRG:02C7B: 1E 83 33 ASL $3383
PRG:02C7E: 54 46    NOP $46
PRG:02C80: 40       RTI
PRG:02C81: 47       .byte $47
PRG:02C82: 21 56    AND $56
PRG:02C84: 04 5E    NOP $5E
PRG:02C86: 02       .byte $02
PRG:02C87: 83       .byte $83
PRG:02C88: 54 93    NOP $93
PRG:02C8A: 52       .byte $52
PRG:02C8B: 96 07    STX $07
PRG:02C8D: 97       .byte $97
PRG:02C8E: 50 BE    BVC $BE
PRG:02C90: 03       .byte $03
PRG:02C91: C7       .byte $C7
PRG:02C92: 23       .byte $23
PRG:02C93: FE 02 0C INC $0C02
PRG:02C96: 82       .byte $82
PRG:02C97: 43       .byte $43
PRG:02C98: 45 45    EOR $45
PRG:02C9A: 24 46    BIT $46
PRG:02C9C: 24 90    BIT $90
PRG:02C9E: 08       PHP
PRG:02C9F: 95 51    STA $51
PRG:02CA1: 78       SEI
PRG:02CA2: FA       NOP
PRG:02CA3: D7       .byte $D7
PRG:02CA4: 73       .byte $73
PRG:02CA5: 39 F1 8C AND $8CF1
PRG:02CA8: 01 A8    ORA $A8
PRG:02CAA: 52       .byte $52
PRG:02CAB: B8       CLV
PRG:02CAC: 52       .byte $52
PRG:02CAD: CC 01 5F CPY $5F01
PRG:02CB0: B3       .byte $B3
PRG:02CB1: 97       .byte $97
PRG:02CB2: 63       .byte $63
PRG:02CB3: 9E       .byte $9E
PRG:02CB4: 00 0E    BRK $0E
PRG:02CB6: 81 16    STA $16
PRG:02CB8: 24 66    BIT $66
PRG:02CBA: 04 8E    NOP $8E
PRG:02CBC: 00 FE    BRK $FE
PRG:02CBE: 01 08    ORA $08
PRG:02CC0: D2       .byte $D2
PRG:02CC1: 0E 06 6F ASL $6F06
PRG:02CC4: 47       .byte $47
PRG:02CC5: 9E       .byte $9E
PRG:02CC6: 0F       .byte $0F
PRG:02CC7: 0E 82 2D ASL $2D82
PRG:02CCA: 47       .byte $47
PRG:02CCB: 28       PLP
PRG:02CCC: 7A       NOP
PRG:02CCD: 68       PLA
PRG:02CCE: 7A       NOP
PRG:02CCF: A8       TAY
PRG:02CD0: 7A       NOP
PRG:02CD1: AE 01 DE LDX $DE01
PRG:02CD4: 0F       .byte $0F
PRG:02CD5: 6D C5 FD ADC $FDC5
PRG:02CD8: 48       PHA
PRG:02CD9: 0F       .byte $0F
PRG:02CDA: 0E 01 5E ASL $5E01
PRG:02CDD: 02       .byte $02
PRG:02CDE: BC 01 FC LDY $FC01
PRG:02CE1: 01 2C    ORA $2C
PRG:02CE3: 82       .byte $82
PRG:02CE4: 41 52    EOR $52
PRG:02CE6: 4E 04 67 LSR $6704
PRG:02CE9: 25 68    AND $68
PRG:02CEB: 24 69    BIT $69
PRG:02CED: 24 BA    BIT $BA
PRG:02CEF: 42       .byte $42
PRG:02CF0: C7       .byte $C7
PRG:02CF1: 04 DE    NOP $DE
PRG:02CF3: 0B       .byte $0B
PRG:02CF4: B2       .byte $B2
PRG:02CF5: 87       .byte $87
PRG:02CF6: FE 02 2C INC $2C02
PRG:02CF9: E1 2C    SBC $2C
PRG:02CFB: 71 67    ADC $67
PRG:02CFD: 01 77    ORA $77
PRG:02CFF: 00 87    BRK $87
PRG:02D01: 01 8E    ORA $8E
PRG:02D03: 00 EE    BRK $EE
PRG:02D05: 01 F6    ORA $F6
PRG:02D07: 02       .byte $02
PRG:02D08: 03       .byte $03
PRG:02D09: 85 05    STA $05
PRG:02D0B: 02       .byte $02
PRG:02D0C: 13       .byte $13
PRG:02D0D: 21 16    AND $16
PRG:02D0F: 02       .byte $02
PRG:02D10: 27       .byte $27
PRG:02D11: 02       .byte $02
PRG:02D12: 2E 02 88 ROL $8802
PRG:02D15: 72       .byte $72
PRG:02D16: C7       .byte $C7
PRG:02D17: 20 D7 07 JSR $07D7
PRG:02D1A: E4 76    CPX $76
PRG:02D1C: 07       .byte $07
PRG:02D1D: A0 17    LDY $17
PRG:02D1F: 06 48    ASL $48
PRG:02D21: 7A       NOP
PRG:02D22: 76 20    ROR $20
PRG:02D24: 98       TYA
PRG:02D25: 72       .byte $72
PRG:02D26: 79 E1 88 ADC $88E1
PRG:02D29: 62       .byte $62
PRG:02D2A: 9C       .byte $9C
PRG:02D2B: 01 B7    ORA $B7
PRG:02D2D: 73       .byte $73
PRG:02D2E: DC 01 F8 NOP $F801
PRG:02D31: 62       .byte $62
PRG:02D32: FE 01 08 INC $0801
PRG:02D35: E2       .byte $E2
PRG:02D36: 0E 00 6E ASL $6E00
PRG:02D39: 02       .byte $02
PRG:02D3A: 73       .byte $73
PRG:02D3B: 20 77 23 JSR $2377
PRG:02D3E: 83       .byte $83
PRG:02D3F: 04 93    NOP $93
PRG:02D41: 20 AE 00 JSR $00AE
PRG:02D44: FE 0A 0E INC $0E0A
PRG:02D47: 82       .byte $82
PRG:02D48: 39 71 A8 AND $A871
PRG:02D4B: 72       .byte $72
PRG:02D4C: E7       .byte $E7
PRG:02D4D: 73       .byte $73
PRG:02D4E: 0C 81 8F NOP $8F81
PRG:02D51: 32       .byte $32
PRG:02D52: AE 00 FE LDX $FE00
PRG:02D55: 04 04    NOP $04
PRG:02D57: D1 17    CMP $17
PRG:02D59: 04 26    NOP $26
PRG:02D5B: 49 27    EOR $27
PRG:02D5D: 29 DF    AND $DF
PRG:02D5F: 33       .byte $33
PRG:02D60: FE 02 44 INC $4402
PRG:02D63: F6 7C    INC $7C
PRG:02D65: 01 8E    ORA $8E
PRG:02D67: 06 BF    ASL $BF
PRG:02D69: 47       .byte $47
PRG:02D6A: EE 0F 4D INC $4D0F
PRG:02D6D: C7       .byte $C7
PRG:02D6E: 0E 82 68 ASL $6882
PRG:02D71: 7A       NOP
PRG:02D72: AE 01 DE LDX $DE01
PRG:02D75: 0F       .byte $0F
PRG:02D76: 6D C5 FD ADC $FDC5
PRG:02D79: 48       PHA
PRG:02D7A: 01 0E    ORA $0E
PRG:02D7C: 01 00    ORA $00
PRG:02D7E: 5A       NOP
PRG:02D7F: 3E 06 45 ROL $4506
PRG:02D82: 46 47    LSR $47
PRG:02D84: 46 53    LSR $53
PRG:02D86: 44 AE    NOP $AE
PRG:02D88: 01 DF    ORA $DF
PRG:02D8A: 4A       LSR
PRG:02D8B: 4D C7 0E EOR $0EC7
PRG:02D8E: 81 00    STA $00
PRG:02D90: 5A       NOP
PRG:02D91: 2E 04 37 ROL $3704
PRG:02D94: 28       PLP
PRG:02D95: 3A       NOP
PRG:02D96: 48       PHA
PRG:02D97: 46 47    LSR $47
PRG:02D99: C7       .byte $C7
PRG:02D9A: 07       .byte $07
PRG:02D9B: CE 0F DF DEC $DF0F
PRG:02D9E: 4A       LSR
PRG:02D9F: 4D C7 0E EOR $0EC7
PRG:02DA2: 81 00    STA $00
PRG:02DA4: 5A       NOP
PRG:02DA5: 33       .byte $33
PRG:02DA6: 53       .byte $53
PRG:02DA7: 43       .byte $43
PRG:02DA8: 51 46    EOR $46
PRG:02DAA: 40       RTI
PRG:02DAB: 47       .byte $47
PRG:02DAC: 50 53    BVC $53
PRG:02DAE: 04 55    NOP $55
PRG:02DB0: 40       RTI
PRG:02DB1: 56 50    LSR $50
PRG:02DB3: 62       .byte $62
PRG:02DB4: 43       .byte $43
PRG:02DB5: 64 40    NOP $40
PRG:02DB7: 65 50    ADC $50
PRG:02DB9: 71 41    ADC $41
PRG:02DBB: 73       .byte $73
PRG:02DBC: 51 83    EOR $83
PRG:02DBE: 51 94    EOR $94
PRG:02DC0: 40       RTI
PRG:02DC1: 95 50    STA $50
PRG:02DC3: A3       .byte $A3
PRG:02DC4: 50 A5    BVC $A5
PRG:02DC6: 40       RTI
PRG:02DC7: A6 50    LDX $50
PRG:02DC9: B3       .byte $B3
PRG:02DCA: 51 B6    EOR $B6
PRG:02DCC: 40       RTI
PRG:02DCD: B7       .byte $B7
PRG:02DCE: 50 C3    BVC $C3
PRG:02DD0: 53       .byte $53
PRG:02DD1: DF       .byte $DF
PRG:02DD2: 4A       LSR
PRG:02DD3: 4D C7 0E EOR $0EC7
PRG:02DD6: 81 00    STA $00
PRG:02DD8: 5A       NOP
PRG:02DD9: 2E 02 36 ROL $3602
PRG:02DDC: 47       .byte $47
PRG:02DDD: 37       .byte $37
PRG:02DDE: 52       .byte $52
PRG:02DDF: 3A       NOP
PRG:02DE0: 49 47    EOR $47
PRG:02DE2: 25 A7    AND $A7
PRG:02DE4: 52       .byte $52
PRG:02DE5: D7       .byte $D7
PRG:02DE6: 04 DF    NOP $DF
PRG:02DE8: 4A       LSR
PRG:02DE9: 4D C7 0E EOR $0EC7
PRG:02DEC: 81 00    STA $00
PRG:02DEE: 5A       NOP
PRG:02DEF: 3E 02 44 ROL $4402
PRG:02DF2: 51 53    EOR $53
PRG:02DF4: 44 54    NOP $54
PRG:02DF6: 44 55    NOP $55
PRG:02DF8: 24 A1    BIT $A1
PRG:02DFA: 54 AE    NOP $AE
PRG:02DFC: 01 B4    ORA $B4
PRG:02DFE: 21 DF    AND $DF
PRG:02E00: 4A       LSR
PRG:02E01: E5 07    SBC $07
PRG:02E03: 4D C7 FD EOR $FDC7
PRG:02E06: 41 01    EOR $01
PRG:02E08: B4 34    LDY $34
PRG:02E0A: C8       INY
PRG:02E0B: 52       .byte $52
PRG:02E0C: F2       .byte $F2
PRG:02E0D: 51 47    EOR $47
PRG:02E0F: D3       .byte $D3
PRG:02E10: 6C 03 65 JMP $6503
PRG:02E13: 49 9E    EOR $9E
PRG:02E15: 07       .byte $07
PRG:02E16: BE 01 CC LDX $CC01
PRG:02E19: 03       .byte $03
PRG:02E1A: FE 07 0D INC $0D07
PRG:02E1D: C9 1E    CMP $1E
PRG:02E1F: 01 6C    ORA $6C
PRG:02E21: 01 62    ORA $62
PRG:02E23: 35 63    AND $63
PRG:02E25: 53       .byte $53
PRG:02E26: 8A       TXA
PRG:02E27: 41 AC    EOR $AC
PRG:02E29: 01 B3    ORA $B3
PRG:02E2B: 53       .byte $53
PRG:02E2C: E9 51    SBC $51
PRG:02E2E: 26 C3    ROL $C3
PRG:02E30: 27       .byte $27
PRG:02E31: 33       .byte $33
PRG:02E32: 63       .byte $63
PRG:02E33: 43       .byte $43
PRG:02E34: 64 33    NOP $33
PRG:02E36: BA       TSX
PRG:02E37: 60       RTS
PRG:02E38: C9 61    CMP $61
PRG:02E3A: CE 0B E5 DEC $E50B
PRG:02E3D: 09 EE    ORA $EE
PRG:02E3F: 0F       .byte $0F
PRG:02E40: 7D CA 7D ADC $7DCA
PRG:02E43: 47       .byte $47
PRG:02E44: FD 41 01 SBC $0141
PRG:02E47: B8       CLV
PRG:02E48: 52       .byte $52
PRG:02E49: EA       NOP
PRG:02E4A: 41 27    EOR $27
PRG:02E4C: B2       .byte $B2
PRG:02E4D: B3       .byte $B3
PRG:02E4E: 42       .byte $42
PRG:02E4F: 16 D4    ASL $D4
PRG:02E51: 4A       LSR
PRG:02E52: 42       .byte $42
PRG:02E53: A5 51    LDA $51
PRG:02E55: A7       .byte $A7
PRG:02E56: 31 27    AND $27
PRG:02E58: D3       .byte $D3
PRG:02E59: 08       PHP
PRG:02E5A: E2       .byte $E2
PRG:02E5B: 16 64    ASL $64
PRG:02E5D: 2C 04 38 BIT $3804
PRG:02E60: 42       .byte $42
PRG:02E61: 76 64    ROR $64
PRG:02E63: 88       DEY
PRG:02E64: 62       .byte $62
PRG:02E65: DE 07 FE DEC $FE07
PRG:02E68: 01 0D    ORA $0D
PRG:02E6A: C9 23    CMP $23
PRG:02E6C: 32       .byte $32
PRG:02E6D: 31 51    AND $51
PRG:02E6F: 98       TYA
PRG:02E70: 52       .byte $52
PRG:02E71: 0D C9 59 ORA $59C9
PRG:02E74: 42       .byte $42
PRG:02E75: 63       .byte $63
PRG:02E76: 53       .byte $53
PRG:02E77: 67       .byte $67
PRG:02E78: 31 14    AND $14
PRG:02E7A: C2       .byte $C2
PRG:02E7B: 36 31    ROL $31
PRG:02E7D: 87       .byte $87
PRG:02E7E: 53       .byte $53
PRG:02E7F: 17       .byte $17
PRG:02E80: E3       .byte $E3
PRG:02E81: 29 61    AND $61
PRG:02E83: 30 62    BMI $62
PRG:02E85: 3C 08 42 NOP $4208
PRG:02E88: 37       .byte $37
PRG:02E89: 59 40 6A EOR $6A40
PRG:02E8C: 42       .byte $42
PRG:02E8D: 99 40 C9 STA $C940
PRG:02E90: 61 D7    ADC $D7
PRG:02E92: 63       .byte $63
PRG:02E93: 39 D1 58 AND $58D1
PRG:02E96: 52       .byte $52
PRG:02E97: C3       .byte $C3
PRG:02E98: 67       .byte $67
PRG:02E99: D3       .byte $D3
PRG:02E9A: 31 DC    AND $DC
PRG:02E9C: 06 F7    ASL $F7
PRG:02E9E: 42       .byte $42
PRG:02E9F: FA       NOP
PRG:02EA0: 42       .byte $42
PRG:02EA1: 23       .byte $23
PRG:02EA2: B1 43    LDA $43
PRG:02EA4: 67       .byte $67
PRG:02EA5: C3       .byte $C3
PRG:02EA6: 34 C7    NOP $C7
PRG:02EA8: 34 D1    NOP $D1
PRG:02EAA: 51 43    EOR $43
PRG:02EAC: B3       .byte $B3
PRG:02EAD: 47       .byte $47
PRG:02EAE: 33       .byte $33
PRG:02EAF: 9A       TXS
PRG:02EB0: 30 A9    BMI $A9
PRG:02EB2: 61 B8    ADC $B8
PRG:02EB4: 62       .byte $62
PRG:02EB5: BE 0B D5 LDX $D50B
PRG:02EB8: 09 DE    ORA $DE
PRG:02EBA: 0F       .byte $0F
PRG:02EBB: 0D CA 7D ORA $7DCA
PRG:02EBE: 47       .byte $47
PRG:02EBF: FD 49 0F SBC $0F49
PRG:02EC2: 1E 01 39 ASL $3901
PRG:02EC5: 73       .byte $73
PRG:02EC6: 5E 07 AE LSR $AE07
PRG:02EC9: 0B       .byte $0B
PRG:02ECA: 1E 82 6E ASL $6E82
PRG:02ECD: 88       DEY
PRG:02ECE: 9E       .byte $9E
PRG:02ECF: 02       .byte $02
PRG:02ED0: 0D 04 2E ORA $2E04
PRG:02ED3: 0B       .byte $0B
PRG:02ED4: 45 09    EOR $09
PRG:02ED6: 4E 0F ED LSR $ED0F
PRG:02ED9: 47       .byte $47
PRG:02EDA: FD FF AD SBC $ADFF
PRG:02EDD: 72       .byte $72
PRG:02EDE: 07       .byte $07
PRG:02EDF: 20 04 8E JSR $8E04
PRG:02EE2: E4 8F    CPX $8F
PRG:02EE4: 67       .byte $67
PRG:02EE5: 85 71    STA $71
PRG:02EE7: 90 EA    BCC $EA
PRG:02EE9: AE AE 53 LDX $53AE
PRG:02EEC: 07       .byte $07
PRG:02EED: BD FC 06 LDA $06FC
PRG:02EF0: 8D FC 06 STA $06FC
PRG:02EF3: 20 4A B0 JSR $B04A
PRG:02EF6: AD 72 07 LDA $0772
PRG:02EF9: C9 03    CMP $03
PRG:02EFB: B0 01    BCS $01
PRG:02EFD: 60       RTS
PRG:02EFE: 20 24 B6 JSR $B624
PRG:02F01: A2 00    LDX $00
PRG:02F03: 86 08    STX $08
PRG:02F05: 20 47 C0 JSR $C047
PRG:02F08: 20 C3 84 JSR $84C3
PRG:02F0B: E8       INX
PRG:02F0C: E0 06    CPX $06
PRG:02F0E: D0 F3    BNE $F3
PRG:02F10: 20 80 F1 JSR $F180
PRG:02F13: 20 2A F1 JSR $F12A
PRG:02F16: 20 E9 EE JSR $EEE9
PRG:02F19: 20 D4 BE JSR $BED4
PRG:02F1C: A2 01    LDX $01
PRG:02F1E: 86 08    STX $08
PRG:02F20: 20 70 BE JSR $BE70
PRG:02F23: CA       DEX
PRG:02F24: 86 08    STX $08
PRG:02F26: 20 70 BE JSR $BE70
PRG:02F29: 20 96 BB JSR $BB96
PRG:02F2C: 20 BC B9 JSR $B9BC
PRG:02F2F: 20 B8 B7 JSR $B7B8
PRG:02F32: 20 55 B8 JSR $B855
PRG:02F35: 20 4F B7 JSR $B74F
PRG:02F38: 20 E1 89 JSR $89E1
PRG:02F3B: A5 B5    LDA $B5
PRG:02F3D: C9 02    CMP $02
PRG:02F3F: 10 11    BPL $11
PRG:02F41: AD 9F 07 LDA $079F
PRG:02F44: F0 1E    BEQ $1E
PRG:02F46: C9 04    CMP $04
PRG:02F48: D0 08    BNE $08
PRG:02F4A: AD 7F 07 LDA $077F
PRG:02F4D: D0 03    BNE $03
PRG:02F4F: 20 ED 90 JSR $90ED
PRG:02F52: AC 9F 07 LDY $079F
PRG:02F55: A5 09    LDA $09
PRG:02F57: C0 08    CPY $08
PRG:02F59: B0 02    BCS $02
PRG:02F5B: 4A       LSR
PRG:02F5C: 4A       LSR
PRG:02F5D: 4A       LSR
PRG:02F5E: 20 88 B2 JSR $B288
PRG:02F61: 4C 67 AF JMP $AF67
PRG:02F64: 20 9A B2 JSR $B29A
PRG:02F67: A5 0A    LDA $0A
PRG:02F69: 85 0D    STA $0D
PRG:02F6B: A9 00    LDA $00
PRG:02F6D: 85 0C    STA $0C
PRG:02F6F: AD 73 07 LDA $0773
PRG:02F72: C9 06    CMP $06
PRG:02F74: F0 1C    BEQ $1C
PRG:02F76: AD 1F 07 LDA $071F
PRG:02F79: D0 14    BNE $14
PRG:02F7B: AD 3D 07 LDA $073D
PRG:02F7E: C9 20    CMP $20
PRG:02F80: 30 10    BMI $10
PRG:02F82: AD 3D 07 LDA $073D
PRG:02F85: E9 20    SBC $20
PRG:02F87: 8D 3D 07 STA $073D
PRG:02F8A: A9 00    LDA $00
PRG:02F8C: 8D 40 03 STA $0340
PRG:02F8F: 20 B0 92 JSR $92B0
PRG:02F92: 60       RTS
PRG:02F93: AD FF 06 LDA $06FF
PRG:02F96: 18       CLC
PRG:02F97: 6D A1 03 ADC $03A1
PRG:02F9A: 8D FF 06 STA $06FF
PRG:02F9D: AD 23 07 LDA $0723
PRG:02FA0: D0 59    BNE $59
PRG:02FA2: AD 55 07 LDA $0755
PRG:02FA5: C9 50    CMP $50
PRG:02FA7: 90 52    BCC $52
PRG:02FA9: AD 85 07 LDA $0785
PRG:02FAC: D0 4D    BNE $4D
PRG:02FAE: AC FF 06 LDY $06FF
PRG:02FB1: 88       DEY
PRG:02FB2: 30 47    BMI $47
PRG:02FB4: C8       INY
PRG:02FB5: C0 02    CPY $02
PRG:02FB7: 90 01    BCC $01
PRG:02FB9: 88       DEY
PRG:02FBA: AD 55 07 LDA $0755
PRG:02FBD: C9 70    CMP $70
PRG:02FBF: 90 03    BCC $03
PRG:02FC1: AC FF 06 LDY $06FF
PRG:02FC4: 98       TYA
PRG:02FC5: 8D 75 07 STA $0775
PRG:02FC8: 18       CLC
PRG:02FC9: 6D 3D 07 ADC $073D
PRG:02FCC: 8D 3D 07 STA $073D
PRG:02FCF: 98       TYA
PRG:02FD0: 18       CLC
PRG:02FD1: 6D 1C 07 ADC $071C
PRG:02FD4: 8D 1C 07 STA $071C
PRG:02FD7: 8D 3F 07 STA $073F
PRG:02FDA: AD 1A 07 LDA $071A
PRG:02FDD: 69 00    ADC $00
PRG:02FDF: 8D 1A 07 STA $071A
PRG:02FE2: 29 01    AND $01
PRG:02FE4: 85 00    STA $00
PRG:02FE6: AD 78 07 LDA $0778
PRG:02FE9: 29 FE    AND $FE
PRG:02FEB: 05 00    ORA $00
PRG:02FED: 8D 78 07 STA $0778
PRG:02FF0: 20 38 B0 JSR $B038
PRG:02FF3: A9 08    LDA $08
PRG:02FF5: 8D 95 07 STA $0795
PRG:02FF8: 4C 00 B0 JMP $B000
PRG:02FFB: A9 00    LDA $00
PRG:02FFD: 8D 75 07 STA $0775
PRG:03000: A2 00    LDX $00
PRG:03002: 20 F6 F1 JSR $F1F6
PRG:03005: 85 00    STA $00
PRG:03007: A0 00    LDY $00
PRG:03009: 0A       ASL
PRG:0300A: B0 07    BCS $07
PRG:0300C: C8       INY
PRG:0300D: A5 00    LDA $00
PRG:0300F: 29 20    AND $20
PRG:03011: F0 1B    BEQ $1B
PRG:03013: B9 1C 07 LDA $071C
PRG:03016: 38       SEC
PRG:03017: F9 34 B0 SBC $B034
PRG:0301A: 85 86    STA $86
PRG:0301C: B9 1A 07 LDA $071A
PRG:0301F: E9 00    SBC $00
PRG:03021: 85 6D    STA $6D
PRG:03023: A5 0C    LDA $0C
PRG:03025: D9 36 B0 CMP $B036
PRG:03028: F0 04    BEQ $04
PRG:0302A: A9 00    LDA $00
PRG:0302C: 85 57    STA $57
PRG:0302E: A9 00    LDA $00
PRG:03030: 8D A1 03 STA $03A1
PRG:03033: 60       RTS
PRG:03034: 00 10    BRK $10
PRG:03036: 01 02    ORA $02
PRG:03038: AD 1C 07 LDA $071C
PRG:0303B: 18       CLC
PRG:0303C: 69 FF    ADC $FF
PRG:0303E: 8D 1D 07 STA $071D
PRG:03041: AD 1A 07 LDA $071A
PRG:03044: 69 00    ADC $00
PRG:03046: 8D 1B 07 STA $071B
PRG:03049: 60       RTS
PRG:0304A: A5 0E    LDA $0E
PRG:0304C: 20 04 8E JSR $8E04
PRG:0304F: 31 91    AND $91
PRG:03051: C7       .byte $C7
PRG:03052: B1 06    LDA $06
PRG:03054: B2       .byte $B2
PRG:03055: E5 B1    SBC $B1
PRG:03057: A4 B2    LDY $B2
PRG:03059: CA       DEX
PRG:0305A: B2       .byte $B2
PRG:0305B: CD 91 69 CMP $6991
PRG:0305E: B0 E9    BCS $E9
PRG:03060: B0 33    BCS $33
PRG:03062: B2       .byte $B2
PRG:03063: 45 B2    EOR $B2
PRG:03065: 69 B2    ADC $B2
PRG:03067: 7D B2 AD ADC $ADB2
PRG:0306A: 52       .byte $52
PRG:0306B: 07       .byte $07
PRG:0306C: C9 02    CMP $02
PRG:0306E: F0 2B    BEQ $2B
PRG:03070: A9 00    LDA $00
PRG:03072: A4 CE    LDY $CE
PRG:03074: C0 30    CPY $30
PRG:03076: 90 6E    BCC $6E
PRG:03078: AD 10 07 LDA $0710
PRG:0307B: C9 06    CMP $06
PRG:0307D: F0 04    BEQ $04
PRG:0307F: C9 07    CMP $07
PRG:03081: D0 50    BNE $50
PRG:03083: AD C4 03 LDA $03C4
PRG:03086: D0 05    BNE $05
PRG:03088: A9 01    LDA $01
PRG:0308A: 4C E6 B0 JMP $B0E6
PRG:0308D: 20 1F B2 JSR $B21F
PRG:03090: CE DE 06 DEC $06DE
PRG:03093: D0 50    BNE $50
PRG:03095: EE 69 07 INC $0769
PRG:03098: 4C 15 B3 JMP $B315
PRG:0309B: AD 58 07 LDA $0758
PRG:0309E: D0 0C    BNE $0C
PRG:030A0: A9 FF    LDA $FF
PRG:030A2: 20 00 B2 JSR $B200
PRG:030A5: A5 CE    LDA $CE
PRG:030A7: C9 91    CMP $91
PRG:030A9: 90 28    BCC $28
PRG:030AB: 60       RTS
PRG:030AC: AD 99 03 LDA $0399
PRG:030AF: C9 60    CMP $60
PRG:030B1: D0 32    BNE $32
PRG:030B3: A5 CE    LDA $CE
PRG:030B5: C9 99    CMP $99
PRG:030B7: A0 00    LDY $00
PRG:030B9: A9 01    LDA $01
PRG:030BB: 90 0A    BCC $0A
PRG:030BD: A9 03    LDA $03
PRG:030BF: 85 1D    STA $1D
PRG:030C1: C8       INY
PRG:030C2: A9 08    LDA $08
PRG:030C4: 8D B4 05 STA $05B4
PRG:030C7: 8C 16 07 STY $0716
PRG:030CA: 20 E6 B0 JSR $B0E6
PRG:030CD: A5 86    LDA $86
PRG:030CF: C9 48    CMP $48
PRG:030D1: 90 12    BCC $12
PRG:030D3: A9 08    LDA $08
PRG:030D5: 85 0E    STA $0E
PRG:030D7: A9 01    LDA $01
PRG:030D9: 85 33    STA $33
PRG:030DB: 4A       LSR
PRG:030DC: 8D 52 07 STA $0752
PRG:030DF: 8D 16 07 STA $0716
PRG:030E2: 8D 58 07 STA $0758
PRG:030E5: 60       RTS
PRG:030E6: 8D FC 06 STA $06FC
PRG:030E9: A5 0E    LDA $0E
PRG:030EB: C9 0B    CMP $0B
PRG:030ED: F0 3C    BEQ $3C
PRG:030EF: AD 4E 07 LDA $074E
PRG:030F2: D0 10    BNE $10
PRG:030F4: A4 B5    LDY $B5
PRG:030F6: 88       DEY
PRG:030F7: D0 06    BNE $06
PRG:030F9: A5 CE    LDA $CE
PRG:030FB: C9 D0    CMP $D0
PRG:030FD: 90 05    BCC $05
PRG:030FF: A9 00    LDA $00
PRG:03101: 8D FC 06 STA $06FC
PRG:03104: AD FC 06 LDA $06FC
PRG:03107: 29 C0    AND $C0
PRG:03109: 85 0A    STA $0A
PRG:0310B: AD FC 06 LDA $06FC
PRG:0310E: 29 03    AND $03
PRG:03110: 85 0C    STA $0C
PRG:03112: AD FC 06 LDA $06FC
PRG:03115: 29 0C    AND $0C
PRG:03117: 85 0B    STA $0B
PRG:03119: 29 04    AND $04
PRG:0311B: F0 0E    BEQ $0E
PRG:0311D: A5 1D    LDA $1D
PRG:0311F: D0 0A    BNE $0A
PRG:03121: A4 0C    LDY $0C
PRG:03123: F0 06    BEQ $06
PRG:03125: A9 00    LDA $00
PRG:03127: 85 0C    STA $0C
PRG:03129: 85 0B    STA $0B
PRG:0312B: 20 29 B3 JSR $B329
PRG:0312E: A0 01    LDY $01
PRG:03130: AD 54 07 LDA $0754
PRG:03133: D0 09    BNE $09
PRG:03135: A0 00    LDY $00
PRG:03137: AD 14 07 LDA $0714
PRG:0313A: F0 02    BEQ $02
PRG:0313C: A0 02    LDY $02
PRG:0313E: 8C 99 04 STY $0499
PRG:03141: A9 01    LDA $01
PRG:03143: A4 57    LDY $57
PRG:03145: F0 05    BEQ $05
PRG:03147: 10 01    BPL $01
PRG:03149: 0A       ASL
PRG:0314A: 85 45    STA $45
PRG:0314C: 20 93 AF JSR $AF93
PRG:0314F: 20 80 F1 JSR $F180
PRG:03152: 20 2A F1 JSR $F12A
PRG:03155: A2 00    LDX $00
PRG:03157: 20 9C E2 JSR $E29C
PRG:0315A: 20 64 DC JSR $DC64
PRG:0315D: A5 CE    LDA $CE
PRG:0315F: C9 40    CMP $40
PRG:03161: 90 16    BCC $16
PRG:03163: A5 0E    LDA $0E
PRG:03165: C9 05    CMP $05
PRG:03167: F0 10    BEQ $10
PRG:03169: C9 07    CMP $07
PRG:0316B: F0 0C    BEQ $0C
PRG:0316D: C9 04    CMP $04
PRG:0316F: 90 08    BCC $08
PRG:03171: AD C4 03 LDA $03C4
PRG:03174: 29 DF    AND $DF
PRG:03176: 8D C4 03 STA $03C4
PRG:03179: A5 B5    LDA $B5
PRG:0317B: C9 02    CMP $02
PRG:0317D: 30 3B    BMI $3B
PRG:0317F: A2 01    LDX $01
PRG:03181: 8E 23 07 STX $0723
PRG:03184: A0 04    LDY $04
PRG:03186: 84 07    STY $07
PRG:03188: A2 00    LDX $00
PRG:0318A: AC 59 07 LDY $0759
PRG:0318D: D0 05    BNE $05
PRG:0318F: AC 43 07 LDY $0743
PRG:03192: D0 16    BNE $16
PRG:03194: E8       INX
PRG:03195: A4 0E    LDY $0E
PRG:03197: C0 0B    CPY $0B
PRG:03199: F0 0F    BEQ $0F
PRG:0319B: AC 12 07 LDY $0712
PRG:0319E: D0 06    BNE $06
PRG:031A0: C8       INY
PRG:031A1: 84 FC    STY $FC
PRG:031A3: 8C 12 07 STY $0712
PRG:031A6: A0 06    LDY $06
PRG:031A8: 84 07    STY $07
PRG:031AA: C5 07    CMP $07
PRG:031AC: 30 0C    BMI $0C
PRG:031AE: CA       DEX
PRG:031AF: 30 0A    BMI $0A
PRG:031B1: AC B1 07 LDY $07B1
PRG:031B4: D0 04    BNE $04
PRG:031B6: A9 06    LDA $06
PRG:031B8: 85 0E    STA $0E
PRG:031BA: 60       RTS
PRG:031BB: A9 00    LDA $00
PRG:031BD: 8D 58 07 STA $0758
PRG:031C0: 20 DD B1 JSR $B1DD
PRG:031C3: EE 52 07 INC $0752
PRG:031C6: 60       RTS
PRG:031C7: A5 B5    LDA $B5
PRG:031C9: D0 06    BNE $06
PRG:031CB: A5 CE    LDA $CE
PRG:031CD: C9 E4    CMP $E4
PRG:031CF: 90 0C    BCC $0C
PRG:031D1: A9 08    LDA $08
PRG:031D3: 8D 58 07 STA $0758
PRG:031D6: A0 03    LDY $03
PRG:031D8: 84 1D    STY $1D
PRG:031DA: 4C E6 B0 JMP $B0E6
PRG:031DD: A9 02    LDA $02
PRG:031DF: 8D 52 07 STA $0752
PRG:031E2: 4C 13 B2 JMP $B213
PRG:031E5: A9 01    LDA $01
PRG:031E7: 20 00 B2 JSR $B200
PRG:031EA: 20 93 AF JSR $AF93
PRG:031ED: A0 00    LDY $00
PRG:031EF: AD D6 06 LDA $06D6
PRG:031F2: D0 17    BNE $17
PRG:031F4: C8       INY
PRG:031F5: AD 4E 07 LDA $074E
PRG:031F8: C9 03    CMP $03
PRG:031FA: D0 0F    BNE $0F
PRG:031FC: C8       INY
PRG:031FD: 4C 0B B2 JMP $B20B
PRG:03200: 18       CLC
PRG:03201: 65 CE    ADC $CE
PRG:03203: 85 CE    STA $CE
PRG:03205: 60       RTS
PRG:03206: 20 1F B2 JSR $B21F
PRG:03209: A0 02    LDY $02
PRG:0320B: CE DE 06 DEC $06DE
PRG:0320E: D0 0E    BNE $0E
PRG:03210: 8C 52 07 STY $0752
PRG:03213: EE 74 07 INC $0774
PRG:03216: A9 00    LDA $00
PRG:03218: 8D 72 07 STA $0772
PRG:0321B: 8D 22 07 STA $0722
PRG:0321E: 60       RTS
PRG:0321F: A9 08    LDA $08
PRG:03221: 85 57    STA $57
PRG:03223: A0 01    LDY $01
PRG:03225: A5 86    LDA $86
PRG:03227: 29 0F    AND $0F
PRG:03229: D0 03    BNE $03
PRG:0322B: 85 57    STA $57
PRG:0322D: A8       TAY
PRG:0322E: 98       TYA
PRG:0322F: 20 E6 B0 JSR $B0E6
PRG:03232: 60       RTS
PRG:03233: AD 47 07 LDA $0747
PRG:03236: C9 F8    CMP $F8
PRG:03238: D0 03    BNE $03
PRG:0323A: 4C 55 B2 JMP $B255
PRG:0323D: C9 C4    CMP $C4
PRG:0323F: D0 03    BNE $03
PRG:03241: 20 73 B2 JSR $B273
PRG:03244: 60       RTS
PRG:03245: AD 47 07 LDA $0747
PRG:03248: C9 F0    CMP $F0
PRG:0324A: B0 07    BCS $07
PRG:0324C: C9 C8    CMP $C8
PRG:0324E: F0 23    BEQ $23
PRG:03250: 4C E9 B0 JMP $B0E9
PRG:03253: D0 13    BNE $13
PRG:03255: AC 0B 07 LDY $070B
PRG:03258: D0 0E    BNE $0E
PRG:0325A: 8C 0D 07 STY $070D
PRG:0325D: EE 0B 07 INC $070B
PRG:03260: AD 54 07 LDA $0754
PRG:03263: 49 01    EOR $01
PRG:03265: 8D 54 07 STA $0754
PRG:03268: 60       RTS
PRG:03269: AD 47 07 LDA $0747
PRG:0326C: C9 F0    CMP $F0
PRG:0326E: B0 33    BCS $33
PRG:03270: 4C E9 B0 JMP $B0E9
PRG:03273: A9 00    LDA $00
PRG:03275: 8D 47 07 STA $0747
PRG:03278: A9 08    LDA $08
PRG:0327A: 85 0E    STA $0E
PRG:0327C: 60       RTS
PRG:0327D: AD 47 07 LDA $0747
PRG:03280: C9 C0    CMP $C0
PRG:03282: F0 13    BEQ $13
PRG:03284: A5 09    LDA $09
PRG:03286: 4A       LSR
PRG:03287: 4A       LSR
PRG:03288: 29 03    AND $03
PRG:0328A: 85 00    STA $00
PRG:0328C: AD C4 03 LDA $03C4
PRG:0328F: 29 FC    AND $FC
PRG:03291: 05 00    ORA $00
PRG:03293: 8D C4 03 STA $03C4
PRG:03296: 60       RTS
PRG:03297: 20 73 B2 JSR $B273
PRG:0329A: AD C4 03 LDA $03C4
PRG:0329D: 29 FC    AND $FC
PRG:0329F: 8D C4 03 STA $03C4
PRG:032A2: 60       RTS
PRG:032A3: 60       RTS
PRG:032A4: A5 1B    LDA $1B
PRG:032A6: C9 30    CMP $30
PRG:032A8: D0 15    BNE $15
PRG:032AA: AD 13 07 LDA $0713
PRG:032AD: 85 FF    STA $FF
PRG:032AF: A9 00    LDA $00
PRG:032B1: 8D 13 07 STA $0713
PRG:032B4: A4 CE    LDY $CE
PRG:032B6: C0 9E    CPY $9E
PRG:032B8: B0 02    BCS $02
PRG:032BA: A9 04    LDA $04
PRG:032BC: 4C E6 B0 JMP $B0E6
PRG:032BF: E6 0E    INC $0E
PRG:032C1: 60       RTS
PRG:032C2: 15 23    ORA $23
PRG:032C4: 16 1B    ASL $1B
PRG:032C6: 17       .byte $17
PRG:032C7: 18       CLC
PRG:032C8: 23       .byte $23
PRG:032C9: 63       .byte $63
PRG:032CA: A9 01    LDA $01
PRG:032CC: 20 E6 B0 JSR $B0E6
PRG:032CF: A5 CE    LDA $CE
PRG:032D1: C9 AE    CMP $AE
PRG:032D3: 90 0E    BCC $0E
PRG:032D5: AD 23 07 LDA $0723
PRG:032D8: F0 09    BEQ $09
PRG:032DA: A9 20    LDA $20
PRG:032DC: 85 FC    STA $FC
PRG:032DE: A9 00    LDA $00
PRG:032E0: 8D 23 07 STA $0723
PRG:032E3: AD 90 04 LDA $0490
PRG:032E6: 4A       LSR
PRG:032E7: B0 0D    BCS $0D
PRG:032E9: AD 46 07 LDA $0746
PRG:032EC: D0 03    BNE $03
PRG:032EE: EE 46 07 INC $0746
PRG:032F1: A9 20    LDA $20
PRG:032F3: 8D C4 03 STA $03C4
PRG:032F6: AD 46 07 LDA $0746
PRG:032F9: C9 05    CMP $05
PRG:032FB: D0 2B    BNE $2B
PRG:032FD: EE 5C 07 INC $075C
PRG:03300: AD 5C 07 LDA $075C
PRG:03303: C9 03    CMP $03
PRG:03305: D0 0E    BNE $0E
PRG:03307: AC 5F 07 LDY $075F
PRG:0330A: AD 48 07 LDA $0748
PRG:0330D: D9 C2 B2 CMP $B2C2
PRG:03310: 90 03    BCC $03
PRG:03312: EE 5D 07 INC $075D
PRG:03315: EE 60 07 INC $0760
PRG:03318: 20 03 9C JSR $9C03
PRG:0331B: EE 57 07 INC $0757
PRG:0331E: 20 13 B2 JSR $B213
PRG:03321: 8D 5B 07 STA $075B
PRG:03324: A9 80    LDA $80
PRG:03326: 85 FC    STA $FC
PRG:03328: 60       RTS
PRG:03329: A9 00    LDA $00
PRG:0332B: AC 54 07 LDY $0754
PRG:0332E: D0 08    BNE $08
PRG:03330: A5 1D    LDA $1D
PRG:03332: D0 07    BNE $07
PRG:03334: A5 0B    LDA $0B
PRG:03336: 29 04    AND $04
PRG:03338: 8D 14 07 STA $0714
PRG:0333B: 20 50 B4 JSR $B450
PRG:0333E: AD 0B 07 LDA $070B
PRG:03341: D0 16    BNE $16
PRG:03343: A5 1D    LDA $1D
PRG:03345: C9 03    CMP $03
PRG:03347: F0 05    BEQ $05
PRG:03349: A0 18    LDY $18
PRG:0334B: 8C 89 07 STY $0789
PRG:0334E: 20 04 8E JSR $8E04
PRG:03351: 5A       NOP
PRG:03352: B3       .byte $B3
PRG:03353: 76 B3    ROR $B3
PRG:03355: 6D B3 CF ADC $CFB3
PRG:03358: B3       .byte $B3
PRG:03359: 60       RTS
PRG:0335A: 20 8F B5 JSR $B58F
PRG:0335D: A5 0C    LDA $0C
PRG:0335F: F0 02    BEQ $02
PRG:03361: 85 33    STA $33
PRG:03363: 20 CC B5 JSR $B5CC
PRG:03366: 20 09 BF JSR $BF09
PRG:03369: 8D FF 06 STA $06FF
PRG:0336C: 60       RTS
PRG:0336D: AD 0A 07 LDA $070A
PRG:03370: 8D 09 07 STA $0709
PRG:03373: 4C AC B3 JMP $B3AC
PRG:03376: A4 9F    LDY $9F
PRG:03378: 10 13    BPL $13
PRG:0337A: A5 0A    LDA $0A
PRG:0337C: 29 80    AND $80
PRG:0337E: 25 0D    AND $0D
PRG:03380: D0 11    BNE $11
PRG:03382: AD 08 07 LDA $0708
PRG:03385: 38       SEC
PRG:03386: E5 CE    SBC $CE
PRG:03388: CD 06 07 CMP $0706
PRG:0338B: 90 06    BCC $06
PRG:0338D: AD 0A 07 LDA $070A
PRG:03390: 8D 09 07 STA $0709
PRG:03393: AD 04 07 LDA $0704
PRG:03396: F0 14    BEQ $14
PRG:03398: 20 8F B5 JSR $B58F
PRG:0339B: A5 CE    LDA $CE
PRG:0339D: C9 14    CMP $14
PRG:0339F: B0 05    BCS $05
PRG:033A1: A9 18    LDA $18
PRG:033A3: 8D 09 07 STA $0709
PRG:033A6: A5 0C    LDA $0C
PRG:033A8: F0 02    BEQ $02
PRG:033AA: 85 33    STA $33
PRG:033AC: A5 0C    LDA $0C
PRG:033AE: F0 03    BEQ $03
PRG:033B0: 20 CC B5 JSR $B5CC
PRG:033B3: 20 09 BF JSR $BF09
PRG:033B6: 8D FF 06 STA $06FF
PRG:033B9: A5 0E    LDA $0E
PRG:033BB: C9 0B    CMP $0B
PRG:033BD: D0 05    BNE $05
PRG:033BF: A9 28    LDA $28
PRG:033C1: 8D 09 07 STA $0709
PRG:033C4: 4C 4D BF JMP $BF4D
PRG:033C7: 0E 04 FC ASL $FC04
PRG:033CA: F2       .byte $F2
PRG:033CB: 00 00    BRK $00
PRG:033CD: FF       .byte $FF
PRG:033CE: FF       .byte $FF
PRG:033CF: AD 16 04 LDA $0416
PRG:033D2: 18       CLC
PRG:033D3: 6D 33 04 ADC $0433
PRG:033D6: 8D 16 04 STA $0416
PRG:033D9: A0 00    LDY $00
PRG:033DB: A5 9F    LDA $9F
PRG:033DD: 10 01    BPL $01
PRG:033DF: 88       DEY
PRG:033E0: 84 00    STY $00
PRG:033E2: 65 CE    ADC $CE
PRG:033E4: 85 CE    STA $CE
PRG:033E6: A5 B5    LDA $B5
PRG:033E8: 65 00    ADC $00
PRG:033EA: 85 B5    STA $B5
PRG:033EC: A5 0C    LDA $0C
PRG:033EE: 2D 90 04 AND $0490
PRG:033F1: F0 2D    BEQ $2D
PRG:033F3: AC 89 07 LDY $0789
PRG:033F6: D0 27    BNE $27
PRG:033F8: A0 18    LDY $18
PRG:033FA: 8C 89 07 STY $0789
PRG:033FD: A2 00    LDX $00
PRG:033FF: A4 33    LDY $33
PRG:03401: 4A       LSR
PRG:03402: B0 02    BCS $02
PRG:03404: E8       INX
PRG:03405: E8       INX
PRG:03406: 88       DEY
PRG:03407: F0 01    BEQ $01
PRG:03409: E8       INX
PRG:0340A: A5 86    LDA $86
PRG:0340C: 18       CLC
PRG:0340D: 7D C7 B3 ADC $B3C7
PRG:03410: 85 86    STA $86
PRG:03412: A5 6D    LDA $6D
PRG:03414: 7D CB B3 ADC $B3CB
PRG:03417: 85 6D    STA $6D
PRG:03419: A5 0C    LDA $0C
PRG:0341B: 49 03    EOR $03
PRG:0341D: 85 33    STA $33
PRG:0341F: 60       RTS
PRG:03420: 8D 89 07 STA $0789
PRG:03423: 60       RTS
PRG:03424: 20 20 1E JSR $1E20
PRG:03427: 28       PLP
PRG:03428: 28       PLP
PRG:03429: 0D 04 70 ORA $7004
PRG:0342C: 70 60    BVS $60
PRG:0342E: 90 90    BCC $90
PRG:03430: 0A       ASL
PRG:03431: 09 FC    ORA $FC
PRG:03433: FC FC FB NOP $FBFC
PRG:03436: FB       .byte $FB
PRG:03437: FE FF 00 INC $00FF
PRG:0343A: 00 00    BRK $00
PRG:0343C: 00 00    BRK $00
PRG:0343E: 80 00    NOP $00
PRG:03440: D8       CLD
PRG:03441: E8       INX
PRG:03442: F0 28    BEQ $28
PRG:03444: 18       CLC
PRG:03445: 10 0C    BPL $0C
PRG:03447: E4 98    CPX $98
PRG:03449: D0 00    BNE $00
PRG:0344B: FF       .byte $FF
PRG:0344C: 01 00    ORA $00
PRG:0344E: 20 FF A5 JSR $A5FF
PRG:03451: 1D C9 03 ORA $03C9
PRG:03454: D0 23    BNE $23
PRG:03456: A0 00    LDY $00
PRG:03458: A5 0B    LDA $0B
PRG:0345A: 2D 90 04 AND $0490
PRG:0345D: F0 06    BEQ $06
PRG:0345F: C8       INY
PRG:03460: 29 08    AND $08
PRG:03462: D0 01    BNE $01
PRG:03464: C8       INY
PRG:03465: BE 4D B4 LDX $B44D
PRG:03468: 8E 33 04 STX $0433
PRG:0346B: A9 08    LDA $08
PRG:0346D: BE 4A B4 LDX $B44A
PRG:03470: 86 9F    STX $9F
PRG:03472: 30 01    BMI $01
PRG:03474: 4A       LSR
PRG:03475: 8D 0C 07 STA $070C
PRG:03478: 60       RTS
PRG:03479: AD 0E 07 LDA $070E
PRG:0347C: D0 0A    BNE $0A
PRG:0347E: A5 0A    LDA $0A
PRG:03480: 29 80    AND $80
PRG:03482: F0 04    BEQ $04
PRG:03484: 25 0D    AND $0D
PRG:03486: F0 03    BEQ $03
PRG:03488: 4C 1C B5 JMP $B51C
PRG:0348B: A5 1D    LDA $1D
PRG:0348D: F0 11    BEQ $11
PRG:0348F: AD 04 07 LDA $0704
PRG:03492: F0 F4    BEQ $F4
PRG:03494: AD 82 07 LDA $0782
PRG:03497: D0 07    BNE $07
PRG:03499: A5 9F    LDA $9F
PRG:0349B: 10 03    BPL $03
PRG:0349D: 4C 1C B5 JMP $B51C
PRG:034A0: A9 20    LDA $20
PRG:034A2: 8D 82 07 STA $0782
PRG:034A5: A0 00    LDY $00
PRG:034A7: 8C 16 04 STY $0416
PRG:034AA: 8C 33 04 STY $0433
PRG:034AD: A5 B5    LDA $B5
PRG:034AF: 8D 07 07 STA $0707
PRG:034B2: A5 CE    LDA $CE
PRG:034B4: 8D 08 07 STA $0708
PRG:034B7: A9 01    LDA $01
PRG:034B9: 85 1D    STA $1D
PRG:034BB: AD 00 07 LDA $0700
PRG:034BE: C9 09    CMP $09
PRG:034C0: 90 10    BCC $10
PRG:034C2: C8       INY
PRG:034C3: C9 10    CMP $10
PRG:034C5: 90 0B    BCC $0B
PRG:034C7: C8       INY
PRG:034C8: C9 19    CMP $19
PRG:034CA: 90 06    BCC $06
PRG:034CC: C8       INY
PRG:034CD: C9 1C    CMP $1C
PRG:034CF: 90 01    BCC $01
PRG:034D1: C8       INY
PRG:034D2: A9 01    LDA $01
PRG:034D4: 8D 06 07 STA $0706
PRG:034D7: AD 04 07 LDA $0704
PRG:034DA: F0 08    BEQ $08
PRG:034DC: A0 05    LDY $05
PRG:034DE: AD 7D 04 LDA $047D
PRG:034E1: F0 01    BEQ $01
PRG:034E3: C8       INY
PRG:034E4: B9 24 B4 LDA $B424
PRG:034E7: 8D 09 07 STA $0709
PRG:034EA: B9 2B B4 LDA $B42B
PRG:034ED: 8D 0A 07 STA $070A
PRG:034F0: B9 39 B4 LDA $B439
PRG:034F3: 8D 33 04 STA $0433
PRG:034F6: B9 32 B4 LDA $B432
PRG:034F9: 85 9F    STA $9F
PRG:034FB: AD 04 07 LDA $0704
PRG:034FE: F0 11    BEQ $11
PRG:03500: A9 04    LDA $04
PRG:03502: 85 FF    STA $FF
PRG:03504: A5 CE    LDA $CE
PRG:03506: C9 14    CMP $14
PRG:03508: B0 12    BCS $12
PRG:0350A: A9 00    LDA $00
PRG:0350C: 85 9F    STA $9F
PRG:0350E: 4C 1C B5 JMP $B51C
PRG:03511: A9 01    LDA $01
PRG:03513: AC 54 07 LDY $0754
PRG:03516: F0 02    BEQ $02
PRG:03518: A9 80    LDA $80
PRG:0351A: 85 FF    STA $FF
PRG:0351C: A0 00    LDY $00
PRG:0351E: 84 00    STY $00
PRG:03520: A5 1D    LDA $1D
PRG:03522: F0 09    BEQ $09
PRG:03524: AD 00 07 LDA $0700
PRG:03527: C9 19    CMP $19
PRG:03529: B0 33    BCS $33
PRG:0352B: 90 18    BCC $18
PRG:0352D: C8       INY
PRG:0352E: AD 4E 07 LDA $074E
PRG:03531: F0 12    BEQ $12
PRG:03533: 88       DEY
PRG:03534: A5 0C    LDA $0C
PRG:03536: C5 45    CMP $45
PRG:03538: D0 0B    BNE $0B
PRG:0353A: A5 0A    LDA $0A
PRG:0353C: 29 40    AND $40
PRG:0353E: D0 19    BNE $19
PRG:03540: AD 83 07 LDA $0783
PRG:03543: D0 19    BNE $19
PRG:03545: C8       INY
PRG:03546: E6 00    INC $00
PRG:03548: AD 03 07 LDA $0703
PRG:0354B: D0 07    BNE $07
PRG:0354D: AD 00 07 LDA $0700
PRG:03550: C9 21    CMP $21
PRG:03552: 90 0A    BCC $0A
PRG:03554: E6 00    INC $00
PRG:03556: 4C 5E B5 JMP $B55E
PRG:03559: A9 0A    LDA $0A
PRG:0355B: 8D 83 07 STA $0783
PRG:0355E: B9 40 B4 LDA $B440
PRG:03561: 8D 50 04 STA $0450
PRG:03564: A5 0E    LDA $0E
PRG:03566: C9 07    CMP $07
PRG:03568: D0 02    BNE $02
PRG:0356A: A0 03    LDY $03
PRG:0356C: B9 43 B4 LDA $B443
PRG:0356F: 8D 56 04 STA $0456
PRG:03572: A4 00    LDY $00
PRG:03574: B9 47 B4 LDA $B447
PRG:03577: 8D 02 07 STA $0702
PRG:0357A: A9 00    LDA $00
PRG:0357C: 8D 01 07 STA $0701
PRG:0357F: A5 33    LDA $33
PRG:03581: C5 45    CMP $45
PRG:03583: F0 06    BEQ $06
PRG:03585: 0E 02 07 ASL $0702
PRG:03588: 2E 01 07 ROL $0701
PRG:0358B: 60       RTS
PRG:0358C: 02       .byte $02
PRG:0358D: 04 07    NOP $07
PRG:0358F: A0 00    LDY $00
PRG:03591: AD 00 07 LDA $0700
PRG:03594: C9 1C    CMP $1C
PRG:03596: B0 15    BCS $15
PRG:03598: C8       INY
PRG:03599: C9 0E    CMP $0E
PRG:0359B: B0 01    BCS $01
PRG:0359D: C8       INY
PRG:0359E: AD FC 06 LDA $06FC
PRG:035A1: 29 7F    AND $7F
PRG:035A3: F0 20    BEQ $20
PRG:035A5: 29 03    AND $03
PRG:035A7: C5 45    CMP $45
PRG:035A9: D0 08    BNE $08
PRG:035AB: A9 00    LDA $00
PRG:035AD: 8D 03 07 STA $0703
PRG:035B0: 4C C5 B5 JMP $B5C5
PRG:035B3: AD 00 07 LDA $0700
PRG:035B6: C9 0B    CMP $0B
PRG:035B8: B0 0B    BCS $0B
PRG:035BA: A5 33    LDA $33
PRG:035BC: 85 45    STA $45
PRG:035BE: A9 00    LDA $00
PRG:035C0: 85 57    STA $57
PRG:035C2: 8D 05 07 STA $0705
PRG:035C5: B9 8C B5 LDA $B58C
PRG:035C8: 8D 0C 07 STA $070C
PRG:035CB: 60       RTS
PRG:035CC: 2D 90 04 AND $0490
PRG:035CF: C9 00    CMP $00
PRG:035D1: D0 08    BNE $08
PRG:035D3: A5 57    LDA $57
PRG:035D5: F0 49    BEQ $49
PRG:035D7: 10 23    BPL $23
PRG:035D9: 30 03    BMI $03
PRG:035DB: 4A       LSR
PRG:035DC: 90 1E    BCC $1E
PRG:035DE: AD 05 07 LDA $0705
PRG:035E1: 18       CLC
PRG:035E2: 6D 02 07 ADC $0702
PRG:035E5: 8D 05 07 STA $0705
PRG:035E8: A5 57    LDA $57
PRG:035EA: 6D 01 07 ADC $0701
PRG:035ED: 85 57    STA $57
PRG:035EF: CD 56 04 CMP $0456
PRG:035F2: 30 23    BMI $23
PRG:035F4: AD 56 04 LDA $0456
PRG:035F7: 85 57    STA $57
PRG:035F9: 4C 20 B6 JMP $B620
PRG:035FC: AD 05 07 LDA $0705
PRG:035FF: 38       SEC
PRG:03600: ED 02 07 SBC $0702
PRG:03603: 8D 05 07 STA $0705
PRG:03606: A5 57    LDA $57
PRG:03608: ED 01 07 SBC $0701
PRG:0360B: 85 57    STA $57
PRG:0360D: CD 50 04 CMP $0450
PRG:03610: 10 05    BPL $05
PRG:03612: AD 50 04 LDA $0450
PRG:03615: 85 57    STA $57
PRG:03617: C9 00    CMP $00
PRG:03619: 10 05    BPL $05
PRG:0361B: 49 FF    EOR $FF
PRG:0361D: 18       CLC
PRG:0361E: 69 01    ADC $01
PRG:03620: 8D 00 07 STA $0700
PRG:03623: 60       RTS
PRG:03624: AD 56 07 LDA $0756
PRG:03627: C9 02    CMP $02
PRG:03629: 90 43    BCC $43
PRG:0362B: A5 0A    LDA $0A
PRG:0362D: 29 40    AND $40
PRG:0362F: F0 33    BEQ $33
PRG:03631: 25 0D    AND $0D
PRG:03633: D0 2F    BNE $2F
PRG:03635: AD CE 06 LDA $06CE
PRG:03638: 29 01    AND $01
PRG:0363A: AA       TAX
PRG:0363B: B5 24    LDA $24
PRG:0363D: D0 25    BNE $25
PRG:0363F: A4 B5    LDY $B5
PRG:03641: 88       DEY
PRG:03642: D0 20    BNE $20
PRG:03644: AD 14 07 LDA $0714
PRG:03647: D0 1B    BNE $1B
PRG:03649: A5 1D    LDA $1D
PRG:0364B: C9 03    CMP $03
PRG:0364D: F0 15    BEQ $15
PRG:0364F: A9 20    LDA $20
PRG:03651: 85 FF    STA $FF
PRG:03653: A9 02    LDA $02
PRG:03655: 95 24    STA $24
PRG:03657: AC 0C 07 LDY $070C
PRG:0365A: 8C 11 07 STY $0711
PRG:0365D: 88       DEY
PRG:0365E: 8C 81 07 STY $0781
PRG:03661: EE CE 06 INC $06CE
PRG:03664: A2 00    LDX $00
PRG:03666: 20 89 B6 JSR $B689
PRG:03669: A2 01    LDX $01
PRG:0366B: 20 89 B6 JSR $B689
PRG:0366E: AD 4E 07 LDA $074E
PRG:03671: D0 13    BNE $13
PRG:03673: A2 02    LDX $02
PRG:03675: 86 08    STX $08
PRG:03677: 20 F9 B6 JSR $B6F9
PRG:0367A: 20 31 F1 JSR $F131
PRG:0367D: 20 91 F1 JSR $F191
PRG:03680: 20 E1 ED JSR $EDE1
PRG:03683: CA       DEX
PRG:03684: 10 EF    BPL $EF
PRG:03686: 60       RTS
PRG:03687: 40       RTI
PRG:03688: C0 86    CPY $86
PRG:0368A: 08       PHP
PRG:0368B: B5 24    LDA $24
PRG:0368D: 0A       ASL
PRG:0368E: B0 63    BCS $63
PRG:03690: B4 24    LDY $24
PRG:03692: F0 5E    BEQ $5E
PRG:03694: 88       DEY
PRG:03695: F0 27    BEQ $27
PRG:03697: A5 86    LDA $86
PRG:03699: 69 04    ADC $04
PRG:0369B: 95 8D    STA $8D
PRG:0369D: A5 6D    LDA $6D
PRG:0369F: 69 00    ADC $00
PRG:036A1: 95 74    STA $74
PRG:036A3: A5 CE    LDA $CE
PRG:036A5: 95 D5    STA $D5
PRG:036A7: A9 01    LDA $01
PRG:036A9: 95 BC    STA $BC
PRG:036AB: A4 33    LDY $33
PRG:036AD: 88       DEY
PRG:036AE: B9 87 B6 LDA $B687
PRG:036B1: 95 5E    STA $5E
PRG:036B3: A9 04    LDA $04
PRG:036B5: 95 A6    STA $A6
PRG:036B7: A9 07    LDA $07
PRG:036B9: 9D A0 04 STA $04A0
PRG:036BC: D6 24    DEC $24
PRG:036BE: 8A       TXA
PRG:036BF: 18       CLC
PRG:036C0: 69 07    ADC $07
PRG:036C2: AA       TAX
PRG:036C3: A9 50    LDA $50
PRG:036C5: 85 00    STA $00
PRG:036C7: A9 03    LDA $03
PRG:036C9: 85 02    STA $02
PRG:036CB: A9 00    LDA $00
PRG:036CD: 20 D7 BF JSR $BFD7
PRG:036D0: 20 0F BF JSR $BF0F
PRG:036D3: A6 08    LDX $08
PRG:036D5: 20 3B F1 JSR $F13B
PRG:036D8: 20 87 F1 JSR $F187
PRG:036DB: 20 2D E2 JSR $E22D
PRG:036DE: 20 C8 E1 JSR $E1C8
PRG:036E1: AD D2 03 LDA $03D2
PRG:036E4: 29 CC    AND $CC
PRG:036E6: D0 06    BNE $06
PRG:036E8: 20 D9 D6 JSR $D6D9
PRG:036EB: 4C DE EC JMP $ECDE
PRG:036EE: A9 00    LDA $00
PRG:036F0: 95 24    STA $24
PRG:036F2: 60       RTS
PRG:036F3: 20 3B F1 JSR $F13B
PRG:036F6: 4C 09 ED JMP $ED09
PRG:036F9: BD A8 07 LDA $07A8
PRG:036FC: 29 01    AND $01
PRG:036FE: 85 07    STA $07
PRG:03700: B5 E4    LDA $E4
PRG:03702: C9 F8    CMP $F8
PRG:03704: D0 2C    BNE $2C
PRG:03706: AD 92 07 LDA $0792
PRG:03709: D0 3F    BNE $3F
PRG:0370B: A0 00    LDY $00
PRG:0370D: A5 33    LDA $33
PRG:0370F: 4A       LSR
PRG:03710: 90 02    BCC $02
PRG:03712: A0 08    LDY $08
PRG:03714: 98       TYA
PRG:03715: 65 86    ADC $86
PRG:03717: 95 9C    STA $9C
PRG:03719: A5 6D    LDA $6D
PRG:0371B: 69 00    ADC $00
PRG:0371D: 95 83    STA $83
PRG:0371F: A5 CE    LDA $CE
PRG:03721: 18       CLC
PRG:03722: 69 08    ADC $08
PRG:03724: 95 E4    STA $E4
PRG:03726: A9 01    LDA $01
PRG:03728: 95 CB    STA $CB
PRG:0372A: A4 07    LDY $07
PRG:0372C: B9 4D B7 LDA $B74D
PRG:0372F: 8D 92 07 STA $0792
PRG:03732: A4 07    LDY $07
PRG:03734: BD 2C 04 LDA $042C
PRG:03737: 38       SEC
PRG:03738: F9 4B B7 SBC $B74B
PRG:0373B: 9D 2C 04 STA $042C
PRG:0373E: B5 E4    LDA $E4
PRG:03740: E9 00    SBC $00
PRG:03742: C9 20    CMP $20
PRG:03744: B0 02    BCS $02
PRG:03746: A9 F8    LDA $F8
PRG:03748: 95 E4    STA $E4
PRG:0374A: 60       RTS
PRG:0374B: FF       .byte $FF
PRG:0374C: 50 40    BVC $40
PRG:0374E: 20 AD 70 JSR $70AD
PRG:03751: 07       .byte $07
PRG:03752: F0 4F    BEQ $4F
PRG:03754: A5 0E    LDA $0E
PRG:03756: C9 08    CMP $08
PRG:03758: 90 49    BCC $49
PRG:0375A: C9 0B    CMP $0B
PRG:0375C: F0 45    BEQ $45
PRG:0375E: A5 B5    LDA $B5
PRG:03760: C9 02    CMP $02
PRG:03762: B0 3F    BCS $3F
PRG:03764: AD 87 07 LDA $0787
PRG:03767: D0 3A    BNE $3A
PRG:03769: AD F8 07 LDA $07F8
PRG:0376C: 0D F9 07 ORA $07F9
PRG:0376F: 0D FA 07 ORA $07FA
PRG:03772: F0 26    BEQ $26
PRG:03774: AC F8 07 LDY $07F8
PRG:03777: 88       DEY
PRG:03778: D0 0C    BNE $0C
PRG:0377A: AD F9 07 LDA $07F9
PRG:0377D: 0D FA 07 ORA $07FA
PRG:03780: D0 04    BNE $04
PRG:03782: A9 40    LDA $40
PRG:03784: 85 FC    STA $FC
PRG:03786: A9 18    LDA $18
PRG:03788: 8D 87 07 STA $0787
PRG:0378B: A0 23    LDY $23
PRG:0378D: A9 FF    LDA $FF
PRG:0378F: 8D 39 01 STA $0139
PRG:03792: 20 5F 8F JSR $8F5F
PRG:03795: A9 A4    LDA $A4
PRG:03797: 4C 06 8F JMP $8F06
PRG:0379A: 8D 56 07 STA $0756
PRG:0379D: 20 31 D9 JSR $D931
PRG:037A0: EE 59 07 INC $0759
PRG:037A3: 60       RTS
PRG:037A4: AD 23 07 LDA $0723
PRG:037A7: F0 FA    BEQ $FA
PRG:037A9: A5 CE    LDA $CE
PRG:037AB: 25 B5    AND $B5
PRG:037AD: D0 F4    BNE $F4
PRG:037AF: 8D 23 07 STA $0723
PRG:037B2: EE D6 06 INC $06D6
PRG:037B5: 4C 98 C9 JMP $C998
PRG:037B8: AD 4E 07 LDA $074E
PRG:037BB: D0 37    BNE $37
PRG:037BD: 8D 7D 04 STA $047D
PRG:037C0: AD 47 07 LDA $0747
PRG:037C3: D0 2F    BNE $2F
PRG:037C5: A0 04    LDY $04
PRG:037C7: B9 71 04 LDA $0471
PRG:037CA: 18       CLC
PRG:037CB: 79 77 04 ADC $0477
PRG:037CE: 85 02    STA $02
PRG:037D0: B9 6B 04 LDA $046B
PRG:037D3: F0 1C    BEQ $1C
PRG:037D5: 69 00    ADC $00
PRG:037D7: 85 01    STA $01
PRG:037D9: A5 86    LDA $86
PRG:037DB: 38       SEC
PRG:037DC: F9 71 04 SBC $0471
PRG:037DF: A5 6D    LDA $6D
PRG:037E1: F9 6B 04 SBC $046B
PRG:037E4: 30 0B    BMI $0B
PRG:037E6: A5 02    LDA $02
PRG:037E8: 38       SEC
PRG:037E9: E5 86    SBC $86
PRG:037EB: A5 01    LDA $01
PRG:037ED: E5 6D    SBC $6D
PRG:037EF: 10 04    BPL $04
PRG:037F1: 88       DEY
PRG:037F2: 10 D3    BPL $D3
PRG:037F4: 60       RTS
PRG:037F5: B9 77 04 LDA $0477
PRG:037F8: 4A       LSR
PRG:037F9: 85 00    STA $00
PRG:037FB: B9 71 04 LDA $0471
PRG:037FE: 18       CLC
PRG:037FF: 65 00    ADC $00
PRG:03801: 85 01    STA $01
PRG:03803: B9 6B 04 LDA $046B
PRG:03806: 69 00    ADC $00
PRG:03808: 85 00    STA $00
PRG:0380A: A5 09    LDA $09
PRG:0380C: 4A       LSR
PRG:0380D: 90 2C    BCC $2C
PRG:0380F: A5 01    LDA $01
PRG:03811: 38       SEC
PRG:03812: E5 86    SBC $86
PRG:03814: A5 00    LDA $00
PRG:03816: E5 6D    SBC $6D
PRG:03818: 10 0E    BPL $0E
PRG:0381A: A5 86    LDA $86
PRG:0381C: 38       SEC
PRG:0381D: E9 01    SBC $01
PRG:0381F: 85 86    STA $86
PRG:03821: A5 6D    LDA $6D
PRG:03823: E9 00    SBC $00
PRG:03825: 4C 39 B8 JMP $B839
PRG:03828: AD 90 04 LDA $0490
PRG:0382B: 4A       LSR
PRG:0382C: 90 0D    BCC $0D
PRG:0382E: A5 86    LDA $86
PRG:03830: 18       CLC
PRG:03831: 69 01    ADC $01
PRG:03833: 85 86    STA $86
PRG:03835: A5 6D    LDA $6D
PRG:03837: 69 00    ADC $00
PRG:03839: 85 6D    STA $6D
PRG:0383B: A9 10    LDA $10
PRG:0383D: 85 00    STA $00
PRG:0383F: A9 01    LDA $01
PRG:03841: 8D 7D 04 STA $047D
PRG:03844: 85 02    STA $02
PRG:03846: 4A       LSR
PRG:03847: AA       TAX
PRG:03848: 4C D7 BF JMP $BFD7
PRG:0384B: 05 02    ORA $02
PRG:0384D: 08       PHP
PRG:0384E: 04 01    NOP $01
PRG:03850: 03       .byte $03
PRG:03851: 03       .byte $03
PRG:03852: 04 04    NOP $04
PRG:03854: 04 A2    NOP $A2
PRG:03856: 05 86    ORA $86
PRG:03858: 08       PHP
PRG:03859: B5 16    LDA $16
PRG:0385B: C9 30    CMP $30
PRG:0385D: D0 56    BNE $56
PRG:0385F: A5 0E    LDA $0E
PRG:03861: C9 04    CMP $04
PRG:03863: D0 31    BNE $31
PRG:03865: A5 1D    LDA $1D
PRG:03867: C9 03    CMP $03
PRG:03869: D0 2B    BNE $2B
PRG:0386B: B5 CF    LDA $CF
PRG:0386D: C9 AA    CMP $AA
PRG:0386F: B0 28    BCS $28
PRG:03871: A5 CE    LDA $CE
PRG:03873: C9 A2    CMP $A2
PRG:03875: B0 22    BCS $22
PRG:03877: BD 17 04 LDA $0417
PRG:0387A: 69 FF    ADC $FF
PRG:0387C: 9D 17 04 STA $0417
PRG:0387F: B5 CF    LDA $CF
PRG:03881: 69 01    ADC $01
PRG:03883: 95 CF    STA $CF
PRG:03885: AD 0E 01 LDA $010E
PRG:03888: 38       SEC
PRG:03889: E9 FF    SBC $FF
PRG:0388B: 8D 0E 01 STA $010E
PRG:0388E: AD 0D 01 LDA $010D
PRG:03891: E9 01    SBC $01
PRG:03893: 8D 0D 01 STA $010D
PRG:03896: 4C AC B8 JMP $B8AC
PRG:03899: AC 0F 01 LDY $010F
PRG:0389C: B9 4B B8 LDA $B84B
PRG:0389F: BE 50 B8 LDX $B850
PRG:038A2: 9D 34 01 STA $0134
PRG:038A5: 20 27 BC JSR $BC27
PRG:038A8: A9 05    LDA $05
PRG:038AA: 85 0E    STA $0E
PRG:038AC: 20 AF F1 JSR $F1AF
PRG:038AF: 20 52 F1 JSR $F152
PRG:038B2: 20 4B E5 JSR $E54B
PRG:038B5: 60       RTS
PRG:038B6: 08       PHP
PRG:038B7: 10 08    BPL $08
PRG:038B9: 00 20    BRK $20
PRG:038BB: AF       .byte $AF
PRG:038BC: F1 AD    SBC $AD
PRG:038BE: 47       .byte $47
PRG:038BF: 07       .byte $07
PRG:038C0: D0 40    BNE $40
PRG:038C2: AD 0E 07 LDA $070E
PRG:038C5: F0 3B    BEQ $3B
PRG:038C7: A8       TAY
PRG:038C8: 88       DEY
PRG:038C9: 98       TYA
PRG:038CA: 29 02    AND $02
PRG:038CC: D0 07    BNE $07
PRG:038CE: E6 CE    INC $CE
PRG:038D0: E6 CE    INC $CE
PRG:038D2: 4C D9 B8 JMP $B8D9
PRG:038D5: C6 CE    DEC $CE
PRG:038D7: C6 CE    DEC $CE
PRG:038D9: B5 58    LDA $58
PRG:038DB: 18       CLC
PRG:038DC: 79 B6 B8 ADC $B8B6
PRG:038DF: 95 CF    STA $CF
PRG:038E1: C0 01    CPY $01
PRG:038E3: 90 0F    BCC $0F
PRG:038E5: A5 0A    LDA $0A
PRG:038E7: 29 80    AND $80
PRG:038E9: F0 09    BEQ $09
PRG:038EB: 25 0D    AND $0D
PRG:038ED: D0 05    BNE $05
PRG:038EF: A9 F4    LDA $F4
PRG:038F1: 8D DB 06 STA $06DB
PRG:038F4: C0 03    CPY $03
PRG:038F6: D0 0A    BNE $0A
PRG:038F8: AD DB 06 LDA $06DB
PRG:038FB: 85 9F    STA $9F
PRG:038FD: A9 00    LDA $00
PRG:038FF: 8D 0E 07 STA $070E
PRG:03902: 20 52 F1 JSR $F152
PRG:03905: 20 7D E8 JSR $E87D
PRG:03908: 20 7A D6 JSR $D67A
PRG:0390B: AD 0E 07 LDA $070E
PRG:0390E: F0 0D    BEQ $0D
PRG:03910: AD 86 07 LDA $0786
PRG:03913: D0 08    BNE $08
PRG:03915: A9 04    LDA $04
PRG:03917: 8D 86 07 STA $0786
PRG:0391A: EE 0E 07 INC $070E
PRG:0391D: 60       RTS
PRG:0391E: A9 2F    LDA $2F
PRG:03920: 95 16    STA $16
PRG:03922: A9 01    LDA $01
PRG:03924: 95 0F    STA $0F
PRG:03926: B9 76 00 LDA $0076
PRG:03929: 95 6E    STA $6E
PRG:0392B: B9 8F 00 LDA $008F
PRG:0392E: 95 87    STA $87
PRG:03930: B9 D7 00 LDA $00D7
PRG:03933: 95 CF    STA $CF
PRG:03935: AC 98 03 LDY $0398
PRG:03938: D0 03    BNE $03
PRG:0393A: 8D 9D 03 STA $039D
PRG:0393D: 8A       TXA
PRG:0393E: 99 9A 03 STA $039A
PRG:03941: EE 98 03 INC $0398
PRG:03944: A9 04    LDA $04
PRG:03946: 85 FE    STA $FE
PRG:03948: 60       RTS
PRG:03949: 30 60    BMI $60
PRG:0394B: E0 05    CPX $05
PRG:0394D: D0 68    BNE $68
PRG:0394F: AC 98 03 LDY $0398
PRG:03952: 88       DEY
PRG:03953: AD 99 03 LDA $0399
PRG:03956: D9 49 B9 CMP $B949
PRG:03959: F0 0F    BEQ $0F
PRG:0395B: A5 09    LDA $09
PRG:0395D: 4A       LSR
PRG:0395E: 4A       LSR
PRG:0395F: 90 09    BCC $09
PRG:03961: A5 D4    LDA $D4
PRG:03963: E9 01    SBC $01
PRG:03965: 85 D4    STA $D4
PRG:03967: EE 99 03 INC $0399
PRG:0396A: AD 99 03 LDA $0399
PRG:0396D: C9 08    CMP $08
PRG:0396F: 90 46    BCC $46
PRG:03971: 20 52 F1 JSR $F152
PRG:03974: 20 AF F1 JSR $F1AF
PRG:03977: A0 00    LDY $00
PRG:03979: 20 35 E4 JSR $E435
PRG:0397C: C8       INY
PRG:0397D: CC 98 03 CPY $0398
PRG:03980: D0 F7    BNE $F7
PRG:03982: AD D1 03 LDA $03D1
PRG:03985: 29 0C    AND $0C
PRG:03987: F0 10    BEQ $10
PRG:03989: 88       DEY
PRG:0398A: BE 9A 03 LDX $039A
PRG:0398D: 20 98 C9 JSR $C998
PRG:03990: 88       DEY
PRG:03991: 10 F7    BPL $F7
PRG:03993: 8D 98 03 STA $0398
PRG:03996: 8D 99 03 STA $0399
PRG:03999: AD 99 03 LDA $0399
PRG:0399C: C9 20    CMP $20
PRG:0399E: 90 17    BCC $17
PRG:039A0: A2 06    LDX $06
PRG:039A2: A9 01    LDA $01
PRG:039A4: A0 1B    LDY $1B
PRG:039A6: 20 F0 E3 JSR $E3F0
PRG:039A9: A4 02    LDY $02
PRG:039AB: C0 D0    CPY $D0
PRG:039AD: B0 08    BCS $08
PRG:039AF: B1 06    LDA $06
PRG:039B1: D0 04    BNE $04
PRG:039B3: A9 26    LDA $26
PRG:039B5: 91 06    STA $06
PRG:039B7: A6 08    LDX $08
PRG:039B9: 60       RTS
PRG:039BA: 0F       .byte $0F
PRG:039BB: 07       .byte $07
PRG:039BC: AD 4E 07 LDA $074E
PRG:039BF: F0 6F    BEQ $6F
PRG:039C1: A2 02    LDX $02
PRG:039C3: 86 08    STX $08
PRG:039C5: B5 0F    LDA $0F
PRG:039C7: D0 51    BNE $51
PRG:039C9: BD A8 07 LDA $07A8
PRG:039CC: AC CC 06 LDY $06CC
PRG:039CF: 39 BA B9 AND $B9BA
PRG:039D2: C9 06    CMP $06
PRG:039D4: B0 44    BCS $44
PRG:039D6: A8       TAY
PRG:039D7: B9 6B 04 LDA $046B
PRG:039DA: F0 3E    BEQ $3E
PRG:039DC: B9 7D 04 LDA $047D
PRG:039DF: F0 08    BEQ $08
PRG:039E1: E9 00    SBC $00
PRG:039E3: 99 7D 04 STA $047D
PRG:039E6: 4C 1A BA JMP $BA1A
PRG:039E9: AD 47 07 LDA $0747
PRG:039EC: D0 2C    BNE $2C
PRG:039EE: A9 0E    LDA $0E
PRG:039F0: 99 7D 04 STA $047D
PRG:039F3: B9 6B 04 LDA $046B
PRG:039F6: 95 6E    STA $6E
PRG:039F8: B9 71 04 LDA $0471
PRG:039FB: 95 87    STA $87
PRG:039FD: B9 77 04 LDA $0477
PRG:03A00: 38       SEC
PRG:03A01: E9 08    SBC $08
PRG:03A03: 95 CF    STA $CF
PRG:03A05: A9 01    LDA $01
PRG:03A07: 95 B6    STA $B6
PRG:03A09: 95 0F    STA $0F
PRG:03A0B: 4A       LSR
PRG:03A0C: 95 1E    STA $1E
PRG:03A0E: A9 09    LDA $09
PRG:03A10: 9D 9A 04 STA $049A
PRG:03A13: A9 33    LDA $33
PRG:03A15: 95 16    STA $16
PRG:03A17: 4C 2D BA JMP $BA2D
PRG:03A1A: B5 16    LDA $16
PRG:03A1C: C9 33    CMP $33
PRG:03A1E: D0 0D    BNE $0D
PRG:03A20: 20 7A D6 JSR $D67A
PRG:03A23: B5 0F    LDA $0F
PRG:03A25: F0 06    BEQ $06
PRG:03A27: 20 AF F1 JSR $F1AF
PRG:03A2A: 20 33 BA JSR $BA33
PRG:03A2D: CA       DEX
PRG:03A2E: 10 93    BPL $93
PRG:03A30: 60       RTS
PRG:03A31: 18       CLC
PRG:03A32: E8       INX
PRG:03A33: AD 47 07 LDA $0747
PRG:03A36: D0 3E    BNE $3E
PRG:03A38: B5 1E    LDA $1E
PRG:03A3A: D0 2E    BNE $2E
PRG:03A3C: AD D1 03 LDA $03D1
PRG:03A3F: 29 0C    AND $0C
PRG:03A41: C9 0C    CMP $0C
PRG:03A43: F0 40    BEQ $40
PRG:03A45: A0 01    LDY $01
PRG:03A47: 20 43 E1 JSR $E143
PRG:03A4A: 30 01    BMI $01
PRG:03A4C: C8       INY
PRG:03A4D: 94 46    STY $46
PRG:03A4F: 88       DEY
PRG:03A50: B9 31 BA LDA $BA31
PRG:03A53: 95 58    STA $58
PRG:03A55: A5 00    LDA $00
PRG:03A57: 69 28    ADC $28
PRG:03A59: C9 50    CMP $50
PRG:03A5B: 90 28    BCC $28
PRG:03A5D: A9 01    LDA $01
PRG:03A5F: 95 1E    STA $1E
PRG:03A61: A9 0A    LDA $0A
PRG:03A63: 9D 8A 07 STA $078A
PRG:03A66: A9 08    LDA $08
PRG:03A68: 85 FE    STA $FE
PRG:03A6A: B5 1E    LDA $1E
PRG:03A6C: 29 20    AND $20
PRG:03A6E: F0 03    BEQ $03
PRG:03A70: 20 63 BF JSR $BF63
PRG:03A73: 20 02 BF JSR $BF02
PRG:03A76: 20 AF F1 JSR $F1AF
PRG:03A79: 20 52 F1 JSR $F152
PRG:03A7C: 20 43 E2 JSR $E243
PRG:03A7F: 20 53 D8 JSR $D853
PRG:03A82: 4C 7D E8 JMP $E87D
PRG:03A85: 20 98 C9 JSR $C998
PRG:03A88: 60       RTS
PRG:03A89: 04 04    NOP $04
PRG:03A8B: 04 05    NOP $05
PRG:03A8D: 05 05    ORA $05
PRG:03A8F: 06 06    ASL $06
PRG:03A91: 06 10    ASL $10
PRG:03A93: F0 AD    BEQ $AD
PRG:03A95: A8       TAY
PRG:03A96: 07       .byte $07
PRG:03A97: 29 07    AND $07
PRG:03A99: D0 05    BNE $05
PRG:03A9B: AD A8 07 LDA $07A8
PRG:03A9E: 29 08    AND $08
PRG:03AA0: A8       TAY
PRG:03AA1: B9 2A 00 LDA $002A
PRG:03AA4: D0 19    BNE $19
PRG:03AA6: BE 89 BA LDX $BA89
PRG:03AA9: B5 0F    LDA $0F
PRG:03AAB: D0 12    BNE $12
PRG:03AAD: A6 08    LDX $08
PRG:03AAF: 8A       TXA
PRG:03AB0: 99 AE 06 STA $06AE
PRG:03AB3: A9 90    LDA $90
PRG:03AB5: 99 2A 00 STA $002A
PRG:03AB8: A9 07    LDA $07
PRG:03ABA: 99 A2 04 STA $04A2
PRG:03ABD: 38       SEC
PRG:03ABE: 60       RTS
PRG:03ABF: A6 08    LDX $08
PRG:03AC1: 18       CLC
PRG:03AC2: 60       RTS
PRG:03AC3: AD 47 07 LDA $0747
PRG:03AC6: D0 63    BNE $63
PRG:03AC8: B5 2A    LDA $2A
PRG:03ACA: 29 7F    AND $7F
PRG:03ACC: BC AE 06 LDY $06AE
PRG:03ACF: C9 02    CMP $02
PRG:03AD1: F0 20    BEQ $20
PRG:03AD3: B0 34    BCS $34
PRG:03AD5: 8A       TXA
PRG:03AD6: 18       CLC
PRG:03AD7: 69 0D    ADC $0D
PRG:03AD9: AA       TAX
PRG:03ADA: A9 10    LDA $10
PRG:03ADC: 85 00    STA $00
PRG:03ADE: A9 0F    LDA $0F
PRG:03AE0: 85 01    STA $01
PRG:03AE2: A9 04    LDA $04
PRG:03AE4: 85 02    STA $02
PRG:03AE6: A9 00    LDA $00
PRG:03AE8: 20 D7 BF JSR $BFD7
PRG:03AEB: 20 0F BF JSR $BF0F
PRG:03AEE: A6 08    LDX $08
PRG:03AF0: 4C 28 BB JMP $BB28
PRG:03AF3: A9 FE    LDA $FE
PRG:03AF5: 95 AC    STA $AC
PRG:03AF7: B9 1E 00 LDA $001E
PRG:03AFA: 29 F7    AND $F7
PRG:03AFC: 99 1E 00 STA $001E
PRG:03AFF: B6 46    LDX $46
PRG:03B01: CA       DEX
PRG:03B02: BD 92 BA LDA $BA92
PRG:03B05: A6 08    LDX $08
PRG:03B07: 95 64    STA $64
PRG:03B09: D6 2A    DEC $2A
PRG:03B0B: B9 87 00 LDA $0087
PRG:03B0E: 18       CLC
PRG:03B0F: 69 02    ADC $02
PRG:03B11: 95 93    STA $93
PRG:03B13: B9 6E 00 LDA $006E
PRG:03B16: 69 00    ADC $00
PRG:03B18: 95 7A    STA $7A
PRG:03B1A: B9 CF 00 LDA $00CF
PRG:03B1D: 38       SEC
PRG:03B1E: E9 0A    SBC $0A
PRG:03B20: 95 DB    STA $DB
PRG:03B22: A9 01    LDA $01
PRG:03B24: 95 C2    STA $C2
PRG:03B26: D0 03    BNE $03
PRG:03B28: 20 C4 D7 JSR $D7C4
PRG:03B2B: 20 9B F1 JSR $F19B
PRG:03B2E: 20 48 F1 JSR $F148
PRG:03B31: 20 36 E2 JSR $E236
PRG:03B34: 20 DC E4 JSR $E4DC
PRG:03B37: 60       RTS
PRG:03B38: 20 84 BB JSR $BB84
PRG:03B3B: B5 76    LDA $76
PRG:03B3D: 99 7A 00 STA $007A
PRG:03B40: B5 8F    LDA $8F
PRG:03B42: 09 05    ORA $05
PRG:03B44: 99 93 00 STA $0093
PRG:03B47: B5 D7    LDA $D7
PRG:03B49: E9 10    SBC $10
PRG:03B4B: 99 DB 00 STA $00DB
PRG:03B4E: 4C 6C BB JMP $BB6C
PRG:03B51: 20 84 BB JSR $BB84
PRG:03B54: BD EA 03 LDA $03EA
PRG:03B57: 99 7A 00 STA $007A
PRG:03B5A: A5 06    LDA $06
PRG:03B5C: 0A       ASL
PRG:03B5D: 0A       ASL
PRG:03B5E: 0A       ASL
PRG:03B5F: 0A       ASL
PRG:03B60: 09 05    ORA $05
PRG:03B62: 99 93 00 STA $0093
PRG:03B65: A5 02    LDA $02
PRG:03B67: 69 20    ADC $20
PRG:03B69: 99 DB 00 STA $00DB
PRG:03B6C: A9 FB    LDA $FB
PRG:03B6E: 99 AC 00 STA $00AC
PRG:03B71: A9 01    LDA $01
PRG:03B73: 99 C2 00 STA $00C2
PRG:03B76: 99 2A 00 STA $002A
PRG:03B79: 85 FE    STA $FE
PRG:03B7B: 86 08    STX $08
PRG:03B7D: 20 FE BB JSR $BBFE
PRG:03B80: EE 48 07 INC $0748
PRG:03B83: 60       RTS
PRG:03B84: A0 08    LDY $08
PRG:03B86: B9 2A 00 LDA $002A
PRG:03B89: F0 07    BEQ $07
PRG:03B8B: 88       DEY
PRG:03B8C: C0 05    CPY $05
PRG:03B8E: D0 F6    BNE $F6
PRG:03B90: A0 08    LDY $08
PRG:03B92: 8C B7 06 STY $06B7
PRG:03B95: 60       RTS
PRG:03B96: A2 08    LDX $08
PRG:03B98: 86 08    STX $08
PRG:03B9A: B5 2A    LDA $2A
PRG:03B9C: F0 56    BEQ $56
PRG:03B9E: 0A       ASL
PRG:03B9F: 90 06    BCC $06
PRG:03BA1: 20 C3 BA JSR $BAC3
PRG:03BA4: 4C F4 BB JMP $BBF4
PRG:03BA7: B4 2A    LDY $2A
PRG:03BA9: 88       DEY
PRG:03BAA: F0 1D    BEQ $1D
PRG:03BAC: F6 2A    INC $2A
PRG:03BAE: B5 93    LDA $93
PRG:03BB0: 18       CLC
PRG:03BB1: 6D 75 07 ADC $0775
PRG:03BB4: 95 93    STA $93
PRG:03BB6: B5 7A    LDA $7A
PRG:03BB8: 69 00    ADC $00
PRG:03BBA: 95 7A    STA $7A
PRG:03BBC: B5 2A    LDA $2A
PRG:03BBE: C9 30    CMP $30
PRG:03BC0: D0 26    BNE $26
PRG:03BC2: A9 00    LDA $00
PRG:03BC4: 95 2A    STA $2A
PRG:03BC6: 4C F4 BB JMP $BBF4
PRG:03BC9: 8A       TXA
PRG:03BCA: 18       CLC
PRG:03BCB: 69 0D    ADC $0D
PRG:03BCD: AA       TAX
PRG:03BCE: A9 50    LDA $50
PRG:03BD0: 85 00    STA $00
PRG:03BD2: A9 06    LDA $06
PRG:03BD4: 85 02    STA $02
PRG:03BD6: 4A       LSR
PRG:03BD7: 85 01    STA $01
PRG:03BD9: A9 00    LDA $00
PRG:03BDB: 20 D7 BF JSR $BFD7
PRG:03BDE: A6 08    LDX $08
PRG:03BE0: B5 AC    LDA $AC
PRG:03BE2: C9 05    CMP $05
PRG:03BE4: D0 02    BNE $02
PRG:03BE6: F6 2A    INC $2A
PRG:03BE8: 20 48 F1 JSR $F148
PRG:03BEB: 20 9B F1 JSR $F19B
PRG:03BEE: 20 36 E2 JSR $E236
PRG:03BF1: 20 86 E6 JSR $E686
PRG:03BF4: CA       DEX
PRG:03BF5: 10 A1    BPL $A1
PRG:03BF7: 60       RTS
PRG:03BF8: 17       .byte $17
PRG:03BF9: 1D 0B 11 ORA $110B
PRG:03BFC: 02       .byte $02
PRG:03BFD: 13       .byte $13
PRG:03BFE: A9 01    LDA $01
PRG:03C00: 8D 39 01 STA $0139
PRG:03C03: AE 53 07 LDX $0753
PRG:03C06: BC F8 BB LDY $BBF8
PRG:03C09: 20 5F 8F JSR $8F5F
PRG:03C0C: EE 5E 07 INC $075E
PRG:03C0F: AD 5E 07 LDA $075E
PRG:03C12: C9 64    CMP $64
PRG:03C14: D0 0C    BNE $0C
PRG:03C16: A9 00    LDA $00
PRG:03C18: 8D 5E 07 STA $075E
PRG:03C1B: EE 5A 07 INC $075A
PRG:03C1E: A9 40    LDA $40
PRG:03C20: 85 FE    STA $FE
PRG:03C22: A9 02    LDA $02
PRG:03C24: 8D 38 01 STA $0138
PRG:03C27: AE 53 07 LDX $0753
PRG:03C2A: BC FA BB LDY $BBFA
PRG:03C2D: 20 5F 8F JSR $8F5F
PRG:03C30: AC 53 07 LDY $0753
PRG:03C33: B9 FC BB LDA $BBFC
PRG:03C36: 20 06 8F JSR $8F06
PRG:03C39: AC 00 03 LDY $0300
PRG:03C3C: B9 FB 02 LDA $02FB
PRG:03C3F: D0 05    BNE $05
PRG:03C41: A9 24    LDA $24
PRG:03C43: 99 FB 02 STA $02FB
PRG:03C46: A6 08    LDX $08
PRG:03C48: 60       RTS
PRG:03C49: A9 2E    LDA $2E
PRG:03C4B: 85 1B    STA $1B
PRG:03C4D: B5 76    LDA $76
PRG:03C4F: 85 73    STA $73
PRG:03C51: B5 8F    LDA $8F
PRG:03C53: 85 8C    STA $8C
PRG:03C55: A9 01    LDA $01
PRG:03C57: 85 BB    STA $BB
PRG:03C59: B5 D7    LDA $D7
PRG:03C5B: 38       SEC
PRG:03C5C: E9 08    SBC $08
PRG:03C5E: 85 D4    STA $D4
PRG:03C60: A9 01    LDA $01
PRG:03C62: 85 23    STA $23
PRG:03C64: 85 14    STA $14
PRG:03C66: A9 03    LDA $03
PRG:03C68: 8D 9F 04 STA $049F
PRG:03C6B: A5 39    LDA $39
PRG:03C6D: C9 02    CMP $02
PRG:03C6F: B0 0A    BCS $0A
PRG:03C71: AD 56 07 LDA $0756
PRG:03C74: C9 02    CMP $02
PRG:03C76: 90 01    BCC $01
PRG:03C78: 4A       LSR
PRG:03C79: 85 39    STA $39
PRG:03C7B: A9 20    LDA $20
PRG:03C7D: 8D CA 03 STA $03CA
PRG:03C80: A9 02    LDA $02
PRG:03C82: 85 FE    STA $FE
PRG:03C84: 60       RTS
PRG:03C85: A2 05    LDX $05
PRG:03C87: 86 08    STX $08
PRG:03C89: A5 23    LDA $23
PRG:03C8B: F0 5D    BEQ $5D
PRG:03C8D: 0A       ASL
PRG:03C8E: 90 23    BCC $23
PRG:03C90: AD 47 07 LDA $0747
PRG:03C93: D0 43    BNE $43
PRG:03C95: A5 39    LDA $39
PRG:03C97: F0 11    BEQ $11
PRG:03C99: C9 03    CMP $03
PRG:03C9B: F0 0D    BEQ $0D
PRG:03C9D: C9 02    CMP $02
PRG:03C9F: D0 37    BNE $37
PRG:03CA1: 20 F9 CA JSR $CAF9
PRG:03CA4: 20 63 E1 JSR $E163
PRG:03CA7: 4C D8 BC JMP $BCD8
PRG:03CAA: 20 77 CA JSR $CA77
PRG:03CAD: 20 C1 DF JSR $DFC1
PRG:03CB0: 4C D8 BC JMP $BCD8
PRG:03CB3: A5 09    LDA $09
PRG:03CB5: 29 03    AND $03
PRG:03CB7: D0 19    BNE $19
PRG:03CB9: C6 D4    DEC $D4
PRG:03CBB: A5 23    LDA $23
PRG:03CBD: E6 23    INC $23
PRG:03CBF: C9 11    CMP $11
PRG:03CC1: 90 0F    BCC $0F
PRG:03CC3: A9 10    LDA $10
PRG:03CC5: 95 58    STA $58
PRG:03CC7: A9 80    LDA $80
PRG:03CC9: 85 23    STA $23
PRG:03CCB: 0A       ASL
PRG:03CCC: 8D CA 03 STA $03CA
PRG:03CCF: 2A       ROL
PRG:03CD0: 95 46    STA $46
PRG:03CD2: A5 23    LDA $23
PRG:03CD4: C9 06    CMP $06
PRG:03CD6: 90 12    BCC $12
PRG:03CD8: 20 52 F1 JSR $F152
PRG:03CDB: 20 AF F1 JSR $F1AF
PRG:03CDE: 20 43 E2 JSR $E243
PRG:03CE1: 20 D2 E6 JSR $E6D2
PRG:03CE4: 20 53 D8 JSR $D853
PRG:03CE7: 20 7A D6 JSR $D67A
PRG:03CEA: 60       RTS
PRG:03CEB: 04 12    NOP $12
PRG:03CED: 48       PHA
PRG:03CEE: A9 11    LDA $11
PRG:03CF0: AE EE 03 LDX $03EE
PRG:03CF3: AC 54 07 LDY $0754
PRG:03CF6: D0 02    BNE $02
PRG:03CF8: A9 12    LDA $12
PRG:03CFA: 95 26    STA $26
PRG:03CFC: 20 6B 8A JSR $8A6B
PRG:03CFF: AE EE 03 LDX $03EE
PRG:03D02: A5 02    LDA $02
PRG:03D04: 9D E4 03 STA $03E4
PRG:03D07: A8       TAY
PRG:03D08: A5 06    LDA $06
PRG:03D0A: 9D E6 03 STA $03E6
PRG:03D0D: B1 06    LDA $06
PRG:03D0F: 20 F6 BD JSR $BDF6
PRG:03D12: 85 00    STA $00
PRG:03D14: AC 54 07 LDY $0754
PRG:03D17: D0 01    BNE $01
PRG:03D19: 98       TYA
PRG:03D1A: 90 25    BCC $25
PRG:03D1C: A0 11    LDY $11
PRG:03D1E: 94 26    STY $26
PRG:03D20: A9 C4    LDA $C4
PRG:03D22: A4 00    LDY $00
PRG:03D24: C0 58    CPY $58
PRG:03D26: F0 04    BEQ $04
PRG:03D28: C0 5D    CPY $5D
PRG:03D2A: D0 15    BNE $15
PRG:03D2C: AD BC 06 LDA $06BC
PRG:03D2F: D0 08    BNE $08
PRG:03D31: A9 0B    LDA $0B
PRG:03D33: 8D 9D 07 STA $079D
PRG:03D36: EE BC 06 INC $06BC
PRG:03D39: AD 9D 07 LDA $079D
PRG:03D3C: D0 02    BNE $02
PRG:03D3E: A0 C4    LDY $C4
PRG:03D40: 98       TYA
PRG:03D41: 9D E8 03 STA $03E8
PRG:03D44: 20 84 BD JSR $BD84
PRG:03D47: A4 02    LDY $02
PRG:03D49: A9 23    LDA $23
PRG:03D4B: 91 06    STA $06
PRG:03D4D: A9 10    LDA $10
PRG:03D4F: 8D 84 07 STA $0784
PRG:03D52: 68       PLA
PRG:03D53: 85 05    STA $05
PRG:03D55: A0 00    LDY $00
PRG:03D57: AD 14 07 LDA $0714
PRG:03D5A: D0 05    BNE $05
PRG:03D5C: AD 54 07 LDA $0754
PRG:03D5F: F0 01    BEQ $01
PRG:03D61: C8       INY
PRG:03D62: A5 CE    LDA $CE
PRG:03D64: 18       CLC
PRG:03D65: 79 EB BC ADC $BCEB
PRG:03D68: 29 F0    AND $F0
PRG:03D6A: 95 D7    STA $D7
PRG:03D6C: B4 26    LDY $26
PRG:03D6E: C0 11    CPY $11
PRG:03D70: F0 06    BEQ $06
PRG:03D72: 20 02 BE JSR $BE02
PRG:03D75: 4C 7B BD JMP $BD7B
PRG:03D78: 20 9B BD JSR $BD9B
PRG:03D7B: AD EE 03 LDA $03EE
PRG:03D7E: 49 01    EOR $01
PRG:03D80: 8D EE 03 STA $03EE
PRG:03D83: 60       RTS
PRG:03D84: A5 86    LDA $86
PRG:03D86: 18       CLC
PRG:03D87: 69 08    ADC $08
PRG:03D89: 29 F0    AND $F0
PRG:03D8B: 95 8F    STA $8F
PRG:03D8D: A5 6D    LDA $6D
PRG:03D8F: 69 00    ADC $00
PRG:03D91: 95 76    STA $76
PRG:03D93: 9D EA 03 STA $03EA
PRG:03D96: A5 B5    LDA $B5
PRG:03D98: 95 BE    STA $BE
PRG:03D9A: 60       RTS
PRG:03D9B: 20 1F BE JSR $BE1F
PRG:03D9E: A9 02    LDA $02
PRG:03DA0: 85 FF    STA $FF
PRG:03DA2: A9 00    LDA $00
PRG:03DA4: 95 60    STA $60
PRG:03DA6: 9D 3C 04 STA $043C
PRG:03DA9: 85 9F    STA $9F
PRG:03DAB: A9 FE    LDA $FE
PRG:03DAD: 95 A8    STA $A8
PRG:03DAF: A5 05    LDA $05
PRG:03DB1: 20 F6 BD JSR $BDF6
PRG:03DB4: 90 31    BCC $31
PRG:03DB6: 98       TYA
PRG:03DB7: C9 09    CMP $09
PRG:03DB9: 90 02    BCC $02
PRG:03DBB: E9 05    SBC $05
PRG:03DBD: 20 04 8E JSR $8E04
PRG:03DC0: D2       .byte $D2
PRG:03DC1: BD 38 BB LDA $BB38
PRG:03DC4: 38       SEC
PRG:03DC5: BB       .byte $BB
PRG:03DC6: D8       CLD
PRG:03DC7: BD D2 BD LDA $BDD2
PRG:03DCA: DF       .byte $DF
PRG:03DCB: BD D5 BD LDA $BDD5
PRG:03DCE: 38       SEC
PRG:03DCF: BB       .byte $BB
PRG:03DD0: D8       CLD
PRG:03DD1: BD A9 00 LDA $00A9
PRG:03DD4: 2C A9 02 BIT $02A9
PRG:03DD7: 2C A9 03 BIT $03A9
PRG:03DDA: 85 39    STA $39
PRG:03DDC: 4C 49 BC JMP $BC49
PRG:03DDF: A2 05    LDX $05
PRG:03DE1: AC EE 03 LDY $03EE
PRG:03DE4: 20 1E B9 JSR $B91E
PRG:03DE7: 60       RTS
PRG:03DE8: C1 C0    CMP $C0
PRG:03DEA: 5F       .byte $5F
PRG:03DEB: 60       RTS
PRG:03DEC: 55 56    EOR $56
PRG:03DEE: 57       .byte $57
PRG:03DEF: 58       CLI
PRG:03DF0: 59 5A 5B EOR $5B5A
PRG:03DF3: 5C 5D 5E NOP $5E5D
PRG:03DF6: A0 0D    LDY $0D
PRG:03DF8: D9 E8 BD CMP $BDE8
PRG:03DFB: F0 04    BEQ $04
PRG:03DFD: 88       DEY
PRG:03DFE: 10 F8    BPL $F8
PRG:03E00: 18       CLC
PRG:03E01: 60       RTS
PRG:03E02: 20 1F BE JSR $BE1F
PRG:03E05: A9 01    LDA $01
PRG:03E07: 9D EC 03 STA $03EC
PRG:03E0A: 85 FD    STA $FD
PRG:03E0C: 20 41 BE JSR $BE41
PRG:03E0F: A9 FE    LDA $FE
PRG:03E11: 85 9F    STA $9F
PRG:03E13: A9 05    LDA $05
PRG:03E15: 8D 39 01 STA $0139
PRG:03E18: 20 27 BC JSR $BC27
PRG:03E1B: AE EE 03 LDX $03EE
PRG:03E1E: 60       RTS
PRG:03E1F: AE EE 03 LDX $03EE
PRG:03E22: A4 02    LDY $02
PRG:03E24: F0 1A    BEQ $1A
PRG:03E26: 98       TYA
PRG:03E27: 38       SEC
PRG:03E28: E9 10    SBC $10
PRG:03E2A: 85 02    STA $02
PRG:03E2C: A8       TAY
PRG:03E2D: B1 06    LDA $06
PRG:03E2F: C9 C2    CMP $C2
PRG:03E31: D0 0D    BNE $0D
PRG:03E33: A9 00    LDA $00
PRG:03E35: 91 06    STA $06
PRG:03E37: 20 4D 8A JSR $8A4D
PRG:03E3A: AE EE 03 LDX $03EE
PRG:03E3D: 20 51 BB JSR $BB51
PRG:03E40: 60       RTS
PRG:03E41: B5 8F    LDA $8F
PRG:03E43: 9D F1 03 STA $03F1
PRG:03E46: A9 F0    LDA $F0
PRG:03E48: 95 60    STA $60
PRG:03E4A: 95 62    STA $62
PRG:03E4C: A9 FA    LDA $FA
PRG:03E4E: 95 A8    STA $A8
PRG:03E50: A9 FC    LDA $FC
PRG:03E52: 95 AA    STA $AA
PRG:03E54: A9 00    LDA $00
PRG:03E56: 9D 3C 04 STA $043C
PRG:03E59: 9D 3E 04 STA $043E
PRG:03E5C: B5 76    LDA $76
PRG:03E5E: 95 78    STA $78
PRG:03E60: B5 8F    LDA $8F
PRG:03E62: 95 91    STA $91
PRG:03E64: B5 D7    LDA $D7
PRG:03E66: 18       CLC
PRG:03E67: 69 08    ADC $08
PRG:03E69: 95 D9    STA $D9
PRG:03E6B: A9 FA    LDA $FA
PRG:03E6D: 95 A8    STA $A8
PRG:03E6F: 60       RTS
PRG:03E70: B5 26    LDA $26
PRG:03E72: F0 5D    BEQ $5D
PRG:03E74: 29 0F    AND $0F
PRG:03E76: 48       PHA
PRG:03E77: A8       TAY
PRG:03E78: 8A       TXA
PRG:03E79: 18       CLC
PRG:03E7A: 69 09    ADC $09
PRG:03E7C: AA       TAX
PRG:03E7D: 88       DEY
PRG:03E7E: F0 33    BEQ $33
PRG:03E80: 20 A4 BF JSR $BFA4
PRG:03E83: 20 0F BF JSR $BF0F
PRG:03E86: 8A       TXA
PRG:03E87: 18       CLC
PRG:03E88: 69 02    ADC $02
PRG:03E8A: AA       TAX
PRG:03E8B: 20 A4 BF JSR $BFA4
PRG:03E8E: 20 0F BF JSR $BF0F
PRG:03E91: A6 08    LDX $08
PRG:03E93: 20 59 F1 JSR $F159
PRG:03E96: 20 B6 F1 JSR $F1B6
PRG:03E99: 20 53 EC JSR $EC53
PRG:03E9C: 68       PLA
PRG:03E9D: B4 BE    LDY $BE
PRG:03E9F: F0 30    BEQ $30
PRG:03EA1: 48       PHA
PRG:03EA2: A9 F0    LDA $F0
PRG:03EA4: D5 D9    CMP $D9
PRG:03EA6: B0 02    BCS $02
PRG:03EA8: 95 D9    STA $D9
PRG:03EAA: B5 D7    LDA $D7
PRG:03EAC: C9 F0    CMP $F0
PRG:03EAE: 68       PLA
PRG:03EAF: 90 20    BCC $20
PRG:03EB1: B0 1C    BCS $1C
PRG:03EB3: 20 A4 BF JSR $BFA4
PRG:03EB6: A6 08    LDX $08
PRG:03EB8: 20 59 F1 JSR $F159
PRG:03EBB: 20 B6 F1 JSR $F1B6
PRG:03EBE: 20 D1 EB JSR $EBD1
PRG:03EC1: B5 D7    LDA $D7
PRG:03EC3: 29 0F    AND $0F
PRG:03EC5: C9 05    CMP $05
PRG:03EC7: 68       PLA
PRG:03EC8: B0 07    BCS $07
PRG:03ECA: A9 01    LDA $01
PRG:03ECC: 9D EC 03 STA $03EC
PRG:03ECF: A9 00    LDA $00
PRG:03ED1: 95 26    STA $26
PRG:03ED3: 60       RTS
PRG:03ED4: A2 01    LDX $01
PRG:03ED6: 86 08    STX $08
PRG:03ED8: AD 01 03 LDA $0301
PRG:03EDB: D0 21    BNE $21
PRG:03EDD: BD EC 03 LDA $03EC
PRG:03EE0: F0 1C    BEQ $1C
PRG:03EE2: BD E6 03 LDA $03E6
PRG:03EE5: 85 06    STA $06
PRG:03EE7: A9 05    LDA $05
PRG:03EE9: 85 07    STA $07
PRG:03EEB: BD E4 03 LDA $03E4
PRG:03EEE: 85 02    STA $02
PRG:03EF0: A8       TAY
PRG:03EF1: BD E8 03 LDA $03E8
PRG:03EF4: 91 06    STA $06
PRG:03EF6: 20 61 8A JSR $8A61
PRG:03EF9: A9 00    LDA $00
PRG:03EFB: 9D EC 03 STA $03EC
PRG:03EFE: CA       DEX
PRG:03EFF: 10 D5    BPL $D5
PRG:03F01: 60       RTS
PRG:03F02: E8       INX
PRG:03F03: 20 0F BF JSR $BF0F
PRG:03F06: A6 08    LDX $08
PRG:03F08: 60       RTS
PRG:03F09: AD 0E 07 LDA $070E
PRG:03F0C: D0 3E    BNE $3E
PRG:03F0E: AA       TAX
PRG:03F0F: B5 57    LDA $57
PRG:03F11: 0A       ASL
PRG:03F12: 0A       ASL
PRG:03F13: 0A       ASL
PRG:03F14: 0A       ASL
PRG:03F15: 85 01    STA $01
PRG:03F17: B5 57    LDA $57
PRG:03F19: 4A       LSR
PRG:03F1A: 4A       LSR
PRG:03F1B: 4A       LSR
PRG:03F1C: 4A       LSR
PRG:03F1D: C9 08    CMP $08
PRG:03F1F: 90 02    BCC $02
PRG:03F21: 09 F0    ORA $F0
PRG:03F23: 85 00    STA $00
PRG:03F25: A0 00    LDY $00
PRG:03F27: C9 00    CMP $00
PRG:03F29: 10 01    BPL $01
PRG:03F2B: 88       DEY
PRG:03F2C: 84 02    STY $02
PRG:03F2E: BD 00 04 LDA $0400
PRG:03F31: 18       CLC
PRG:03F32: 65 01    ADC $01
PRG:03F34: 9D 00 04 STA $0400
PRG:03F37: A9 00    LDA $00
PRG:03F39: 2A       ROL
PRG:03F3A: 48       PHA
PRG:03F3B: 6A       ROR
PRG:03F3C: B5 86    LDA $86
PRG:03F3E: 65 00    ADC $00
PRG:03F40: 95 86    STA $86
PRG:03F42: B5 6D    LDA $6D
PRG:03F44: 65 02    ADC $02
PRG:03F46: 95 6D    STA $6D
PRG:03F48: 68       PLA
PRG:03F49: 18       CLC
PRG:03F4A: 65 00    ADC $00
PRG:03F4C: 60       RTS
PRG:03F4D: A2 00    LDX $00
PRG:03F4F: AD 47 07 LDA $0747
PRG:03F52: D0 05    BNE $05
PRG:03F54: AD 0E 07 LDA $070E
PRG:03F57: D0 F3    BNE $F3
PRG:03F59: AD 09 07 LDA $0709
PRG:03F5C: 85 00    STA $00
PRG:03F5E: A9 04    LDA $04
PRG:03F60: 4C AD BF JMP $BFAD
PRG:03F63: A0 3D    LDY $3D
PRG:03F65: B5 1E    LDA $1E
PRG:03F67: C9 05    CMP $05
PRG:03F69: D0 02    BNE $02
PRG:03F6B: A0 20    LDY $20
PRG:03F6D: 4C 94 BF JMP $BF94
PRG:03F70: A0 00    LDY $00
PRG:03F72: 4C 77 BF JMP $BF77
PRG:03F75: A0 01    LDY $01
PRG:03F77: E8       INX
PRG:03F78: A9 03    LDA $03
PRG:03F7A: 85 00    STA $00
PRG:03F7C: A9 06    LDA $06
PRG:03F7E: 85 01    STA $01
PRG:03F80: A9 02    LDA $02
PRG:03F82: 85 02    STA $02
PRG:03F84: 98       TYA
PRG:03F85: 4C D1 BF JMP $BFD1
PRG:03F88: A0 7F    LDY $7F
PRG:03F8A: D0 02    BNE $02
PRG:03F8C: A0 0F    LDY $0F
PRG:03F8E: A9 02    LDA $02
PRG:03F90: D0 04    BNE $04
PRG:03F92: A0 1C    LDY $1C
PRG:03F94: A9 03    LDA $03
PRG:03F96: 84 00    STY $00
PRG:03F98: E8       INX
PRG:03F99: 20 AD BF JSR $BFAD
PRG:03F9C: A6 08    LDX $08
PRG:03F9E: 60       RTS
PRG:03F9F: 06 08    ASL $08
PRG:03FA1: A0 00    LDY $00
PRG:03FA3: 2C A0 01 BIT $01A0
PRG:03FA6: A9 50    LDA $50
PRG:03FA8: 85 00    STA $00
PRG:03FAA: B9 9F BF LDA $BF9F
PRG:03FAD: 85 02    STA $02
PRG:03FAF: A9 00    LDA $00
PRG:03FB1: 4C D7 BF JMP $BFD7
PRG:03FB4: A9 00    LDA $00
PRG:03FB6: 2C A9 01 BIT $01A9
PRG:03FB9: 48       PHA
PRG:03FBA: B4 16    LDY $16
PRG:03FBC: E8       INX
PRG:03FBD: A9 05    LDA $05
PRG:03FBF: C0 29    CPY $29
PRG:03FC1: D0 02    BNE $02
PRG:03FC3: A9 09    LDA $09
PRG:03FC5: 85 00    STA $00
PRG:03FC7: A9 0A    LDA $0A
PRG:03FC9: 85 01    STA $01
PRG:03FCB: A9 03    LDA $03
PRG:03FCD: 85 02    STA $02
PRG:03FCF: 68       PLA
PRG:03FD0: A8       TAY
PRG:03FD1: 20 D7 BF JSR $BFD7
PRG:03FD4: A6 08    LDX $08
PRG:03FD6: 60       RTS
PRG:03FD7: 48       PHA
PRG:03FD8: BD 16 04 LDA $0416
PRG:03FDB: 18       CLC
PRG:03FDC: 7D 33 04 ADC $0433
PRG:03FDF: 9D 16 04 STA $0416
PRG:03FE2: A0 00    LDY $00
PRG:03FE4: B5 9F    LDA $9F
PRG:03FE6: 10 01    BPL $01
PRG:03FE8: 88       DEY
PRG:03FE9: 84 07    STY $07
PRG:03FEB: 75 CE    ADC $CE
PRG:03FED: 95 CE    STA $CE
PRG:03FEF: B5 B5    LDA $B5
PRG:03FF1: 65 07    ADC $07
PRG:03FF3: 95 B5    STA $B5
PRG:03FF5: BD 33 04 LDA $0433
PRG:03FF8: 18       CLC
PRG:03FF9: 65 00    ADC $00
PRG:03FFB: 9D 33 04 STA $0433
PRG:03FFE: B5 9F    LDA $9F
PRG:04000: 69 00    ADC $00
PRG:04002: 95 9F    STA $9F
PRG:04004: C5 02    CMP $02
PRG:04006: 30 10    BMI $10
PRG:04008: BD 33 04 LDA $0433
PRG:0400B: C9 80    CMP $80
PRG:0400D: 90 09    BCC $09
PRG:0400F: A5 02    LDA $02
PRG:04011: 95 9F    STA $9F
PRG:04013: A9 00    LDA $00
PRG:04015: 9D 33 04 STA $0433
PRG:04018: 68       PLA
PRG:04019: F0 2B    BEQ $2B
PRG:0401B: A5 02    LDA $02
PRG:0401D: 49 FF    EOR $FF
PRG:0401F: A8       TAY
PRG:04020: C8       INY
PRG:04021: 84 07    STY $07
PRG:04023: BD 33 04 LDA $0433
PRG:04026: 38       SEC
PRG:04027: E5 01    SBC $01
PRG:04029: 9D 33 04 STA $0433
PRG:0402C: B5 9F    LDA $9F
PRG:0402E: E9 00    SBC $00
PRG:04030: 95 9F    STA $9F
PRG:04032: C5 07    CMP $07
PRG:04034: 10 10    BPL $10
PRG:04036: BD 33 04 LDA $0433
PRG:04039: C9 80    CMP $80
PRG:0403B: B0 09    BCS $09
PRG:0403D: A5 07    LDA $07
PRG:0403F: 95 9F    STA $9F
PRG:04041: A9 FF    LDA $FF
PRG:04043: 9D 33 04 STA $0433
PRG:04046: 60       RTS
PRG:04047: B5 0F    LDA $0F
PRG:04049: 48       PHA
PRG:0404A: 0A       ASL
PRG:0404B: B0 12    BCS $12
PRG:0404D: 68       PLA
PRG:0404E: F0 03    BEQ $03
PRG:04050: 4C 82 C8 JMP $C882
PRG:04053: AD 1F 07 LDA $071F
PRG:04056: 29 07    AND $07
PRG:04058: C9 07    CMP $07
PRG:0405A: F0 0E    BEQ $0E
PRG:0405C: 4C CC C0 JMP $C0CC
PRG:0405F: 68       PLA
PRG:04060: 29 0F    AND $0F
PRG:04062: A8       TAY
PRG:04063: B9 0F 00 LDA $000F
PRG:04066: D0 02    BNE $02
PRG:04068: 95 0F    STA $0F
PRG:0406A: 60       RTS
PRG:0406B: 03       .byte $03
PRG:0406C: 03       .byte $03
PRG:0406D: 06 06    ASL $06
PRG:0406F: 06 06    ASL $06
PRG:04071: 06 06    ASL $06
PRG:04073: 07       .byte $07
PRG:04074: 07       .byte $07
PRG:04075: 07       .byte $07
PRG:04076: 05 09    ORA $09
PRG:04078: 04 05    NOP $05
PRG:0407A: 06 08    ASL $08
PRG:0407C: 09 0A    ORA $0A
PRG:0407E: 06 0B    ASL $0B
PRG:04080: 10 40    BPL $40
PRG:04082: B0 B0    BCS $B0
PRG:04084: 80 40    NOP $40
PRG:04086: 40       RTI
PRG:04087: 80 40    NOP $40
PRG:04089: F0 F0    BEQ $F0
PRG:0408B: F0 A5    BEQ $A5
PRG:0408D: 6D 38 E9 ADC $E938
PRG:04090: 04 85    NOP $85
PRG:04092: 6D AD 25 ADC $25AD
PRG:04095: 07       .byte $07
PRG:04096: 38       SEC
PRG:04097: E9 04    SBC $04
PRG:04099: 8D 25 07 STA $0725
PRG:0409C: AD 1A 07 LDA $071A
PRG:0409F: 38       SEC
PRG:040A0: E9 04    SBC $04
PRG:040A2: 8D 1A 07 STA $071A
PRG:040A5: AD 1B 07 LDA $071B
PRG:040A8: 38       SEC
PRG:040A9: E9 04    SBC $04
PRG:040AB: 8D 1B 07 STA $071B
PRG:040AE: AD 2A 07 LDA $072A
PRG:040B1: 38       SEC
PRG:040B2: E9 04    SBC $04
PRG:040B4: 8D 2A 07 STA $072A
PRG:040B7: A9 00    LDA $00
PRG:040B9: 8D 3B 07 STA $073B
PRG:040BC: 8D 2B 07 STA $072B
PRG:040BF: 8D 39 07 STA $0739
PRG:040C2: 8D 3A 07 STA $073A
PRG:040C5: B9 F8 9B LDA $9BF8
PRG:040C8: 8D 2C 07 STA $072C
PRG:040CB: 60       RTS
PRG:040CC: AD 45 07 LDA $0745
PRG:040CF: F0 5E    BEQ $5E
PRG:040D1: AD 26 07 LDA $0726
PRG:040D4: D0 59    BNE $59
PRG:040D6: A0 0B    LDY $0B
PRG:040D8: 88       DEY
PRG:040D9: 30 54    BMI $54
PRG:040DB: AD 5F 07 LDA $075F
PRG:040DE: D9 6B C0 CMP $C06B
PRG:040E1: D0 F5    BNE $F5
PRG:040E3: AD 25 07 LDA $0725
PRG:040E6: D9 76 C0 CMP $C076
PRG:040E9: D0 ED    BNE $ED
PRG:040EB: A5 CE    LDA $CE
PRG:040ED: D9 81 C0 CMP $C081
PRG:040F0: D0 23    BNE $23
PRG:040F2: A5 1D    LDA $1D
PRG:040F4: C9 00    CMP $00
PRG:040F6: D0 1D    BNE $1D
PRG:040F8: AD 5F 07 LDA $075F
PRG:040FB: C9 06    CMP $06
PRG:040FD: D0 23    BNE $23
PRG:040FF: EE D9 06 INC $06D9
PRG:04102: EE DA 06 INC $06DA
PRG:04105: AD DA 06 LDA $06DA
PRG:04108: C9 03    CMP $03
PRG:0410A: D0 1E    BNE $1E
PRG:0410C: AD D9 06 LDA $06D9
PRG:0410F: C9 03    CMP $03
PRG:04111: F0 0F    BEQ $0F
PRG:04113: D0 07    BNE $07
PRG:04115: AD 5F 07 LDA $075F
PRG:04118: C9 06    CMP $06
PRG:0411A: F0 E6    BEQ $E6
PRG:0411C: 20 8C C0 JSR $C08C
PRG:0411F: 20 71 D0 JSR $D071
PRG:04122: A9 00    LDA $00
PRG:04124: 8D DA 06 STA $06DA
PRG:04127: 8D D9 06 STA $06D9
PRG:0412A: A9 00    LDA $00
PRG:0412C: 8D 45 07 STA $0745
PRG:0412F: AD CD 06 LDA $06CD
PRG:04132: F0 10    BEQ $10
PRG:04134: 95 16    STA $16
PRG:04136: A9 01    LDA $01
PRG:04138: 95 0F    STA $0F
PRG:0413A: A9 00    LDA $00
PRG:0413C: 95 1E    STA $1E
PRG:0413E: 8D CD 06 STA $06CD
PRG:04141: 4C 26 C2 JMP $C226
PRG:04144: AC 39 07 LDY $0739
PRG:04147: B1 E9    LDA $E9
PRG:04149: C9 FF    CMP $FF
PRG:0414B: D0 03    BNE $03
PRG:0414D: 4C 16 C2 JMP $C216
PRG:04150: 29 0F    AND $0F
PRG:04152: C9 0E    CMP $0E
PRG:04154: F0 0E    BEQ $0E
PRG:04156: E0 05    CPX $05
PRG:04158: 90 0A    BCC $0A
PRG:0415A: C8       INY
PRG:0415B: B1 E9    LDA $E9
PRG:0415D: 29 3F    AND $3F
PRG:0415F: C9 2E    CMP $2E
PRG:04161: F0 01    BEQ $01
PRG:04163: 60       RTS
PRG:04164: AD 1D 07 LDA $071D
PRG:04167: 18       CLC
PRG:04168: 69 30    ADC $30
PRG:0416A: 29 F0    AND $F0
PRG:0416C: 85 07    STA $07
PRG:0416E: AD 1B 07 LDA $071B
PRG:04171: 69 00    ADC $00
PRG:04173: 85 06    STA $06
PRG:04175: AC 39 07 LDY $0739
PRG:04178: C8       INY
PRG:04179: B1 E9    LDA $E9
PRG:0417B: 0A       ASL
PRG:0417C: 90 0B    BCC $0B
PRG:0417E: AD 3B 07 LDA $073B
PRG:04181: D0 06    BNE $06
PRG:04183: EE 3B 07 INC $073B
PRG:04186: EE 3A 07 INC $073A
PRG:04189: 88       DEY
PRG:0418A: B1 E9    LDA $E9
PRG:0418C: 29 0F    AND $0F
PRG:0418E: C9 0F    CMP $0F
PRG:04190: D0 19    BNE $19
PRG:04192: AD 3B 07 LDA $073B
PRG:04195: D0 14    BNE $14
PRG:04197: C8       INY
PRG:04198: B1 E9    LDA $E9
PRG:0419A: 29 3F    AND $3F
PRG:0419C: 8D 3A 07 STA $073A
PRG:0419F: EE 39 07 INC $0739
PRG:041A2: EE 39 07 INC $0739
PRG:041A5: EE 3B 07 INC $073B
PRG:041A8: 4C CC C0 JMP $C0CC
PRG:041AB: AD 3A 07 LDA $073A
PRG:041AE: 95 6E    STA $6E
PRG:041B0: B1 E9    LDA $E9
PRG:041B2: 29 F0    AND $F0
PRG:041B4: 95 87    STA $87
PRG:041B6: CD 1D 07 CMP $071D
PRG:041B9: B5 6E    LDA $6E
PRG:041BB: ED 1B 07 SBC $071B
PRG:041BE: B0 0B    BCS $0B
PRG:041C0: B1 E9    LDA $E9
PRG:041C2: 29 0F    AND $0F
PRG:041C4: C9 0E    CMP $0E
PRG:041C6: F0 69    BEQ $69
PRG:041C8: 4C 50 C2 JMP $C250
PRG:041CB: A5 07    LDA $07
PRG:041CD: D5 87    CMP $87
PRG:041CF: A5 06    LDA $06
PRG:041D1: F5 6E    SBC $6E
PRG:041D3: 90 41    BCC $41
PRG:041D5: A9 01    LDA $01
PRG:041D7: 95 B6    STA $B6
PRG:041D9: B1 E9    LDA $E9
PRG:041DB: 0A       ASL
PRG:041DC: 0A       ASL
PRG:041DD: 0A       ASL
PRG:041DE: 0A       ASL
PRG:041DF: 95 CF    STA $CF
PRG:041E1: C9 E0    CMP $E0
PRG:041E3: F0 4C    BEQ $4C
PRG:041E5: C8       INY
PRG:041E6: B1 E9    LDA $E9
PRG:041E8: 29 40    AND $40
PRG:041EA: F0 05    BEQ $05
PRG:041EC: AD CC 06 LDA $06CC
PRG:041EF: F0 6D    BEQ $6D
PRG:041F1: B1 E9    LDA $E9
PRG:041F3: 29 3F    AND $3F
PRG:041F5: C9 37    CMP $37
PRG:041F7: 90 04    BCC $04
PRG:041F9: C9 3F    CMP $3F
PRG:041FB: 90 31    BCC $31
PRG:041FD: C9 06    CMP $06
PRG:041FF: D0 07    BNE $07
PRG:04201: AC 6A 07 LDY $076A
PRG:04204: F0 02    BEQ $02
PRG:04206: A9 02    LDA $02
PRG:04208: 95 16    STA $16
PRG:0420A: A9 01    LDA $01
PRG:0420C: 95 0F    STA $0F
PRG:0420E: 20 26 C2 JSR $C226
PRG:04211: B5 0F    LDA $0F
PRG:04213: D0 49    BNE $49
PRG:04215: 60       RTS
PRG:04216: AD CB 06 LDA $06CB
PRG:04219: D0 09    BNE $09
PRG:0421B: AD 98 03 LDA $0398
PRG:0421E: C9 01    CMP $01
PRG:04220: D0 0B    BNE $0B
PRG:04222: A9 2F    LDA $2F
PRG:04224: 95 16    STA $16
PRG:04226: A9 00    LDA $00
PRG:04228: 95 1E    STA $1E
PRG:0422A: 20 6C C2 JSR $C26C
PRG:0422D: 60       RTS
PRG:0422E: 4C 1B C7 JMP $C71B
PRG:04231: C8       INY
PRG:04232: C8       INY
PRG:04233: B1 E9    LDA $E9
PRG:04235: 4A       LSR
PRG:04236: 4A       LSR
PRG:04237: 4A       LSR
PRG:04238: 4A       LSR
PRG:04239: 4A       LSR
PRG:0423A: CD 5F 07 CMP $075F
PRG:0423D: D0 0E    BNE $0E
PRG:0423F: 88       DEY
PRG:04240: B1 E9    LDA $E9
PRG:04242: 8D 50 07 STA $0750
PRG:04245: C8       INY
PRG:04246: B1 E9    LDA $E9
PRG:04248: 29 1F    AND $1F
PRG:0424A: 8D 51 07 STA $0751
PRG:0424D: 4C 5B C2 JMP $C25B
PRG:04250: AC 39 07 LDY $0739
PRG:04253: B1 E9    LDA $E9
PRG:04255: 29 0F    AND $0F
PRG:04257: C9 0E    CMP $0E
PRG:04259: D0 03    BNE $03
PRG:0425B: EE 39 07 INC $0739
PRG:0425E: EE 39 07 INC $0739
PRG:04261: EE 39 07 INC $0739
PRG:04264: A9 00    LDA $00
PRG:04266: 8D 3B 07 STA $073B
PRG:04269: A6 08    LDX $08
PRG:0426B: 60       RTS
PRG:0426C: B5 16    LDA $16
PRG:0426E: C9 15    CMP $15
PRG:04270: B0 0D    BCS $0D
PRG:04272: A8       TAY
PRG:04273: B5 CF    LDA $CF
PRG:04275: 69 08    ADC $08
PRG:04277: 95 CF    STA $CF
PRG:04279: A9 01    LDA $01
PRG:0427B: 9D D8 03 STA $03D8
PRG:0427E: 98       TYA
PRG:0427F: 20 04 8E JSR $8E04
PRG:04282: 0E C3 0E ASL $0EC3
PRG:04285: C3       .byte $C3
PRG:04286: 0E C3 1E ASL $1EC3
PRG:04289: C3       .byte $C3
PRG:0428A: F0 C2    BEQ $C2
PRG:0428C: 28       PLP
PRG:0428D: C3       .byte $C3
PRG:0428E: F1 C2    SBC $C2
PRG:04290: 42       .byte $42
PRG:04291: C3       .byte $C3
PRG:04292: 6B       .byte $6B
PRG:04293: C3       .byte $C3
PRG:04294: F0 C2    BEQ $C2
PRG:04296: 75 C3    ADC $C3
PRG:04298: 75 C3    ADC $C3
PRG:0429A: F7       .byte $F7
PRG:0429B: C2       .byte $C2
PRG:0429C: 87       .byte $87
PRG:0429D: C7       .byte $C7
PRG:0429E: D1 C7    CMP $C7
PRG:042A0: 4A       LSR
PRG:042A1: C3       .byte $C3
PRG:042A2: 3D C3 85 AND $85C3
PRG:042A5: C3       .byte $C3
PRG:042A6: A0 C7    LDY $C7
PRG:042A8: F0 C2    BEQ $C2
PRG:042AA: A0 C7    LDY $C7
PRG:042AC: A0 C7    LDY $C7
PRG:042AE: A0 C7    LDY $C7
PRG:042B0: A0 C7    LDY $C7
PRG:042B2: B8       CLV
PRG:042B3: C7       .byte $C7
PRG:042B4: F0 C2    BEQ $C2
PRG:042B6: F0 C2    BEQ $C2
PRG:042B8: 5C C4 5C NOP $5CC4
PRG:042BB: C4 5C    CPY $5C
PRG:042BD: C4 5C    CPY $5C
PRG:042BF: C4 59    CPY $59
PRG:042C1: C4 F0    CPY $F0
PRG:042C3: C2       .byte $C2
PRG:042C4: F0 C2    BEQ $C2
PRG:042C6: F0 C2    BEQ $C2
PRG:042C8: F0 C2    BEQ $C2
PRG:042CA: DF       .byte $DF
PRG:042CB: C7       .byte $C7
PRG:042CC: 12       .byte $12
PRG:042CD: C8       INY
PRG:042CE: 3F       .byte $3F
PRG:042CF: C8       INY
PRG:042D0: 45 C8    EOR $C8
PRG:042D2: 0B       .byte $0B
PRG:042D3: C8       INY
PRG:042D4: 03       .byte $03
PRG:042D5: C8       INY
PRG:042D6: 0B       .byte $0B
PRG:042D7: C8       INY
PRG:042D8: 4B       .byte $4B
PRG:042D9: C8       INY
PRG:042DA: 57       .byte $57
PRG:042DB: C8       INY
PRG:042DC: 49 C5    EOR $C5
PRG:042DE: 60       RTS
PRG:042DF: BC 1E B9 LDY $B91E
PRG:042E2: F0 C2    BEQ $C2
PRG:042E4: F0 C2    BEQ $C2
PRG:042E6: F0 C2    BEQ $C2
PRG:042E8: F0 C2    BEQ $C2
PRG:042EA: F0 C2    BEQ $C2
PRG:042EC: 07       .byte $07
PRG:042ED: C3       .byte $C3
PRG:042EE: 81 C8    STA $C8
PRG:042F0: 60       RTS
PRG:042F1: 20 0E C3 JSR $C30E
PRG:042F4: 4C 46 C3 JMP $C346
PRG:042F7: A9 02    LDA $02
PRG:042F9: 95 B6    STA $B6
PRG:042FB: 95 CF    STA $CF
PRG:042FD: 4A       LSR
PRG:042FE: 9D 96 07 STA $0796
PRG:04301: 4A       LSR
PRG:04302: 95 1E    STA $1E
PRG:04304: 4C 46 C3 JMP $C346
PRG:04307: A9 B8    LDA $B8
PRG:04309: 95 CF    STA $CF
PRG:0430B: 60       RTS
PRG:0430C: F8       SED
PRG:0430D: F4 A0    NOP $A0
PRG:0430F: 01 AD    ORA $AD
PRG:04311: 6A       ROR
PRG:04312: 07       .byte $07
PRG:04313: D0 01    BNE $01
PRG:04315: 88       DEY
PRG:04316: B9 0C C3 LDA $C30C
PRG:04319: 95 58    STA $58
PRG:0431B: 4C 5A C3 JMP $C35A
PRG:0431E: 20 0E C3 JSR $C30E
PRG:04321: A9 01    LDA $01
PRG:04323: 95 1E    STA $1E
PRG:04325: 60       RTS
PRG:04326: 80 50    NOP $50
PRG:04328: A9 00    LDA $00
PRG:0432A: 9D A2 03 STA $03A2
PRG:0432D: 95 58    STA $58
PRG:0432F: AC CC 06 LDY $06CC
PRG:04332: B9 26 C3 LDA $C326
PRG:04335: 9D 96 07 STA $0796
PRG:04338: A9 0B    LDA $0B
PRG:0433A: 4C 5C C3 JMP $C35C
PRG:0433D: A9 00    LDA $00
PRG:0433F: 4C 19 C3 JMP $C319
PRG:04342: A9 00    LDA $00
PRG:04344: 95 58    STA $58
PRG:04346: A9 09    LDA $09
PRG:04348: D0 12    BNE $12
PRG:0434A: A0 30    LDY $30
PRG:0434C: B5 CF    LDA $CF
PRG:0434E: 9D 01 04 STA $0401
PRG:04351: 10 02    BPL $02
PRG:04353: A0 E0    LDY $E0
PRG:04355: 98       TYA
PRG:04356: 75 CF    ADC $CF
PRG:04358: 95 58    STA $58
PRG:0435A: A9 03    LDA $03
PRG:0435C: 9D 9A 04 STA $049A
PRG:0435F: A9 02    LDA $02
PRG:04361: 95 46    STA $46
PRG:04363: A9 00    LDA $00
PRG:04365: 95 A0    STA $A0
PRG:04367: 9D 34 04 STA $0434
PRG:0436A: 60       RTS
PRG:0436B: A9 02    LDA $02
PRG:0436D: 95 46    STA $46
PRG:0436F: A9 09    LDA $09
PRG:04371: 9D 9A 04 STA $049A
PRG:04374: 60       RTS
PRG:04375: 20 46 C3 JSR $C346
PRG:04378: BD A7 07 LDA $07A7
PRG:0437B: 29 10    AND $10
PRG:0437D: 95 58    STA $58
PRG:0437F: B5 CF    LDA $CF
PRG:04381: 9D 34 04 STA $0434
PRG:04384: 60       RTS
PRG:04385: AD CB 06 LDA $06CB
PRG:04388: D0 0B    BNE $0B
PRG:0438A: A9 00    LDA $00
PRG:0438C: 8D D1 06 STA $06D1
PRG:0438F: 20 3D C3 JSR $C33D
PRG:04392: 4C D9 C7 JMP $C7D9
PRG:04395: 4C 98 C9 JMP $C998
PRG:04398: 26 2C    ROL $2C
PRG:0439A: 32       .byte $32
PRG:0439B: 38       SEC
PRG:0439C: 20 22 24 JSR $2422
PRG:0439F: 26 13    ROL $13
PRG:043A1: 14 15    NOP $15
PRG:043A3: 16 AD    ASL $AD
PRG:043A5: 8F       .byte $8F
PRG:043A6: 07       .byte $07
PRG:043A7: D0 3C    BNE $3C
PRG:043A9: E0 05    CPX $05
PRG:043AB: B0 38    BCS $38
PRG:043AD: A9 80    LDA $80
PRG:043AF: 8D 8F 07 STA $078F
PRG:043B2: A0 04    LDY $04
PRG:043B4: B9 16 00 LDA $0016
PRG:043B7: C9 11    CMP $11
PRG:043B9: F0 2B    BEQ $2B
PRG:043BB: 88       DEY
PRG:043BC: 10 F6    BPL $F6
PRG:043BE: EE D1 06 INC $06D1
PRG:043C1: AD D1 06 LDA $06D1
PRG:043C4: C9 07    CMP $07
PRG:043C6: 90 1D    BCC $1D
PRG:043C8: A2 04    LDX $04
PRG:043CA: B5 0F    LDA $0F
PRG:043CC: F0 05    BEQ $05
PRG:043CE: CA       DEX
PRG:043CF: 10 F9    BPL $F9
PRG:043D1: 30 10    BMI $10
PRG:043D3: A9 00    LDA $00
PRG:043D5: 95 1E    STA $1E
PRG:043D7: A9 11    LDA $11
PRG:043D9: 95 16    STA $16
PRG:043DB: 20 8A C3 JSR $C38A
PRG:043DE: A9 20    LDA $20
PRG:043E0: 20 D8 C5 JSR $C5D8
PRG:043E3: A6 08    LDX $08
PRG:043E5: 60       RTS
PRG:043E6: A5 CE    LDA $CE
PRG:043E8: C9 2C    CMP $2C
PRG:043EA: 90 F9    BCC $F9
PRG:043EC: B9 1E 00 LDA $001E
PRG:043EF: D0 F4    BNE $F4
PRG:043F1: B9 6E 00 LDA $006E
PRG:043F4: 95 6E    STA $6E
PRG:043F6: B9 87 00 LDA $0087
PRG:043F9: 95 87    STA $87
PRG:043FB: A9 01    LDA $01
PRG:043FD: 95 B6    STA $B6
PRG:043FF: B9 CF 00 LDA $00CF
PRG:04402: 38       SEC
PRG:04403: E9 08    SBC $08
PRG:04405: 95 CF    STA $CF
PRG:04407: BD A7 07 LDA $07A7
PRG:0440A: 29 03    AND $03
PRG:0440C: A8       TAY
PRG:0440D: A2 02    LDX $02
PRG:0440F: B9 98 C3 LDA $C398
PRG:04412: 95 01    STA $01
PRG:04414: C8       INY
PRG:04415: C8       INY
PRG:04416: C8       INY
PRG:04417: C8       INY
PRG:04418: CA       DEX
PRG:04419: 10 F4    BPL $F4
PRG:0441B: A6 08    LDX $08
PRG:0441D: 20 6C CF JSR $CF6C
PRG:04420: A4 57    LDY $57
PRG:04422: C0 08    CPY $08
PRG:04424: B0 0E    BCS $0E
PRG:04426: A8       TAY
PRG:04427: BD A8 07 LDA $07A8
PRG:0442A: 29 03    AND $03
PRG:0442C: F0 05    BEQ $05
PRG:0442E: 98       TYA
PRG:0442F: 49 FF    EOR $FF
PRG:04431: A8       TAY
PRG:04432: C8       INY
PRG:04433: 98       TYA
PRG:04434: 20 46 C3 JSR $C346
PRG:04437: A0 02    LDY $02
PRG:04439: 95 58    STA $58
PRG:0443B: C9 00    CMP $00
PRG:0443D: 30 01    BMI $01
PRG:0443F: 88       DEY
PRG:04440: 94 46    STY $46
PRG:04442: A9 FD    LDA $FD
PRG:04444: 95 A0    STA $A0
PRG:04446: A9 01    LDA $01
PRG:04448: 95 0F    STA $0F
PRG:0444A: A9 05    LDA $05
PRG:0444C: 95 1E    STA $1E
PRG:0444E: 60       RTS
PRG:0444F: 28       PLP
PRG:04450: 38       SEC
PRG:04451: 28       PLP
PRG:04452: 38       SEC
PRG:04453: 28       PLP
PRG:04454: 00 00    BRK $00
PRG:04456: 10 10    BPL $10
PRG:04458: 00 20    BRK $20
PRG:0445A: 75 C5    ADC $C5
PRG:0445C: A9 00    LDA $00
PRG:0445E: 95 58    STA $58
PRG:04460: B5 16    LDA $16
PRG:04462: 38       SEC
PRG:04463: E9 1B    SBC $1B
PRG:04465: A8       TAY
PRG:04466: B9 4F C4 LDA $C44F
PRG:04469: 9D 88 03 STA $0388
PRG:0446C: B9 54 C4 LDA $C454
PRG:0446F: 95 34    STA $34
PRG:04471: B5 CF    LDA $CF
PRG:04473: 18       CLC
PRG:04474: 69 04    ADC $04
PRG:04476: 95 CF    STA $CF
PRG:04478: B5 87    LDA $87
PRG:0447A: 18       CLC
PRG:0447B: 69 04    ADC $04
PRG:0447D: 95 87    STA $87
PRG:0447F: B5 6E    LDA $6E
PRG:04481: 69 00    ADC $00
PRG:04483: 95 6E    STA $6E
PRG:04485: 4C D9 C7 JMP $C7D9
PRG:04488: 80 30    NOP $30
PRG:0448A: 40       RTI
PRG:0448B: 80 30    NOP $30
PRG:0448D: 50 50    BVC $50
PRG:0448F: 70 20    BVS $20
PRG:04491: 40       RTI
PRG:04492: 80 A0    NOP $A0
PRG:04494: 70 40    BVS $40
PRG:04496: 90 68    BCC $68
PRG:04498: 0E 05 06 ASL $0605
PRG:0449B: 0E 1C 20 ASL $201C
PRG:0449E: 10 0C    BPL $0C
PRG:044A0: 1E 22 18 ASL $1822
PRG:044A3: 14 10    NOP $10
PRG:044A5: 60       RTS
PRG:044A6: 20 48 AD JSR $AD48
PRG:044A9: 8F       .byte $8F
PRG:044AA: 07       .byte $07
PRG:044AB: D0 A1    BNE $A1
PRG:044AD: 20 46 C3 JSR $C346
PRG:044B0: BD A8 07 LDA $07A8
PRG:044B3: 29 03    AND $03
PRG:044B5: A8       TAY
PRG:044B6: B9 A4 C4 LDA $C4A4
PRG:044B9: 8D 8F 07 STA $078F
PRG:044BC: A0 03    LDY $03
PRG:044BE: AD CC 06 LDA $06CC
PRG:044C1: F0 01    BEQ $01
PRG:044C3: C8       INY
PRG:044C4: 84 00    STY $00
PRG:044C6: E4 00    CPX $00
PRG:044C8: B0 84    BCS $84
PRG:044CA: BD A7 07 LDA $07A7
PRG:044CD: 29 03    AND $03
PRG:044CF: 85 00    STA $00
PRG:044D1: 85 01    STA $01
PRG:044D3: A9 FB    LDA $FB
PRG:044D5: 95 A0    STA $A0
PRG:044D7: A9 00    LDA $00
PRG:044D9: A4 57    LDY $57
PRG:044DB: F0 07    BEQ $07
PRG:044DD: A9 04    LDA $04
PRG:044DF: C0 19    CPY $19
PRG:044E1: 90 01    BCC $01
PRG:044E3: 0A       ASL
PRG:044E4: 48       PHA
PRG:044E5: 18       CLC
PRG:044E6: 65 00    ADC $00
PRG:044E8: 85 00    STA $00
PRG:044EA: BD A8 07 LDA $07A8
PRG:044ED: 29 03    AND $03
PRG:044EF: F0 07    BEQ $07
PRG:044F1: BD A9 07 LDA $07A9
PRG:044F4: 29 0F    AND $0F
PRG:044F6: 85 00    STA $00
PRG:044F8: 68       PLA
PRG:044F9: 18       CLC
PRG:044FA: 65 01    ADC $01
PRG:044FC: A8       TAY
PRG:044FD: B9 98 C4 LDA $C498
PRG:04500: 95 58    STA $58
PRG:04502: A9 01    LDA $01
PRG:04504: 95 46    STA $46
PRG:04506: A5 57    LDA $57
PRG:04508: D0 12    BNE $12
PRG:0450A: A4 00    LDY $00
PRG:0450C: 98       TYA
PRG:0450D: 29 02    AND $02
PRG:0450F: F0 0B    BEQ $0B
PRG:04511: B5 58    LDA $58
PRG:04513: 49 FF    EOR $FF
PRG:04515: 18       CLC
PRG:04516: 69 01    ADC $01
PRG:04518: 95 58    STA $58
PRG:0451A: F6 46    INC $46
PRG:0451C: 98       TYA
PRG:0451D: 29 02    AND $02
PRG:0451F: F0 0F    BEQ $0F
PRG:04521: A5 86    LDA $86
PRG:04523: 18       CLC
PRG:04524: 79 88 C4 ADC $C488
PRG:04527: 95 87    STA $87
PRG:04529: A5 6D    LDA $6D
PRG:0452B: 69 00    ADC $00
PRG:0452D: 4C 3C C5 JMP $C53C
PRG:04530: A5 86    LDA $86
PRG:04532: 38       SEC
PRG:04533: F9 88 C4 SBC $C488
PRG:04536: 95 87    STA $87
PRG:04538: A5 6D    LDA $6D
PRG:0453A: E9 00    SBC $00
PRG:0453C: 95 6E    STA $6E
PRG:0453E: A9 01    LDA $01
PRG:04540: 95 0F    STA $0F
PRG:04542: 95 B6    STA $B6
PRG:04544: A9 F8    LDA $F8
PRG:04546: 95 CF    STA $CF
PRG:04548: 60       RTS
PRG:04549: 20 75 C5 JSR $C575
PRG:0454C: 8E 68 03 STX $0368
PRG:0454F: A9 00    LDA $00
PRG:04551: 8D 63 03 STA $0363
PRG:04554: 8D 69 03 STA $0369
PRG:04557: B5 87    LDA $87
PRG:04559: 8D 66 03 STA $0366
PRG:0455C: A9 DF    LDA $DF
PRG:0455E: 8D 90 07 STA $0790
PRG:04561: 95 46    STA $46
PRG:04563: A9 20    LDA $20
PRG:04565: 8D 64 03 STA $0364
PRG:04568: 9D 8A 07 STA $078A
PRG:0456B: A9 05    LDA $05
PRG:0456D: 8D 83 04 STA $0483
PRG:04570: 4A       LSR
PRG:04571: 8D 65 03 STA $0365
PRG:04574: 60       RTS
PRG:04575: A0 FF    LDY $FF
PRG:04577: C8       INY
PRG:04578: B9 0F 00 LDA $000F
PRG:0457B: D0 FA    BNE $FA
PRG:0457D: 8C CF 06 STY $06CF
PRG:04580: 8A       TXA
PRG:04581: 09 80    ORA $80
PRG:04583: 99 0F 00 STA $000F
PRG:04586: B5 6E    LDA $6E
PRG:04588: 99 6E 00 STA $006E
PRG:0458B: B5 87    LDA $87
PRG:0458D: 99 87 00 STA $0087
PRG:04590: A9 01    LDA $01
PRG:04592: 95 0F    STA $0F
PRG:04594: 99 B6 00 STA $00B6
PRG:04597: B5 CF    LDA $CF
PRG:04599: 99 CF 00 STA $00CF
PRG:0459C: 60       RTS
PRG:0459D: 90 80    BCC $80
PRG:0459F: 70 90    BVS $90
PRG:045A1: FF       .byte $FF
PRG:045A2: 01 AD    ORA $AD
PRG:045A4: 8F       .byte $8F
PRG:045A5: 07       .byte $07
PRG:045A6: D0 F4    BNE $F4
PRG:045A8: 9D 34 04 STA $0434
PRG:045AB: A5 FD    LDA $FD
PRG:045AD: 09 02    ORA $02
PRG:045AF: 85 FD    STA $FD
PRG:045B1: AC 68 03 LDY $0368
PRG:045B4: B9 16 00 LDA $0016
PRG:045B7: C9 2D    CMP $2D
PRG:045B9: F0 31    BEQ $31
PRG:045BB: 20 D9 D1 JSR $D1D9
PRG:045BE: 18       CLC
PRG:045BF: 69 20    ADC $20
PRG:045C1: AC CC 06 LDY $06CC
PRG:045C4: F0 03    BEQ $03
PRG:045C6: 38       SEC
PRG:045C7: E9 10    SBC $10
PRG:045C9: 8D 8F 07 STA $078F
PRG:045CC: BD A7 07 LDA $07A7
PRG:045CF: 29 03    AND $03
PRG:045D1: 9D 17 04 STA $0417
PRG:045D4: A8       TAY
PRG:045D5: B9 9D C5 LDA $C59D
PRG:045D8: 95 CF    STA $CF
PRG:045DA: AD 1D 07 LDA $071D
PRG:045DD: 18       CLC
PRG:045DE: 69 20    ADC $20
PRG:045E0: 95 87    STA $87
PRG:045E2: AD 1B 07 LDA $071B
PRG:045E5: 69 00    ADC $00
PRG:045E7: 95 6E    STA $6E
PRG:045E9: 4C 1F C6 JMP $C61F
PRG:045EC: B9 87 00 LDA $0087
PRG:045EF: 38       SEC
PRG:045F0: E9 0E    SBC $0E
PRG:045F2: 95 87    STA $87
PRG:045F4: B9 6E 00 LDA $006E
PRG:045F7: 95 6E    STA $6E
PRG:045F9: B9 CF 00 LDA $00CF
PRG:045FC: 18       CLC
PRG:045FD: 69 08    ADC $08
PRG:045FF: 95 CF    STA $CF
PRG:04601: BD A7 07 LDA $07A7
PRG:04604: 29 03    AND $03
PRG:04606: 9D 17 04 STA $0417
PRG:04609: A8       TAY
PRG:0460A: B9 9D C5 LDA $C59D
PRG:0460D: A0 00    LDY $00
PRG:0460F: D5 CF    CMP $CF
PRG:04611: 90 01    BCC $01
PRG:04613: C8       INY
PRG:04614: B9 A1 C5 LDA $C5A1
PRG:04617: 9D 34 04 STA $0434
PRG:0461A: A9 00    LDA $00
PRG:0461C: 8D CB 06 STA $06CB
PRG:0461F: A9 08    LDA $08
PRG:04621: 9D 9A 04 STA $049A
PRG:04624: A9 01    LDA $01
PRG:04626: 95 B6    STA $B6
PRG:04628: 95 0F    STA $0F
PRG:0462A: 4A       LSR
PRG:0462B: 9D 01 04 STA $0401
PRG:0462E: 95 1E    STA $1E
PRG:04630: 60       RTS
PRG:04631: 00 30    BRK $30
PRG:04633: 60       RTS
PRG:04634: 60       RTS
PRG:04635: 00 20    BRK $20
PRG:04637: 60       RTS
PRG:04638: 40       RTI
PRG:04639: 70 40    BVS $40
PRG:0463B: 60       RTS
PRG:0463C: 30 AD    BMI $AD
PRG:0463E: 8F       .byte $8F
PRG:0463F: 07       .byte $07
PRG:04640: D0 47    BNE $47
PRG:04642: A9 20    LDA $20
PRG:04644: 8D 8F 07 STA $078F
PRG:04647: CE D7 06 DEC $06D7
PRG:0464A: A0 06    LDY $06
PRG:0464C: 88       DEY
PRG:0464D: B9 16 00 LDA $0016
PRG:04650: C9 31    CMP $31
PRG:04652: D0 F8    BNE $F8
PRG:04654: B9 87 00 LDA $0087
PRG:04657: 38       SEC
PRG:04658: E9 30    SBC $30
PRG:0465A: 48       PHA
PRG:0465B: B9 6E 00 LDA $006E
PRG:0465E: E9 00    SBC $00
PRG:04660: 85 00    STA $00
PRG:04662: AD D7 06 LDA $06D7
PRG:04665: 18       CLC
PRG:04666: 79 1E 00 ADC $001E
PRG:04669: A8       TAY
PRG:0466A: 68       PLA
PRG:0466B: 18       CLC
PRG:0466C: 79 31 C6 ADC $C631
PRG:0466F: 95 87    STA $87
PRG:04671: A5 00    LDA $00
PRG:04673: 69 00    ADC $00
PRG:04675: 95 6E    STA $6E
PRG:04677: B9 37 C6 LDA $C637
PRG:0467A: 95 CF    STA $CF
PRG:0467C: A9 01    LDA $01
PRG:0467E: 95 B6    STA $B6
PRG:04680: 95 0F    STA $0F
PRG:04682: 4A       LSR
PRG:04683: 95 58    STA $58
PRG:04685: A9 08    LDA $08
PRG:04687: 95 A0    STA $A0
PRG:04689: 60       RTS
PRG:0468A: 01 02    ORA $02
PRG:0468C: 04 08    NOP $08
PRG:0468E: 10 20    BPL $20
PRG:04690: 40       RTI
PRG:04691: 80 40    NOP $40
PRG:04693: 30 90    BMI $90
PRG:04695: 50 20    BVC $20
PRG:04697: 60       RTS
PRG:04698: A0 70    LDY $70
PRG:0469A: 0A       ASL
PRG:0469B: 0B       .byte $0B
PRG:0469C: AD 8F 07 LDA $078F
PRG:0469F: D0 6F    BNE $6F
PRG:046A1: AD 4E 07 LDA $074E
PRG:046A4: D0 57    BNE $57
PRG:046A6: E0 03    CPX $03
PRG:046A8: B0 66    BCS $66
PRG:046AA: A0 00    LDY $00
PRG:046AC: BD A7 07 LDA $07A7
PRG:046AF: C9 AA    CMP $AA
PRG:046B1: 90 01    BCC $01
PRG:046B3: C8       INY
PRG:046B4: AD 5F 07 LDA $075F
PRG:046B7: C9 01    CMP $01
PRG:046B9: F0 01    BEQ $01
PRG:046BB: C8       INY
PRG:046BC: 98       TYA
PRG:046BD: 29 01    AND $01
PRG:046BF: A8       TAY
PRG:046C0: B9 9A C6 LDA $C69A
PRG:046C3: 95 16    STA $16
PRG:046C5: AD DD 06 LDA $06DD
PRG:046C8: C9 FF    CMP $FF
PRG:046CA: D0 05    BNE $05
PRG:046CC: A9 00    LDA $00
PRG:046CE: 8D DD 06 STA $06DD
PRG:046D1: BD A7 07 LDA $07A7
PRG:046D4: 29 07    AND $07
PRG:046D6: A8       TAY
PRG:046D7: B9 8A C6 LDA $C68A
PRG:046DA: 2C DD 06 BIT $06DD
PRG:046DD: F0 07    BEQ $07
PRG:046DF: C8       INY
PRG:046E0: 98       TYA
PRG:046E1: 29 07    AND $07
PRG:046E3: 4C D6 C6 JMP $C6D6
PRG:046E6: 0D DD 06 ORA $06DD
PRG:046E9: 8D DD 06 STA $06DD
PRG:046EC: B9 92 C6 LDA $C692
PRG:046EF: 20 D8 C5 JSR $C5D8
PRG:046F2: 9D 17 04 STA $0417
PRG:046F5: A9 20    LDA $20
PRG:046F7: 8D 8F 07 STA $078F
PRG:046FA: 4C 6C C2 JMP $C26C
PRG:046FD: A0 FF    LDY $FF
PRG:046FF: C8       INY
PRG:04700: C0 05    CPY $05
PRG:04702: B0 0D    BCS $0D
PRG:04704: B9 0F 00 LDA $000F
PRG:04707: F0 F6    BEQ $F6
PRG:04709: B9 16 00 LDA $0016
PRG:0470C: C9 08    CMP $08
PRG:0470E: D0 EF    BNE $EF
PRG:04710: 60       RTS
PRG:04711: A5 FE    LDA $FE
PRG:04713: 09 08    ORA $08
PRG:04715: 85 FE    STA $FE
PRG:04717: A9 08    LDA $08
PRG:04719: D0 A8    BNE $A8
PRG:0471B: A0 00    LDY $00
PRG:0471D: 38       SEC
PRG:0471E: E9 37    SBC $37
PRG:04720: 48       PHA
PRG:04721: C9 04    CMP $04
PRG:04723: B0 0B    BCS $0B
PRG:04725: 48       PHA
PRG:04726: A0 06    LDY $06
PRG:04728: AD 6A 07 LDA $076A
PRG:0472B: F0 02    BEQ $02
PRG:0472D: A0 02    LDY $02
PRG:0472F: 68       PLA
PRG:04730: 84 01    STY $01
PRG:04732: A0 B0    LDY $B0
PRG:04734: 29 02    AND $02
PRG:04736: F0 02    BEQ $02
PRG:04738: A0 70    LDY $70
PRG:0473A: 84 00    STY $00
PRG:0473C: AD 1B 07 LDA $071B
PRG:0473F: 85 02    STA $02
PRG:04741: AD 1D 07 LDA $071D
PRG:04744: 85 03    STA $03
PRG:04746: A0 02    LDY $02
PRG:04748: 68       PLA
PRG:04749: 4A       LSR
PRG:0474A: 90 01    BCC $01
PRG:0474C: C8       INY
PRG:0474D: 8C D3 06 STY $06D3
PRG:04750: A2 FF    LDX $FF
PRG:04752: E8       INX
PRG:04753: E0 05    CPX $05
PRG:04755: B0 2D    BCS $2D
PRG:04757: B5 0F    LDA $0F
PRG:04759: D0 F7    BNE $F7
PRG:0475B: A5 01    LDA $01
PRG:0475D: 95 16    STA $16
PRG:0475F: A5 02    LDA $02
PRG:04761: 95 6E    STA $6E
PRG:04763: A5 03    LDA $03
PRG:04765: 95 87    STA $87
PRG:04767: 18       CLC
PRG:04768: 69 18    ADC $18
PRG:0476A: 85 03    STA $03
PRG:0476C: A5 02    LDA $02
PRG:0476E: 69 00    ADC $00
PRG:04770: 85 02    STA $02
PRG:04772: A5 00    LDA $00
PRG:04774: 95 CF    STA $CF
PRG:04776: A9 01    LDA $01
PRG:04778: 95 B6    STA $B6
PRG:0477A: 95 0F    STA $0F
PRG:0477C: 20 6C C2 JSR $C26C
PRG:0477F: CE D3 06 DEC $06D3
PRG:04782: D0 CC    BNE $CC
PRG:04784: 4C 5E C2 JMP $C25E
PRG:04787: A9 01    LDA $01
PRG:04789: 95 58    STA $58
PRG:0478B: 4A       LSR
PRG:0478C: 95 1E    STA $1E
PRG:0478E: 95 A0    STA $A0
PRG:04790: B5 CF    LDA $CF
PRG:04792: 9D 34 04 STA $0434
PRG:04795: 38       SEC
PRG:04796: E9 18    SBC $18
PRG:04798: 9D 17 04 STA $0417
PRG:0479B: A9 09    LDA $09
PRG:0479D: 4C DB C7 JMP $C7DB
PRG:047A0: B5 16    LDA $16
PRG:047A2: 8D CB 06 STA $06CB
PRG:047A5: 38       SEC
PRG:047A6: E9 12    SBC $12
PRG:047A8: 20 04 8E JSR $8E04
PRG:047AB: A4 C3    LDY $C3
PRG:047AD: B7       .byte $B7
PRG:047AE: C7       .byte $C7
PRG:047AF: A8       TAY
PRG:047B0: C4 A3    CPY $A3
PRG:047B2: C5 3D    CMP $3D
PRG:047B4: C6 9C    DEC $9C
PRG:047B6: C6 60    DEC $60
PRG:047B8: A0 05    LDY $05
PRG:047BA: B9 16 00 LDA $0016
PRG:047BD: C9 11    CMP $11
PRG:047BF: D0 05    BNE $05
PRG:047C1: A9 01    LDA $01
PRG:047C3: 99 1E 00 STA $001E
PRG:047C6: 88       DEY
PRG:047C7: 10 F1    BPL $F1
PRG:047C9: A9 00    LDA $00
PRG:047CB: 8D CB 06 STA $06CB
PRG:047CE: 95 0F    STA $0F
PRG:047D0: 60       RTS
PRG:047D1: A9 02    LDA $02
PRG:047D3: 95 46    STA $46
PRG:047D5: A9 F8    LDA $F8
PRG:047D7: 95 58    STA $58
PRG:047D9: A9 03    LDA $03
PRG:047DB: 9D 9A 04 STA $049A
PRG:047DE: 60       RTS
PRG:047DF: D6 CF    DEC $CF
PRG:047E1: D6 CF    DEC $CF
PRG:047E3: AC CC 06 LDY $06CC
PRG:047E6: D0 05    BNE $05
PRG:047E8: A0 02    LDY $02
PRG:047EA: 20 71 C8 JSR $C871
PRG:047ED: A0 FF    LDY $FF
PRG:047EF: AD A0 03 LDA $03A0
PRG:047F2: 95 1E    STA $1E
PRG:047F4: 10 02    BPL $02
PRG:047F6: 8A       TXA
PRG:047F7: A8       TAY
PRG:047F8: 8C A0 03 STY $03A0
PRG:047FB: A9 00    LDA $00
PRG:047FD: 95 46    STA $46
PRG:047FF: A8       TAY
PRG:04800: 20 71 C8 JSR $C871
PRG:04803: A9 FF    LDA $FF
PRG:04805: 9D A2 03 STA $03A2
PRG:04808: 4C 28 C8 JMP $C828
PRG:0480B: A9 00    LDA $00
PRG:0480D: 95 58    STA $58
PRG:0480F: 4C 28 C8 JMP $C828
PRG:04812: A0 40    LDY $40
PRG:04814: B5 CF    LDA $CF
PRG:04816: 10 07    BPL $07
PRG:04818: 49 FF    EOR $FF
PRG:0481A: 18       CLC
PRG:0481B: 69 01    ADC $01
PRG:0481D: A0 C0    LDY $C0
PRG:0481F: 9D 01 04 STA $0401
PRG:04822: 98       TYA
PRG:04823: 18       CLC
PRG:04824: 75 CF    ADC $CF
PRG:04826: 95 58    STA $58
PRG:04828: 20 63 C3 JSR $C363
PRG:0482B: A9 05    LDA $05
PRG:0482D: AC 4E 07 LDY $074E
PRG:04830: C0 03    CPY $03
PRG:04832: F0 07    BEQ $07
PRG:04834: AC CC 06 LDY $06CC
PRG:04837: D0 02    BNE $02
PRG:04839: A9 06    LDA $06
PRG:0483B: 9D 9A 04 STA $049A
PRG:0483E: 60       RTS
PRG:0483F: 20 4B C8 JSR $C84B
PRG:04842: 4C 48 C8 JMP $C848
PRG:04845: 20 57 C8 JSR $C857
PRG:04848: 4C 2B C8 JMP $C82B
PRG:0484B: A9 10    LDA $10
PRG:0484D: 9D 34 04 STA $0434
PRG:04850: A9 FF    LDA $FF
PRG:04852: 95 A0    STA $A0
PRG:04854: 4C 60 C8 JMP $C860
PRG:04857: A9 F0    LDA $F0
PRG:04859: 9D 34 04 STA $0434
PRG:0485C: A9 00    LDA $00
PRG:0485E: 95 A0    STA $A0
PRG:04860: A0 01    LDY $01
PRG:04862: 20 71 C8 JSR $C871
PRG:04865: A9 04    LDA $04
PRG:04867: 9D 9A 04 STA $049A
PRG:0486A: 60       RTS
PRG:0486B: 08       PHP
PRG:0486C: 0C F8 00 NOP $00F8
PRG:0486F: 00 FF    BRK $FF
PRG:04871: B5 87    LDA $87
PRG:04873: 18       CLC
PRG:04874: 79 6B C8 ADC $C86B
PRG:04877: 95 87    STA $87
PRG:04879: B5 6E    LDA $6E
PRG:0487B: 79 6E C8 ADC $C86E
PRG:0487E: 95 6E    STA $6E
PRG:04880: 60       RTS
PRG:04881: 60       RTS
PRG:04882: A6 08    LDX $08
PRG:04884: A9 00    LDA $00
PRG:04886: B4 16    LDY $16
PRG:04888: C0 15    CPY $15
PRG:0488A: 90 03    BCC $03
PRG:0488C: 98       TYA
PRG:0488D: E9 14    SBC $14
PRG:0488F: 20 04 8E JSR $8E04
PRG:04892: E0 C8    CPX $C8
PRG:04894: 35 C9    AND $C9
PRG:04896: 95 D2    STA $D2
PRG:04898: D6 C8    DEC $C8
PRG:0489A: D6 C8    DEC $C8
PRG:0489C: D6 C8    DEC $C8
PRG:0489E: D6 C8    DEC $C8
PRG:048A0: 47       .byte $47
PRG:048A1: C9 47    CMP $47
PRG:048A3: C9 47    CMP $47
PRG:048A5: C9 47    CMP $47
PRG:048A7: C9 47    CMP $47
PRG:048A9: C9 47    CMP $47
PRG:048AB: C9 47    CMP $47
PRG:048AD: C9 47    CMP $47
PRG:048AF: C9 D6    CMP $D6
PRG:048B1: C8       INY
PRG:048B2: 65 C9    ADC $C9
PRG:048B4: 65 C9    ADC $C9
PRG:048B6: 65 C9    ADC $C9
PRG:048B8: 65 C9    ADC $C9
PRG:048BA: 65 C9    ADC $C9
PRG:048BC: 65 C9    ADC $C9
PRG:048BE: 65 C9    ADC $C9
PRG:048C0: 4D C9 4D EOR $4DC9
PRG:048C3: C9 65    CMP $65
PRG:048C5: D0 85    BNE $85
PRG:048C7: BC 4B B9 LDY $B94B
PRG:048CA: D6 C8    DEC $C8
PRG:048CC: D9 D2 BA CMP $BAD2
PRG:048CF: B8       CLV
PRG:048D0: D6 C8    DEC $C8
PRG:048D2: A4 B7    LDY $B7
PRG:048D4: D7       .byte $D7
PRG:048D5: C8       INY
PRG:048D6: 60       RTS
PRG:048D7: 20 AF F1 JSR $F1AF
PRG:048DA: 20 52 F1 JSR $F152
PRG:048DD: 4C 7D E8 JMP $E87D
PRG:048E0: A9 00    LDA $00
PRG:048E2: 9D C5 03 STA $03C5
PRG:048E5: 20 AF F1 JSR $F1AF
PRG:048E8: 20 52 F1 JSR $F152
PRG:048EB: 20 7D E8 JSR $E87D
PRG:048EE: 20 43 E2 JSR $E243
PRG:048F1: 20 C1 DF JSR $DFC1
PRG:048F4: 20 33 DA JSR $DA33
PRG:048F7: 20 53 D8 JSR $D853
PRG:048FA: AC 47 07 LDY $0747
PRG:048FD: D0 03    BNE $03
PRG:048FF: 20 05 C9 JSR $C905
PRG:04902: 4C 7A D6 JMP $D67A
PRG:04905: B5 16    LDA $16
PRG:04907: 20 04 8E JSR $8E04
PRG:0490A: 77       .byte $77
PRG:0490B: CA       DEX
PRG:0490C: 77       .byte $77
PRG:0490D: CA       DEX
PRG:0490E: 77       .byte $77
PRG:0490F: CA       DEX
PRG:04910: 77       .byte $77
PRG:04911: CA       DEX
PRG:04912: 77       .byte $77
PRG:04913: CA       DEX
PRG:04914: D8       CLD
PRG:04915: C9 77    CMP $77
PRG:04917: CA       DEX
PRG:04918: 89       .byte $89
PRG:04919: CB       .byte $CB
PRG:0491A: 36 CC    ROL $CC
PRG:0491C: 34 C9    NOP $C9
PRG:0491E: 4A       LSR
PRG:0491F: CC 4A CC CPY $CC4A
PRG:04922: B0 C9    BCS $C9
PRG:04924: B0 D3    BCS $D3
PRG:04926: F9 CA FF SBC $FFCA
PRG:04929: CA       DEX
PRG:0492A: 25 CB    AND $CB
PRG:0492C: 28       PLP
PRG:0492D: CF       .byte $CF
PRG:0492E: 77       .byte $77
PRG:0492F: CA       DEX
PRG:04930: 34 C9    NOP $C9
PRG:04932: DF       .byte $DF
PRG:04933: CE 60 20 DEC $2060
PRG:04936: EB       .byte $EB
PRG:04937: D1 20    CMP $20
PRG:04939: AF       .byte $AF
PRG:0493A: F1 20    SBC $20
PRG:0493C: 52       .byte $52
PRG:0493D: F1 20    SBC $20
PRG:0493F: 43       .byte $43
PRG:04940: E2       .byte $E2
PRG:04941: 20 53 D8 JSR $D853
PRG:04944: 4C 7A D6 JMP $D67A
PRG:04947: 20 3C CD JSR $CD3C
PRG:0494A: 4C 7A D6 JMP $D67A
PRG:0494D: 20 AF F1 JSR $F1AF
PRG:04950: 20 52 F1 JSR $F152
PRG:04953: 20 4C E2 JSR $E24C
PRG:04956: 20 7B DB JSR $DB7B
PRG:04959: 20 52 F1 JSR $F152
PRG:0495C: 20 66 ED JSR $ED66
PRG:0495F: 20 55 D6 JSR $D655
PRG:04962: 4C 7A D6 JMP $D67A
PRG:04965: 20 AF F1 JSR $F1AF
PRG:04968: 20 52 F1 JSR $F152
PRG:0496B: 20 73 E2 JSR $E273
PRG:0496E: 20 45 DB JSR $DB45
PRG:04971: AD 47 07 LDA $0747
PRG:04974: D0 03    BNE $03
PRG:04976: 20 82 C9 JSR $C982
PRG:04979: 20 52 F1 JSR $F152
PRG:0497C: 20 C8 E5 JSR $E5C8
PRG:0497F: 4C 7A D6 JMP $D67A
PRG:04982: B5 16    LDA $16
PRG:04984: 38       SEC
PRG:04985: E9 24    SBC $24
PRG:04987: 20 04 8E JSR $8E04
PRG:0498A: 32       .byte $32
PRG:0498B: D4 D3    NOP $D3
PRG:0498D: D5 4F    CMP $4F
PRG:0498F: D6 4F    DEC $4F
PRG:04991: D6 07    DEC $07
PRG:04993: D6 31    DEC $31
PRG:04995: D6 3D    DEC $3D
PRG:04997: D6 A9    DEC $A9
PRG:04999: 00 95    BRK $95
PRG:0499B: 0F       .byte $0F
PRG:0499C: 95 16    STA $16
PRG:0499E: 95 1E    STA $1E
PRG:049A0: 9D 10 01 STA $0110
PRG:049A3: 9D 96 07 STA $0796
PRG:049A6: 9D 25 01 STA $0125
PRG:049A9: 9D C5 03 STA $03C5
PRG:049AC: 9D 8A 07 STA $078A
PRG:049AF: 60       RTS
PRG:049B0: BD 96 07 LDA $0796
PRG:049B3: D0 16    BNE $16
PRG:049B5: 20 F7 C2 JSR $C2F7
PRG:049B8: BD A8 07 LDA $07A8
PRG:049BB: 09 80    ORA $80
PRG:049BD: 9D 34 04 STA $0434
PRG:049C0: 29 0F    AND $0F
PRG:049C2: 09 06    ORA $06
PRG:049C4: 9D 96 07 STA $0796
PRG:049C7: A9 F9    LDA $F9
PRG:049C9: 95 A0    STA $A0
PRG:049CB: 4C 92 BF JMP $BF92
PRG:049CE: 30 1C    BMI $1C
PRG:049D0: 00 E8    BRK $E8
PRG:049D2: 00 18    BRK $18
PRG:049D4: 08       PHP
PRG:049D5: F8       SED
PRG:049D6: 0C F4 B5 NOP $B5F4
PRG:049D9: 1E 29 20 ASL $2029
PRG:049DC: F0 03    BEQ $03
PRG:049DE: 4C E5 CA JMP $CAE5
PRG:049E1: B5 3C    LDA $3C
PRG:049E3: F0 2D    BEQ $2D
PRG:049E5: D6 3C    DEC $3C
PRG:049E7: AD D1 03 LDA $03D1
PRG:049EA: 29 0C    AND $0C
PRG:049EC: D0 6A    BNE $6A
PRG:049EE: BD A2 03 LDA $03A2
PRG:049F1: D0 17    BNE $17
PRG:049F3: AC CC 06 LDY $06CC
PRG:049F6: B9 CE C9 LDA $C9CE
PRG:049F9: 9D A2 03 STA $03A2
PRG:049FC: 20 94 BA JSR $BA94
PRG:049FF: 90 09    BCC $09
PRG:04A01: B5 1E    LDA $1E
PRG:04A03: 09 08    ORA $08
PRG:04A05: 95 1E    STA $1E
PRG:04A07: 4C 58 CA JMP $CA58
PRG:04A0A: DE A2 03 DEC $03A2
PRG:04A0D: 4C 58 CA JMP $CA58
PRG:04A10: 20 37 B5 JSR $B537
PRG:04A13: 1E 29 07 ASL $0729
PRG:04A16: C9 01    CMP $01
PRG:04A18: F0 3E    BEQ $3E
PRG:04A1A: A9 00    LDA $00
PRG:04A1C: 85 00    STA $00
PRG:04A1E: A0 FA    LDY $FA
PRG:04A20: B5 CF    LDA $CF
PRG:04A22: 30 13    BMI $13
PRG:04A24: A0 FD    LDY $FD
PRG:04A26: C9 70    CMP $70
PRG:04A28: E6 00    INC $00
PRG:04A2A: 90 0B    BCC $0B
PRG:04A2C: C6 00    DEC $00
PRG:04A2E: BD A8 07 LDA $07A8
PRG:04A31: 29 01    AND $01
PRG:04A33: D0 02    BNE $02
PRG:04A35: A0 FA    LDY $FA
PRG:04A37: 94 A0    STY $A0
PRG:04A39: B5 1E    LDA $1E
PRG:04A3B: 09 01    ORA $01
PRG:04A3D: 95 1E    STA $1E
PRG:04A3F: A5 00    LDA $00
PRG:04A41: 3D A9 07 AND $07A9
PRG:04A44: A8       TAY
PRG:04A45: AD CC 06 LDA $06CC
PRG:04A48: D0 01    BNE $01
PRG:04A4A: A8       TAY
PRG:04A4B: B9 10 CA LDA $CA10
PRG:04A4E: 9D 8A 07 STA $078A
PRG:04A51: BD A8 07 LDA $07A8
PRG:04A54: 09 C0    ORA $C0
PRG:04A56: 95 3C    STA $3C
PRG:04A58: A0 FC    LDY $FC
PRG:04A5A: A5 09    LDA $09
PRG:04A5C: 29 40    AND $40
PRG:04A5E: D0 02    BNE $02
PRG:04A60: A0 04    LDY $04
PRG:04A62: 94 58    STY $58
PRG:04A64: A0 01    LDY $01
PRG:04A66: 20 43 E1 JSR $E143
PRG:04A69: 30 0A    BMI $0A
PRG:04A6B: C8       INY
PRG:04A6C: BD 96 07 LDA $0796
PRG:04A6F: D0 04    BNE $04
PRG:04A71: A9 F8    LDA $F8
PRG:04A73: 95 58    STA $58
PRG:04A75: 94 46    STY $46
PRG:04A77: A0 00    LDY $00
PRG:04A79: B5 1E    LDA $1E
PRG:04A7B: 29 40    AND $40
PRG:04A7D: D0 19    BNE $19
PRG:04A7F: B5 1E    LDA $1E
PRG:04A81: 0A       ASL
PRG:04A82: B0 30    BCS $30
PRG:04A84: B5 1E    LDA $1E
PRG:04A86: 29 20    AND $20
PRG:04A88: D0 5B    BNE $5B
PRG:04A8A: B5 1E    LDA $1E
PRG:04A8C: 29 07    AND $07
PRG:04A8E: F0 24    BEQ $24
PRG:04A90: C9 05    CMP $05
PRG:04A92: F0 04    BEQ $04
PRG:04A94: C9 03    CMP $03
PRG:04A96: B0 30    BCS $30
PRG:04A98: 20 63 BF JSR $BF63
PRG:04A9B: A0 00    LDY $00
PRG:04A9D: B5 1E    LDA $1E
PRG:04A9F: C9 02    CMP $02
PRG:04AA1: F0 0C    BEQ $0C
PRG:04AA3: 29 40    AND $40
PRG:04AA5: F0 0D    BEQ $0D
PRG:04AA7: B5 16    LDA $16
PRG:04AA9: C9 2E    CMP $2E
PRG:04AAB: F0 07    BEQ $07
PRG:04AAD: D0 03    BNE $03
PRG:04AAF: 4C 02 BF JMP $BF02
PRG:04AB2: A0 01    LDY $01
PRG:04AB4: B5 58    LDA $58
PRG:04AB6: 48       PHA
PRG:04AB7: 10 02    BPL $02
PRG:04AB9: C8       INY
PRG:04ABA: C8       INY
PRG:04ABB: 18       CLC
PRG:04ABC: 79 D0 C9 ADC $C9D0
PRG:04ABF: 95 58    STA $58
PRG:04AC1: 20 02 BF JSR $BF02
PRG:04AC4: 68       PLA
PRG:04AC5: 95 58    STA $58
PRG:04AC7: 60       RTS
PRG:04AC8: BD 96 07 LDA $0796
PRG:04ACB: D0 1E    BNE $1E
PRG:04ACD: 95 1E    STA $1E
PRG:04ACF: A5 09    LDA $09
PRG:04AD1: 29 01    AND $01
PRG:04AD3: A8       TAY
PRG:04AD4: C8       INY
PRG:04AD5: 94 46    STY $46
PRG:04AD7: 88       DEY
PRG:04AD8: AD 6A 07 LDA $076A
PRG:04ADB: F0 02    BEQ $02
PRG:04ADD: C8       INY
PRG:04ADE: C8       INY
PRG:04ADF: B9 D4 C9 LDA $C9D4
PRG:04AE2: 95 58    STA $58
PRG:04AE4: 60       RTS
PRG:04AE5: 20 63 BF JSR $BF63
PRG:04AE8: 4C 02 BF JMP $BF02
PRG:04AEB: C9 0E    CMP $0E
PRG:04AED: D0 09    BNE $09
PRG:04AEF: B5 16    LDA $16
PRG:04AF1: C9 06    CMP $06
PRG:04AF3: D0 03    BNE $03
PRG:04AF5: 20 98 C9 JSR $C998
PRG:04AF8: 60       RTS
PRG:04AF9: 20 92 BF JSR $BF92
PRG:04AFC: 4C 02 BF JMP $BF02
PRG:04AFF: B5 A0    LDA $A0
PRG:04B01: 1D 34 04 ORA $0434
PRG:04B04: D0 13    BNE $13
PRG:04B06: 9D 17 04 STA $0417
PRG:04B09: B5 CF    LDA $CF
PRG:04B0B: DD 01 04 CMP $0401
PRG:04B0E: B0 09    BCS $09
PRG:04B10: A5 09    LDA $09
PRG:04B12: 29 07    AND $07
PRG:04B14: D0 02    BNE $02
PRG:04B16: F6 CF    INC $CF
PRG:04B18: 60       RTS
PRG:04B19: B5 CF    LDA $CF
PRG:04B1B: D5 58    CMP $58
PRG:04B1D: 90 03    BCC $03
PRG:04B1F: 4C 75 BF JMP $BF75
PRG:04B22: 4C 70 BF JMP $BF70
PRG:04B25: 20 45 CB JSR $CB45
PRG:04B28: 20 66 CB JSR $CB66
PRG:04B2B: A0 01    LDY $01
PRG:04B2D: A5 09    LDA $09
PRG:04B2F: 29 03    AND $03
PRG:04B31: D0 11    BNE $11
PRG:04B33: A5 09    LDA $09
PRG:04B35: 29 40    AND $40
PRG:04B37: D0 02    BNE $02
PRG:04B39: A0 FF    LDY $FF
PRG:04B3B: 84 00    STY $00
PRG:04B3D: B5 CF    LDA $CF
PRG:04B3F: 18       CLC
PRG:04B40: 65 00    ADC $00
PRG:04B42: 95 CF    STA $CF
PRG:04B44: 60       RTS
PRG:04B45: A9 13    LDA $13
PRG:04B47: 85 01    STA $01
PRG:04B49: A5 09    LDA $09
PRG:04B4B: 29 03    AND $03
PRG:04B4D: D0 0D    BNE $0D
PRG:04B4F: B4 58    LDY $58
PRG:04B51: B5 A0    LDA $A0
PRG:04B53: 4A       LSR
PRG:04B54: B0 0A    BCS $0A
PRG:04B56: C4 01    CPY $01
PRG:04B58: F0 03    BEQ $03
PRG:04B5A: F6 58    INC $58
PRG:04B5C: 60       RTS
PRG:04B5D: F6 A0    INC $A0
PRG:04B5F: 60       RTS
PRG:04B60: 98       TYA
PRG:04B61: F0 FA    BEQ $FA
PRG:04B63: D6 58    DEC $58
PRG:04B65: 60       RTS
PRG:04B66: B5 58    LDA $58
PRG:04B68: 48       PHA
PRG:04B69: A0 01    LDY $01
PRG:04B6B: B5 A0    LDA $A0
PRG:04B6D: 29 02    AND $02
PRG:04B6F: D0 0B    BNE $0B
PRG:04B71: B5 58    LDA $58
PRG:04B73: 49 FF    EOR $FF
PRG:04B75: 18       CLC
PRG:04B76: 69 01    ADC $01
PRG:04B78: 95 58    STA $58
PRG:04B7A: A0 02    LDY $02
PRG:04B7C: 94 46    STY $46
PRG:04B7E: 20 02 BF JSR $BF02
PRG:04B81: 85 00    STA $00
PRG:04B83: 68       PLA
PRG:04B84: 95 58    STA $58
PRG:04B86: 60       RTS
PRG:04B87: 3F       .byte $3F
PRG:04B88: 03       .byte $03
PRG:04B89: B5 1E    LDA $1E
PRG:04B8B: 29 20    AND $20
PRG:04B8D: D0 4D    BNE $4D
PRG:04B8F: AC CC 06 LDY $06CC
PRG:04B92: BD A8 07 LDA $07A8
PRG:04B95: 39 87 CB AND $CB87
PRG:04B98: D0 12    BNE $12
PRG:04B9A: 8A       TXA
PRG:04B9B: 4A       LSR
PRG:04B9C: 90 04    BCC $04
PRG:04B9E: A4 45    LDY $45
PRG:04BA0: B0 08    BCS $08
PRG:04BA2: A0 02    LDY $02
PRG:04BA4: 20 43 E1 JSR $E143
PRG:04BA7: 10 01    BPL $01
PRG:04BA9: 88       DEY
PRG:04BAA: 94 46    STY $46
PRG:04BAC: 20 DF CB JSR $CBDF
PRG:04BAF: B5 CF    LDA $CF
PRG:04BB1: 38       SEC
PRG:04BB2: FD 34 04 SBC $0434
PRG:04BB5: C9 20    CMP $20
PRG:04BB7: 90 02    BCC $02
PRG:04BB9: 95 CF    STA $CF
PRG:04BBB: B4 46    LDY $46
PRG:04BBD: 88       DEY
PRG:04BBE: D0 0E    BNE $0E
PRG:04BC0: B5 87    LDA $87
PRG:04BC2: 18       CLC
PRG:04BC3: 75 58    ADC $58
PRG:04BC5: 95 87    STA $87
PRG:04BC7: B5 6E    LDA $6E
PRG:04BC9: 69 00    ADC $00
PRG:04BCB: 95 6E    STA $6E
PRG:04BCD: 60       RTS
PRG:04BCE: B5 87    LDA $87
PRG:04BD0: 38       SEC
PRG:04BD1: F5 58    SBC $58
PRG:04BD3: 95 87    STA $87
PRG:04BD5: B5 6E    LDA $6E
PRG:04BD7: E9 00    SBC $00
PRG:04BD9: 95 6E    STA $6E
PRG:04BDB: 60       RTS
PRG:04BDC: 4C 8C BF JMP $BF8C
PRG:04BDF: B5 A0    LDA $A0
PRG:04BE1: 29 02    AND $02
PRG:04BE3: D0 37    BNE $37
PRG:04BE5: A5 09    LDA $09
PRG:04BE7: 29 07    AND $07
PRG:04BE9: 48       PHA
PRG:04BEA: B5 A0    LDA $A0
PRG:04BEC: 4A       LSR
PRG:04BED: B0 15    BCS $15
PRG:04BEF: 68       PLA
PRG:04BF0: D0 11    BNE $11
PRG:04BF2: BD 34 04 LDA $0434
PRG:04BF5: 18       CLC
PRG:04BF6: 69 01    ADC $01
PRG:04BF8: 9D 34 04 STA $0434
PRG:04BFB: 95 58    STA $58
PRG:04BFD: C9 02    CMP $02
PRG:04BFF: D0 02    BNE $02
PRG:04C01: F6 A0    INC $A0
PRG:04C03: 60       RTS
PRG:04C04: 68       PLA
PRG:04C05: D0 14    BNE $14
PRG:04C07: BD 34 04 LDA $0434
PRG:04C0A: 38       SEC
PRG:04C0B: E9 01    SBC $01
PRG:04C0D: 9D 34 04 STA $0434
PRG:04C10: 95 58    STA $58
PRG:04C12: D0 07    BNE $07
PRG:04C14: F6 A0    INC $A0
PRG:04C16: A9 02    LDA $02
PRG:04C18: 9D 96 07 STA $0796
PRG:04C1B: 60       RTS
PRG:04C1C: BD 96 07 LDA $0796
PRG:04C1F: F0 08    BEQ $08
PRG:04C21: A5 09    LDA $09
PRG:04C23: 4A       LSR
PRG:04C24: B0 02    BCS $02
PRG:04C26: F6 CF    INC $CF
PRG:04C28: 60       RTS
PRG:04C29: B5 CF    LDA $CF
PRG:04C2B: 69 10    ADC $10
PRG:04C2D: C5 CE    CMP $CE
PRG:04C2F: 90 F0    BCC $F0
PRG:04C31: A9 00    LDA $00
PRG:04C33: 95 A0    STA $A0
PRG:04C35: 60       RTS
PRG:04C36: B5 1E    LDA $1E
PRG:04C38: 29 20    AND $20
PRG:04C3A: F0 03    BEQ $03
PRG:04C3C: 4C 92 BF JMP $BF92
PRG:04C3F: A9 E8    LDA $E8
PRG:04C41: 95 58    STA $58
PRG:04C43: 4C 02 BF JMP $BF02
PRG:04C46: 40       RTI
PRG:04C47: 80 04    NOP $04
PRG:04C49: 04 B5    NOP $B5
PRG:04C4B: 1E 29 20 ASL $2029
PRG:04C4E: F0 03    BEQ $03
PRG:04C50: 4C 8C BF JMP $BF8C
PRG:04C53: 85 03    STA $03
PRG:04C55: B5 16    LDA $16
PRG:04C57: 38       SEC
PRG:04C58: E9 0A    SBC $0A
PRG:04C5A: A8       TAY
PRG:04C5B: B9 46 CC LDA $CC46
PRG:04C5E: 85 02    STA $02
PRG:04C60: BD 01 04 LDA $0401
PRG:04C63: 38       SEC
PRG:04C64: E5 02    SBC $02
PRG:04C66: 9D 01 04 STA $0401
PRG:04C69: B5 87    LDA $87
PRG:04C6B: E9 00    SBC $00
PRG:04C6D: 95 87    STA $87
PRG:04C6F: B5 6E    LDA $6E
PRG:04C71: E9 00    SBC $00
PRG:04C73: 95 6E    STA $6E
PRG:04C75: A9 20    LDA $20
PRG:04C77: 85 02    STA $02
PRG:04C79: E0 02    CPX $02
PRG:04C7B: 90 49    BCC $49
PRG:04C7D: B5 58    LDA $58
PRG:04C7F: C9 10    CMP $10
PRG:04C81: 90 16    BCC $16
PRG:04C83: BD 17 04 LDA $0417
PRG:04C86: 18       CLC
PRG:04C87: 65 02    ADC $02
PRG:04C89: 9D 17 04 STA $0417
PRG:04C8C: B5 CF    LDA $CF
PRG:04C8E: 65 03    ADC $03
PRG:04C90: 95 CF    STA $CF
PRG:04C92: B5 B6    LDA $B6
PRG:04C94: 69 00    ADC $00
PRG:04C96: 4C AC CC JMP $CCAC
PRG:04C99: BD 17 04 LDA $0417
PRG:04C9C: 38       SEC
PRG:04C9D: E5 02    SBC $02
PRG:04C9F: 9D 17 04 STA $0417
PRG:04CA2: B5 CF    LDA $CF
PRG:04CA4: E5 03    SBC $03
PRG:04CA6: 95 CF    STA $CF
PRG:04CA8: B5 B6    LDA $B6
PRG:04CAA: E9 00    SBC $00
PRG:04CAC: 95 B6    STA $B6
PRG:04CAE: A0 00    LDY $00
PRG:04CB0: B5 CF    LDA $CF
PRG:04CB2: 38       SEC
PRG:04CB3: FD 34 04 SBC $0434
PRG:04CB6: 10 07    BPL $07
PRG:04CB8: A0 10    LDY $10
PRG:04CBA: 49 FF    EOR $FF
PRG:04CBC: 18       CLC
PRG:04CBD: 69 01    ADC $01
PRG:04CBF: C9 0F    CMP $0F
PRG:04CC1: 90 03    BCC $03
PRG:04CC3: 98       TYA
PRG:04CC4: 95 58    STA $58
PRG:04CC6: 60       RTS
PRG:04CC7: 00 01    BRK $01
PRG:04CC9: 03       .byte $03
PRG:04CCA: 04 05    NOP $05
PRG:04CCC: 06 07    ASL $07
PRG:04CCE: 07       .byte $07
PRG:04CCF: 08       PHP
PRG:04CD0: 00 03    BRK $03
PRG:04CD2: 06 09    ASL $09
PRG:04CD4: 0B       .byte $0B
PRG:04CD5: 0D 0E 0F ORA $0F0E
PRG:04CD8: 10 00    BPL $00
PRG:04CDA: 04 09    NOP $09
PRG:04CDC: 0D 10 13 ORA $1310
PRG:04CDF: 16 17    ASL $17
PRG:04CE1: 18       CLC
PRG:04CE2: 00 06    BRK $06
PRG:04CE4: 0C 12 16 NOP $1612
PRG:04CE7: 1A       NOP
PRG:04CE8: 1D 1F 20 ORA $201F
PRG:04CEB: 00 07    BRK $07
PRG:04CED: 0F       .byte $0F
PRG:04CEE: 16 1C    ASL $1C
PRG:04CF0: 21 25    AND $25
PRG:04CF2: 27       .byte $27
PRG:04CF3: 28       PLP
PRG:04CF4: 00 09    BRK $09
PRG:04CF6: 12       .byte $12
PRG:04CF7: 1B       .byte $1B
PRG:04CF8: 21 27    AND $27
PRG:04CFA: 2C 2F 30 BIT $302F
PRG:04CFD: 00 0B    BRK $0B
PRG:04CFF: 15 1F    ORA $1F
PRG:04D01: 27       .byte $27
PRG:04D02: 2E 33 37 ROL $3733
PRG:04D05: 38       SEC
PRG:04D06: 00 0C    BRK $0C
PRG:04D08: 18       CLC
PRG:04D09: 24 2D    BIT $2D
PRG:04D0B: 35 3B    AND $3B
PRG:04D0D: 3E 40 00 ROL $0040
PRG:04D10: 0E 1B 28 ASL $281B
PRG:04D13: 32       .byte $32
PRG:04D14: 3B       .byte $3B
PRG:04D15: 42       .byte $42
PRG:04D16: 46 48    LSR $48
PRG:04D18: 00 0F    BRK $0F
PRG:04D1A: 1F       .byte $1F
PRG:04D1B: 2D 38 42 AND $4238
PRG:04D1E: 4A       LSR
PRG:04D1F: 4E 50 00 LSR $0050
PRG:04D22: 11 22    ORA $22
PRG:04D24: 31 3E    AND $3E
PRG:04D26: 49 51    EOR $51
PRG:04D28: 56 58    LSR $58
PRG:04D2A: 01 03    ORA $03
PRG:04D2C: 02       .byte $02
PRG:04D2D: 00 00    BRK $00
PRG:04D2F: 09 12    ORA $12
PRG:04D31: 1B       .byte $1B
PRG:04D32: 24 2D    BIT $2D
PRG:04D34: 36 3F    ROL $3F
PRG:04D36: 48       PHA
PRG:04D37: 51 5A    EOR $5A
PRG:04D39: 63       .byte $63
PRG:04D3A: 0C 18 20 NOP $2018
PRG:04D3D: AF       .byte $AF
PRG:04D3E: F1 AD    SBC $AD
PRG:04D40: D1 03    CMP $03
PRG:04D42: 29 08    AND $08
PRG:04D44: D0 74    BNE $74
PRG:04D46: AD 47 07 LDA $0747
PRG:04D49: D0 0A    BNE $0A
PRG:04D4B: BD 88 03 LDA $0388
PRG:04D4E: 20 10 D4 JSR $D410
PRG:04D51: 29 1F    AND $1F
PRG:04D53: 95 A0    STA $A0
PRG:04D55: B5 A0    LDA $A0
PRG:04D57: B4 16    LDY $16
PRG:04D59: C0 1F    CPY $1F
PRG:04D5B: 90 0D    BCC $0D
PRG:04D5D: C9 08    CMP $08
PRG:04D5F: F0 04    BEQ $04
PRG:04D61: C9 18    CMP $18
PRG:04D63: D0 05    BNE $05
PRG:04D65: 18       CLC
PRG:04D66: 69 01    ADC $01
PRG:04D68: 95 A0    STA $A0
PRG:04D6A: 85 EF    STA $EF
PRG:04D6C: 20 52 F1 JSR $F152
PRG:04D6F: 20 8E CE JSR $CE8E
PRG:04D72: BC E5 06 LDY $06E5
PRG:04D75: AD B9 03 LDA $03B9
PRG:04D78: 99 00 02 STA $0200
PRG:04D7B: 85 07    STA $07
PRG:04D7D: AD AE 03 LDA $03AE
PRG:04D80: 99 03 02 STA $0203
PRG:04D83: 85 06    STA $06
PRG:04D85: A9 01    LDA $01
PRG:04D87: 85 00    STA $00
PRG:04D89: 20 08 CE JSR $CE08
PRG:04D8C: A0 05    LDY $05
PRG:04D8E: B5 16    LDA $16
PRG:04D90: C9 1F    CMP $1F
PRG:04D92: 90 02    BCC $02
PRG:04D94: A0 0B    LDY $0B
PRG:04D96: 84 ED    STY $ED
PRG:04D98: A9 00    LDA $00
PRG:04D9A: 85 00    STA $00
PRG:04D9C: A5 EF    LDA $EF
PRG:04D9E: 20 8E CE JSR $CE8E
PRG:04DA1: 20 BB CD JSR $CDBB
PRG:04DA4: A5 00    LDA $00
PRG:04DA6: C9 04    CMP $04
PRG:04DA8: D0 08    BNE $08
PRG:04DAA: AC CF 06 LDY $06CF
PRG:04DAD: B9 E5 06 LDA $06E5
PRG:04DB0: 85 06    STA $06
PRG:04DB2: E6 00    INC $00
PRG:04DB4: A5 00    LDA $00
PRG:04DB6: C5 ED    CMP $ED
PRG:04DB8: 90 E2    BCC $E2
PRG:04DBA: 60       RTS
PRG:04DBB: A5 03    LDA $03
PRG:04DBD: 85 05    STA $05
PRG:04DBF: A4 06    LDY $06
PRG:04DC1: A5 01    LDA $01
PRG:04DC3: 46 05    LSR $05
PRG:04DC5: B0 04    BCS $04
PRG:04DC7: 49 FF    EOR $FF
PRG:04DC9: 69 01    ADC $01
PRG:04DCB: 18       CLC
PRG:04DCC: 6D AE 03 ADC $03AE
PRG:04DCF: 99 03 02 STA $0203
PRG:04DD2: 85 06    STA $06
PRG:04DD4: CD AE 03 CMP $03AE
PRG:04DD7: B0 09    BCS $09
PRG:04DD9: AD AE 03 LDA $03AE
PRG:04DDC: 38       SEC
PRG:04DDD: E5 06    SBC $06
PRG:04DDF: 4C E6 CD JMP $CDE6
PRG:04DE2: 38       SEC
PRG:04DE3: ED AE 03 SBC $03AE
PRG:04DE6: C9 59    CMP $59
PRG:04DE8: 90 04    BCC $04
PRG:04DEA: A9 F8    LDA $F8
PRG:04DEC: D0 15    BNE $15
PRG:04DEE: AD B9 03 LDA $03B9
PRG:04DF1: C9 F8    CMP $F8
PRG:04DF3: F0 0E    BEQ $0E
PRG:04DF5: A5 02    LDA $02
PRG:04DF7: 46 05    LSR $05
PRG:04DF9: B0 04    BCS $04
PRG:04DFB: 49 FF    EOR $FF
PRG:04DFD: 69 01    ADC $01
PRG:04DFF: 18       CLC
PRG:04E00: 6D B9 03 ADC $03B9
PRG:04E03: 99 00 02 STA $0200
PRG:04E06: 85 07    STA $07
PRG:04E08: 20 ED EC JSR $ECED
PRG:04E0B: 98       TYA
PRG:04E0C: 48       PHA
PRG:04E0D: AD 9F 07 LDA $079F
PRG:04E10: 0D 47 07 ORA $0747
PRG:04E13: D0 70    BNE $70
PRG:04E15: 85 05    STA $05
PRG:04E17: A4 B5    LDY $B5
PRG:04E19: 88       DEY
PRG:04E1A: D0 69    BNE $69
PRG:04E1C: A4 CE    LDY $CE
PRG:04E1E: AD 54 07 LDA $0754
PRG:04E21: D0 05    BNE $05
PRG:04E23: AD 14 07 LDA $0714
PRG:04E26: F0 09    BEQ $09
PRG:04E28: E6 05    INC $05
PRG:04E2A: E6 05    INC $05
PRG:04E2C: 98       TYA
PRG:04E2D: 18       CLC
PRG:04E2E: 69 18    ADC $18
PRG:04E30: A8       TAY
PRG:04E31: 98       TYA
PRG:04E32: 38       SEC
PRG:04E33: E5 07    SBC $07
PRG:04E35: 10 05    BPL $05
PRG:04E37: 49 FF    EOR $FF
PRG:04E39: 18       CLC
PRG:04E3A: 69 01    ADC $01
PRG:04E3C: C9 08    CMP $08
PRG:04E3E: B0 1C    BCS $1C
PRG:04E40: A5 06    LDA $06
PRG:04E42: C9 F0    CMP $F0
PRG:04E44: B0 16    BCS $16
PRG:04E46: AD 07 02 LDA $0207
PRG:04E49: 18       CLC
PRG:04E4A: 69 04    ADC $04
PRG:04E4C: 85 04    STA $04
PRG:04E4E: 38       SEC
PRG:04E4F: E5 06    SBC $06
PRG:04E51: 10 05    BPL $05
PRG:04E53: 49 FF    EOR $FF
PRG:04E55: 18       CLC
PRG:04E56: 69 01    ADC $01
PRG:04E58: C9 08    CMP $08
PRG:04E5A: 90 13    BCC $13
PRG:04E5C: A5 05    LDA $05
PRG:04E5E: C9 02    CMP $02
PRG:04E60: F0 23    BEQ $23
PRG:04E62: A4 05    LDY $05
PRG:04E64: A5 CE    LDA $CE
PRG:04E66: 18       CLC
PRG:04E67: 79 3A CD ADC $CD3A
PRG:04E6A: E6 05    INC $05
PRG:04E6C: 4C 32 CE JMP $CE32
PRG:04E6F: A2 01    LDX $01
PRG:04E71: A5 04    LDA $04
PRG:04E73: C5 06    CMP $06
PRG:04E75: B0 01    BCS $01
PRG:04E77: E8       INX
PRG:04E78: 86 46    STX $46
PRG:04E7A: A2 00    LDX $00
PRG:04E7C: A5 00    LDA $00
PRG:04E7E: 48       PHA
PRG:04E7F: 20 2C D9 JSR $D92C
PRG:04E82: 68       PLA
PRG:04E83: 85 00    STA $00
PRG:04E85: 68       PLA
PRG:04E86: 18       CLC
PRG:04E87: 69 04    ADC $04
PRG:04E89: 85 06    STA $06
PRG:04E8B: A6 08    LDX $08
PRG:04E8D: 60       RTS
PRG:04E8E: 48       PHA
PRG:04E8F: 29 0F    AND $0F
PRG:04E91: C9 09    CMP $09
PRG:04E93: 90 05    BCC $05
PRG:04E95: 49 0F    EOR $0F
PRG:04E97: 18       CLC
PRG:04E98: 69 01    ADC $01
PRG:04E9A: 85 01    STA $01
PRG:04E9C: A4 00    LDY $00
PRG:04E9E: B9 2E CD LDA $CD2E
PRG:04EA1: 18       CLC
PRG:04EA2: 65 01    ADC $01
PRG:04EA4: A8       TAY
PRG:04EA5: B9 C7 CC LDA $CCC7
PRG:04EA8: 85 01    STA $01
PRG:04EAA: 68       PLA
PRG:04EAB: 48       PHA
PRG:04EAC: 18       CLC
PRG:04EAD: 69 08    ADC $08
PRG:04EAF: 29 0F    AND $0F
PRG:04EB1: C9 09    CMP $09
PRG:04EB3: 90 05    BCC $05
PRG:04EB5: 49 0F    EOR $0F
PRG:04EB7: 18       CLC
PRG:04EB8: 69 01    ADC $01
PRG:04EBA: 85 02    STA $02
PRG:04EBC: A4 00    LDY $00
PRG:04EBE: B9 2E CD LDA $CD2E
PRG:04EC1: 18       CLC
PRG:04EC2: 65 02    ADC $02
PRG:04EC4: A8       TAY
PRG:04EC5: B9 C7 CC LDA $CCC7
PRG:04EC8: 85 02    STA $02
PRG:04ECA: 68       PLA
PRG:04ECB: 4A       LSR
PRG:04ECC: 4A       LSR
PRG:04ECD: 4A       LSR
PRG:04ECE: A8       TAY
PRG:04ECF: B9 2A CD LDA $CD2A
PRG:04ED2: 85 03    STA $03
PRG:04ED4: 60       RTS
PRG:04ED5: F8       SED
PRG:04ED6: A0 70    LDY $70
PRG:04ED8: BD 00 20 LDA $2000
PRG:04EDB: 20 20 00 JSR $0020
PRG:04EDE: 00 B5    BRK $B5
PRG:04EE0: 1E 29 20 ASL $2029
PRG:04EE3: F0 08    BEQ $08
PRG:04EE5: A9 00    LDA $00
PRG:04EE7: 9D C5 03 STA $03C5
PRG:04EEA: 4C 92 BF JMP $BF92
PRG:04EED: 20 02 BF JSR $BF02
PRG:04EF0: A0 0D    LDY $0D
PRG:04EF2: A9 05    LDA $05
PRG:04EF4: 20 96 BF JSR $BF96
PRG:04EF7: BD 34 04 LDA $0434
PRG:04EFA: 4A       LSR
PRG:04EFB: 4A       LSR
PRG:04EFC: 4A       LSR
PRG:04EFD: 4A       LSR
PRG:04EFE: A8       TAY
PRG:04EFF: B5 CF    LDA $CF
PRG:04F01: 38       SEC
PRG:04F02: F9 D5 CE SBC $CED5
PRG:04F05: 10 05    BPL $05
PRG:04F07: 49 FF    EOR $FF
PRG:04F09: 18       CLC
PRG:04F0A: 69 01    ADC $01
PRG:04F0C: C9 08    CMP $08
PRG:04F0E: B0 0E    BCS $0E
PRG:04F10: BD 34 04 LDA $0434
PRG:04F13: 18       CLC
PRG:04F14: 69 10    ADC $10
PRG:04F16: 9D 34 04 STA $0434
PRG:04F19: 4A       LSR
PRG:04F1A: 4A       LSR
PRG:04F1B: 4A       LSR
PRG:04F1C: 4A       LSR
PRG:04F1D: A8       TAY
PRG:04F1E: B9 DA CE LDA $CEDA
PRG:04F21: 9D C5 03 STA $03C5
PRG:04F24: 60       RTS
PRG:04F25: 15 30    ORA $30
PRG:04F27: 40       RTI
PRG:04F28: B5 1E    LDA $1E
PRG:04F2A: 29 20    AND $20
PRG:04F2C: F0 03    BEQ $03
PRG:04F2E: 4C 63 BF JMP $BF63
PRG:04F31: B5 1E    LDA $1E
PRG:04F33: F0 0B    BEQ $0B
PRG:04F35: A9 00    LDA $00
PRG:04F37: 95 A0    STA $A0
PRG:04F39: 8D CB 06 STA $06CB
PRG:04F3C: A9 10    LDA $10
PRG:04F3E: D0 13    BNE $13
PRG:04F40: A9 12    LDA $12
PRG:04F42: 8D CB 06 STA $06CB
PRG:04F45: A0 02    LDY $02
PRG:04F47: B9 25 CF LDA $CF25
PRG:04F4A: 99 01 00 STA $0001
PRG:04F4D: 88       DEY
PRG:04F4E: 10 F7    BPL $F7
PRG:04F50: 20 6C CF JSR $CF6C
PRG:04F53: 95 58    STA $58
PRG:04F55: A0 01    LDY $01
PRG:04F57: B5 A0    LDA $A0
PRG:04F59: 29 01    AND $01
PRG:04F5B: D0 0A    BNE $0A
PRG:04F5D: B5 58    LDA $58
PRG:04F5F: 49 FF    EOR $FF
PRG:04F61: 18       CLC
PRG:04F62: 69 01    ADC $01
PRG:04F64: 95 58    STA $58
PRG:04F66: C8       INY
PRG:04F67: 94 46    STY $46
PRG:04F69: 4C 02 BF JMP $BF02
PRG:04F6C: A0 00    LDY $00
PRG:04F6E: 20 43 E1 JSR $E143
PRG:04F71: 10 0A    BPL $0A
PRG:04F73: C8       INY
PRG:04F74: A5 00    LDA $00
PRG:04F76: 49 FF    EOR $FF
PRG:04F78: 18       CLC
PRG:04F79: 69 01    ADC $01
PRG:04F7B: 85 00    STA $00
PRG:04F7D: A5 00    LDA $00
PRG:04F7F: C9 3C    CMP $3C
PRG:04F81: 90 1C    BCC $1C
PRG:04F83: A9 3C    LDA $3C
PRG:04F85: 85 00    STA $00
PRG:04F87: B5 16    LDA $16
PRG:04F89: C9 11    CMP $11
PRG:04F8B: D0 12    BNE $12
PRG:04F8D: 98       TYA
PRG:04F8E: D5 A0    CMP $A0
PRG:04F90: F0 0D    BEQ $0D
PRG:04F92: B5 A0    LDA $A0
PRG:04F94: F0 06    BEQ $06
PRG:04F96: D6 58    DEC $58
PRG:04F98: B5 58    LDA $58
PRG:04F9A: D0 40    BNE $40
PRG:04F9C: 98       TYA
PRG:04F9D: 95 A0    STA $A0
PRG:04F9F: A5 00    LDA $00
PRG:04FA1: 29 3C    AND $3C
PRG:04FA3: 4A       LSR
PRG:04FA4: 4A       LSR
PRG:04FA5: 85 00    STA $00
PRG:04FA7: A0 00    LDY $00
PRG:04FA9: A5 57    LDA $57
PRG:04FAB: F0 24    BEQ $24
PRG:04FAD: AD 75 07 LDA $0775
PRG:04FB0: F0 1F    BEQ $1F
PRG:04FB2: C8       INY
PRG:04FB3: A5 57    LDA $57
PRG:04FB5: C9 19    CMP $19
PRG:04FB7: 90 08    BCC $08
PRG:04FB9: AD 75 07 LDA $0775
PRG:04FBC: C9 02    CMP $02
PRG:04FBE: 90 01    BCC $01
PRG:04FC0: C8       INY
PRG:04FC1: B5 16    LDA $16
PRG:04FC3: C9 12    CMP $12
PRG:04FC5: D0 04    BNE $04
PRG:04FC7: A5 57    LDA $57
PRG:04FC9: D0 06    BNE $06
PRG:04FCB: B5 A0    LDA $A0
PRG:04FCD: D0 02    BNE $02
PRG:04FCF: A0 00    LDY $00
PRG:04FD1: B9 01 00 LDA $0001
PRG:04FD4: A4 00    LDY $00
PRG:04FD6: 38       SEC
PRG:04FD7: E9 01    SBC $01
PRG:04FD9: 88       DEY
PRG:04FDA: 10 FA    BPL $FA
PRG:04FDC: 60       RTS
PRG:04FDD: 1A       NOP
PRG:04FDE: 58       CLI
PRG:04FDF: 98       TYA
PRG:04FE0: 96 94    STX $94
PRG:04FE2: 92       .byte $92
PRG:04FE3: 90 8E    BCC $8E
PRG:04FE5: 8C 8A 88 STY $888A
PRG:04FE8: 86 84    STX $84
PRG:04FEA: 82       .byte $82
PRG:04FEB: 80 AE    NOP $AE
PRG:04FED: 68       PLA
PRG:04FEE: 03       .byte $03
PRG:04FEF: B5 16    LDA $16
PRG:04FF1: C9 2D    CMP $2D
PRG:04FF3: D0 10    BNE $10
PRG:04FF5: 86 08    STX $08
PRG:04FF7: B5 1E    LDA $1E
PRG:04FF9: F0 1A    BEQ $1A
PRG:04FFB: 29 40    AND $40
PRG:04FFD: F0 06    BEQ $06
PRG:04FFF: B5 CF    LDA $CF
PRG:05001: C9 E0    CMP $E0
PRG:05003: 90 0A    BCC $0A
PRG:05005: A9 80    LDA $80
PRG:05007: 85 FC    STA $FC
PRG:05009: EE 72 07 INC $0772
PRG:0500C: 4C 71 D0 JMP $D071
PRG:0500F: 20 8C BF JSR $BF8C
PRG:05012: 4C 7B D1 JMP $D17B
PRG:05015: CE 64 03 DEC $0364
PRG:05018: D0 44    BNE $44
PRG:0501A: A9 04    LDA $04
PRG:0501C: 8D 64 03 STA $0364
PRG:0501F: AD 63 03 LDA $0363
PRG:05022: 49 01    EOR $01
PRG:05024: 8D 63 03 STA $0363
PRG:05027: A9 22    LDA $22
PRG:05029: 85 05    STA $05
PRG:0502B: AC 69 03 LDY $0369
PRG:0502E: B9 DD CF LDA $CFDD
PRG:05031: 85 04    STA $04
PRG:05033: AC 00 03 LDY $0300
PRG:05036: C8       INY
PRG:05037: A2 0C    LDX $0C
PRG:05039: 20 CD 8A JSR $8ACD
PRG:0503C: A6 08    LDX $08
PRG:0503E: 20 8F 8A JSR $8A8F
PRG:05041: A9 08    LDA $08
PRG:05043: 85 FE    STA $FE
PRG:05045: A9 01    LDA $01
PRG:05047: 85 FD    STA $FD
PRG:05049: EE 69 03 INC $0369
PRG:0504C: AD 69 03 LDA $0369
PRG:0504F: C9 0F    CMP $0F
PRG:05051: D0 0B    BNE $0B
PRG:05053: 20 63 C3 JSR $C363
PRG:05056: A9 40    LDA $40
PRG:05058: 95 1E    STA $1E
PRG:0505A: A9 80    LDA $80
PRG:0505C: 85 FE    STA $FE
PRG:0505E: 4C 7B D1 JMP $D17B
PRG:05061: 21 41    AND $41
PRG:05063: 11 31    ORA $31
PRG:05065: B5 1E    LDA $1E
PRG:05067: 29 20    AND $20
PRG:05069: F0 14    BEQ $14
PRG:0506B: B5 CF    LDA $CF
PRG:0506D: C9 E0    CMP $E0
PRG:0506F: 90 9E    BCC $9E
PRG:05071: A2 04    LDX $04
PRG:05073: 20 98 C9 JSR $C998
PRG:05076: CA       DEX
PRG:05077: 10 FA    BPL $FA
PRG:05079: 8D CB 06 STA $06CB
PRG:0507C: A6 08    LDX $08
PRG:0507E: 60       RTS
PRG:0507F: A9 00    LDA $00
PRG:05081: 8D CB 06 STA $06CB
PRG:05084: AD 47 07 LDA $0747
PRG:05087: F0 03    BEQ $03
PRG:05089: 4C 39 D1 JMP $D139
PRG:0508C: AD 63 03 LDA $0363
PRG:0508F: 10 03    BPL $03
PRG:05091: 4C 0F D1 JMP $D10F
PRG:05094: CE 64 03 DEC $0364
PRG:05097: D0 0D    BNE $0D
PRG:05099: A9 20    LDA $20
PRG:0509B: 8D 64 03 STA $0364
PRG:0509E: AD 63 03 LDA $0363
PRG:050A1: 49 01    EOR $01
PRG:050A3: 8D 63 03 STA $0363
PRG:050A6: A5 09    LDA $09
PRG:050A8: 29 0F    AND $0F
PRG:050AA: D0 04    BNE $04
PRG:050AC: A9 02    LDA $02
PRG:050AE: 95 46    STA $46
PRG:050B0: BD 8A 07 LDA $078A
PRG:050B3: F0 1C    BEQ $1C
PRG:050B5: 20 43 E1 JSR $E143
PRG:050B8: 10 17    BPL $17
PRG:050BA: A9 01    LDA $01
PRG:050BC: 95 46    STA $46
PRG:050BE: A9 02    LDA $02
PRG:050C0: 8D 65 03 STA $0365
PRG:050C3: A9 20    LDA $20
PRG:050C5: 9D 8A 07 STA $078A
PRG:050C8: 8D 90 07 STA $0790
PRG:050CB: B5 87    LDA $87
PRG:050CD: C9 C8    CMP $C8
PRG:050CF: B0 3E    BCS $3E
PRG:050D1: A5 09    LDA $09
PRG:050D3: 29 03    AND $03
PRG:050D5: D0 38    BNE $38
PRG:050D7: B5 87    LDA $87
PRG:050D9: CD 66 03 CMP $0366
PRG:050DC: D0 0C    BNE $0C
PRG:050DE: BD A7 07 LDA $07A7
PRG:050E1: 29 03    AND $03
PRG:050E3: A8       TAY
PRG:050E4: B9 61 D0 LDA $D061
PRG:050E7: 8D DC 06 STA $06DC
PRG:050EA: B5 87    LDA $87
PRG:050EC: 18       CLC
PRG:050ED: 6D 65 03 ADC $0365
PRG:050F0: 95 87    STA $87
PRG:050F2: B4 46    LDY $46
PRG:050F4: C0 01    CPY $01
PRG:050F6: F0 17    BEQ $17
PRG:050F8: A0 FF    LDY $FF
PRG:050FA: 38       SEC
PRG:050FB: ED 66 03 SBC $0366
PRG:050FE: 10 07    BPL $07
PRG:05100: 49 FF    EOR $FF
PRG:05102: 18       CLC
PRG:05103: 69 01    ADC $01
PRG:05105: A0 01    LDY $01
PRG:05107: CD DC 06 CMP $06DC
PRG:0510A: 90 03    BCC $03
PRG:0510C: 8C 65 03 STY $0365
PRG:0510F: BD 8A 07 LDA $078A
PRG:05112: D0 28    BNE $28
PRG:05114: 20 8C BF JSR $BF8C
PRG:05117: AD 5F 07 LDA $075F
PRG:0511A: C9 05    CMP $05
PRG:0511C: 90 09    BCC $09
PRG:0511E: A5 09    LDA $09
PRG:05120: 29 03    AND $03
PRG:05122: D0 03    BNE $03
PRG:05124: 20 94 BA JSR $BA94
PRG:05127: B5 CF    LDA $CF
PRG:05129: C9 80    CMP $80
PRG:0512B: 90 1C    BCC $1C
PRG:0512D: BD A7 07 LDA $07A7
PRG:05130: 29 03    AND $03
PRG:05132: A8       TAY
PRG:05133: B9 61 D0 LDA $D061
PRG:05136: 9D 8A 07 STA $078A
PRG:05139: 4C 49 D1 JMP $D149
PRG:0513C: C9 01    CMP $01
PRG:0513E: D0 09    BNE $09
PRG:05140: D6 CF    DEC $CF
PRG:05142: 20 63 C3 JSR $C363
PRG:05145: A9 FE    LDA $FE
PRG:05147: 95 A0    STA $A0
PRG:05149: AD 5F 07 LDA $075F
PRG:0514C: C9 07    CMP $07
PRG:0514E: F0 04    BEQ $04
PRG:05150: C9 05    CMP $05
PRG:05152: B0 27    BCS $27
PRG:05154: AD 90 07 LDA $0790
PRG:05157: D0 22    BNE $22
PRG:05159: A9 20    LDA $20
PRG:0515B: 8D 90 07 STA $0790
PRG:0515E: AD 63 03 LDA $0363
PRG:05161: 49 80    EOR $80
PRG:05163: 8D 63 03 STA $0363
PRG:05166: 30 E1    BMI $E1
PRG:05168: 20 D9 D1 JSR $D1D9
PRG:0516B: AC CC 06 LDY $06CC
PRG:0516E: F0 03    BEQ $03
PRG:05170: 38       SEC
PRG:05171: E9 10    SBC $10
PRG:05173: 8D 90 07 STA $0790
PRG:05176: A9 15    LDA $15
PRG:05178: 8D CB 06 STA $06CB
PRG:0517B: 20 BC D1 JSR $D1BC
PRG:0517E: A0 10    LDY $10
PRG:05180: B5 46    LDA $46
PRG:05182: 4A       LSR
PRG:05183: 90 02    BCC $02
PRG:05185: A0 F0    LDY $F0
PRG:05187: 98       TYA
PRG:05188: 18       CLC
PRG:05189: 75 87    ADC $87
PRG:0518B: AC CF 06 LDY $06CF
PRG:0518E: 99 87 00 STA $0087
PRG:05191: B5 CF    LDA $CF
PRG:05193: 18       CLC
PRG:05194: 69 08    ADC $08
PRG:05196: 99 CF 00 STA $00CF
PRG:05199: B5 1E    LDA $1E
PRG:0519B: 99 1E 00 STA $001E
PRG:0519E: B5 46    LDA $46
PRG:051A0: 99 46 00 STA $0046
PRG:051A3: A5 08    LDA $08
PRG:051A5: 48       PHA
PRG:051A6: AE CF 06 LDX $06CF
PRG:051A9: 86 08    STX $08
PRG:051AB: A9 2D    LDA $2D
PRG:051AD: 95 16    STA $16
PRG:051AF: 20 BC D1 JSR $D1BC
PRG:051B2: 68       PLA
PRG:051B3: 85 08    STA $08
PRG:051B5: AA       TAX
PRG:051B6: A9 00    LDA $00
PRG:051B8: 8D 6A 03 STA $036A
PRG:051BB: 60       RTS
PRG:051BC: EE 6A 03 INC $036A
PRG:051BF: 20 D7 C8 JSR $C8D7
PRG:051C2: B5 1E    LDA $1E
PRG:051C4: D0 F5    BNE $F5
PRG:051C6: A9 0A    LDA $0A
PRG:051C8: 9D 9A 04 STA $049A
PRG:051CB: 20 43 E2 JSR $E243
PRG:051CE: 4C 53 D8 JMP $D853
PRG:051D1: BF       .byte $BF
PRG:051D2: 40       RTI
PRG:051D3: BF       .byte $BF
PRG:051D4: BF       .byte $BF
PRG:051D5: BF       .byte $BF
PRG:051D6: 40       RTI
PRG:051D7: 40       RTI
PRG:051D8: BF       .byte $BF
PRG:051D9: AC 67 03 LDY $0367
PRG:051DC: EE 67 03 INC $0367
PRG:051DF: AD 67 03 LDA $0367
PRG:051E2: 29 07    AND $07
PRG:051E4: 8D 67 03 STA $0367
PRG:051E7: B9 D1 D1 LDA $D1D1
PRG:051EA: 60       RTS
PRG:051EB: AD 47 07 LDA $0747
PRG:051EE: D0 30    BNE $30
PRG:051F0: A9 40    LDA $40
PRG:051F2: AC CC 06 LDY $06CC
PRG:051F5: F0 02    BEQ $02
PRG:051F7: A9 60    LDA $60
PRG:051F9: 85 00    STA $00
PRG:051FB: BD 01 04 LDA $0401
PRG:051FE: 38       SEC
PRG:051FF: E5 00    SBC $00
PRG:05201: 9D 01 04 STA $0401
PRG:05204: B5 87    LDA $87
PRG:05206: E9 01    SBC $01
PRG:05208: 95 87    STA $87
PRG:0520A: B5 6E    LDA $6E
PRG:0520C: E9 00    SBC $00
PRG:0520E: 95 6E    STA $6E
PRG:05210: BC 17 04 LDY $0417
PRG:05213: B5 CF    LDA $CF
PRG:05215: D9 9D C5 CMP $C59D
PRG:05218: F0 06    BEQ $06
PRG:0521A: 18       CLC
PRG:0521B: 7D 34 04 ADC $0434
PRG:0521E: 95 CF    STA $CF
PRG:05220: 20 52 F1 JSR $F152
PRG:05223: B5 1E    LDA $1E
PRG:05225: D0 C3    BNE $C3
PRG:05227: A9 51    LDA $51
PRG:05229: 85 00    STA $00
PRG:0522B: A0 02    LDY $02
PRG:0522D: A5 09    LDA $09
PRG:0522F: 29 02    AND $02
PRG:05231: F0 02    BEQ $02
PRG:05233: A0 82    LDY $82
PRG:05235: 84 01    STY $01
PRG:05237: BC E5 06 LDY $06E5
PRG:0523A: A2 00    LDX $00
PRG:0523C: AD B9 03 LDA $03B9
PRG:0523F: 99 00 02 STA $0200
PRG:05242: A5 00    LDA $00
PRG:05244: 99 01 02 STA $0201
PRG:05247: E6 00    INC $00
PRG:05249: A5 01    LDA $01
PRG:0524B: 99 02 02 STA $0202
PRG:0524E: AD AE 03 LDA $03AE
PRG:05251: 99 03 02 STA $0203
PRG:05254: 18       CLC
PRG:05255: 69 08    ADC $08
PRG:05257: 8D AE 03 STA $03AE
PRG:0525A: C8       INY
PRG:0525B: C8       INY
PRG:0525C: C8       INY
PRG:0525D: C8       INY
PRG:0525E: E8       INX
PRG:0525F: E0 03    CPX $03
PRG:05261: 90 D9    BCC $D9
PRG:05263: A6 08    LDX $08
PRG:05265: 20 AF F1 JSR $F1AF
PRG:05268: BC E5 06 LDY $06E5
PRG:0526B: AD D1 03 LDA $03D1
PRG:0526E: 4A       LSR
PRG:0526F: 48       PHA
PRG:05270: 90 05    BCC $05
PRG:05272: A9 F8    LDA $F8
PRG:05274: 99 0C 02 STA $020C
PRG:05277: 68       PLA
PRG:05278: 4A       LSR
PRG:05279: 48       PHA
PRG:0527A: 90 05    BCC $05
PRG:0527C: A9 F8    LDA $F8
PRG:0527E: 99 08 02 STA $0208
PRG:05281: 68       PLA
PRG:05282: 4A       LSR
PRG:05283: 48       PHA
PRG:05284: 90 05    BCC $05
PRG:05286: A9 F8    LDA $F8
PRG:05288: 99 04 02 STA $0204
PRG:0528B: 68       PLA
PRG:0528C: 4A       LSR
PRG:0528D: 90 05    BCC $05
PRG:0528F: A9 F8    LDA $F8
PRG:05291: 99 00 02 STA $0200
PRG:05294: 60       RTS
PRG:05295: D6 A0    DEC $A0
PRG:05297: D0 0C    BNE $0C
PRG:05299: A9 08    LDA $08
PRG:0529B: 95 A0    STA $A0
PRG:0529D: F6 58    INC $58
PRG:0529F: B5 58    LDA $58
PRG:052A1: C9 03    CMP $03
PRG:052A3: B0 18    BCS $18
PRG:052A5: 20 52 F1 JSR $F152
PRG:052A8: AD B9 03 LDA $03B9
PRG:052AB: 8D BA 03 STA $03BA
PRG:052AE: AD AE 03 LDA $03AE
PRG:052B1: 8D AF 03 STA $03AF
PRG:052B4: BC E5 06 LDY $06E5
PRG:052B7: B5 58    LDA $58
PRG:052B9: 20 17 ED JSR $ED17
PRG:052BC: 60       RTS
PRG:052BD: A9 00    LDA $00
PRG:052BF: 95 0F    STA $0F
PRG:052C1: A9 08    LDA $08
PRG:052C3: 85 FE    STA $FE
PRG:052C5: A9 05    LDA $05
PRG:052C7: 8D 38 01 STA $0138
PRG:052CA: 4C 36 D3 JMP $D336
PRG:052CD: 00 00    BRK $00
PRG:052CF: 08       PHP
PRG:052D0: 08       PHP
PRG:052D1: 00 08    BRK $08
PRG:052D3: 00 08    BRK $08
PRG:052D5: 54 55    NOP $55
PRG:052D7: 56 57    LSR $57
PRG:052D9: A9 00    LDA $00
PRG:052DB: 8D CB 06 STA $06CB
PRG:052DE: AD 46 07 LDA $0746
PRG:052E1: C9 05    CMP $05
PRG:052E3: B0 2C    BCS $2C
PRG:052E5: 20 04 8E JSR $8E04
PRG:052E8: 11 D3    ORA $D3
PRG:052EA: F2       .byte $F2
PRG:052EB: D2       .byte $D2
PRG:052EC: 12       .byte $12
PRG:052ED: D3       .byte $D3
PRG:052EE: 4E D3 A2 LSR $A2D3
PRG:052F1: D3       .byte $D3
PRG:052F2: A0 05    LDY $05
PRG:052F4: AD FA 07 LDA $07FA
PRG:052F7: C9 01    CMP $01
PRG:052F9: F0 0E    BEQ $0E
PRG:052FB: A0 03    LDY $03
PRG:052FD: C9 03    CMP $03
PRG:052FF: F0 08    BEQ $08
PRG:05301: A0 00    LDY $00
PRG:05303: C9 06    CMP $06
PRG:05305: F0 02    BEQ $02
PRG:05307: A9 FF    LDA $FF
PRG:05309: 8D D7 06 STA $06D7
PRG:0530C: 94 1E    STY $1E
PRG:0530E: EE 46 07 INC $0746
PRG:05311: 60       RTS
PRG:05312: AD F8 07 LDA $07F8
PRG:05315: 0D F9 07 ORA $07F9
PRG:05318: 0D FA 07 ORA $07FA
PRG:0531B: F0 F1    BEQ $F1
PRG:0531D: A5 09    LDA $09
PRG:0531F: 29 04    AND $04
PRG:05321: F0 04    BEQ $04
PRG:05323: A9 10    LDA $10
PRG:05325: 85 FE    STA $FE
PRG:05327: A0 23    LDY $23
PRG:05329: A9 FF    LDA $FF
PRG:0532B: 8D 39 01 STA $0139
PRG:0532E: 20 5F 8F JSR $8F5F
PRG:05331: A9 05    LDA $05
PRG:05333: 8D 39 01 STA $0139
PRG:05336: A0 0B    LDY $0B
PRG:05338: AD 53 07 LDA $0753
PRG:0533B: F0 02    BEQ $02
PRG:0533D: A0 11    LDY $11
PRG:0533F: 20 5F 8F JSR $8F5F
PRG:05342: AD 53 07 LDA $0753
PRG:05345: 0A       ASL
PRG:05346: 0A       ASL
PRG:05347: 0A       ASL
PRG:05348: 0A       ASL
PRG:05349: 09 04    ORA $04
PRG:0534B: 4C 36 BC JMP $BC36
PRG:0534E: B5 CF    LDA $CF
PRG:05350: C9 72    CMP $72
PRG:05352: 90 05    BCC $05
PRG:05354: D6 CF    DEC $CF
PRG:05356: 4C 65 D3 JMP $D365
PRG:05359: AD D7 06 LDA $06D7
PRG:0535C: F0 38    BEQ $38
PRG:0535E: 30 36    BMI $36
PRG:05360: A9 16    LDA $16
PRG:05362: 8D CB 06 STA $06CB
PRG:05365: 20 52 F1 JSR $F152
PRG:05368: BC E5 06 LDY $06E5
PRG:0536B: A2 03    LDX $03
PRG:0536D: AD B9 03 LDA $03B9
PRG:05370: 18       CLC
PRG:05371: 7D CD D2 ADC $D2CD
PRG:05374: 99 00 02 STA $0200
PRG:05377: BD D5 D2 LDA $D2D5
PRG:0537A: 99 01 02 STA $0201
PRG:0537D: A9 22    LDA $22
PRG:0537F: 99 02 02 STA $0202
PRG:05382: AD AE 03 LDA $03AE
PRG:05385: 18       CLC
PRG:05386: 7D D1 D2 ADC $D2D1
PRG:05389: 99 03 02 STA $0203
PRG:0538C: C8       INY
PRG:0538D: C8       INY
PRG:0538E: C8       INY
PRG:0538F: C8       INY
PRG:05390: CA       DEX
PRG:05391: 10 DA    BPL $DA
PRG:05393: A6 08    LDX $08
PRG:05395: 60       RTS
PRG:05396: 20 65 D3 JSR $D365
PRG:05399: A9 06    LDA $06
PRG:0539B: 9D 96 07 STA $0796
PRG:0539E: EE 46 07 INC $0746
PRG:053A1: 60       RTS
PRG:053A2: 20 65 D3 JSR $D365
PRG:053A5: BD 96 07 LDA $0796
PRG:053A8: D0 05    BNE $05
PRG:053AA: AD B1 07 LDA $07B1
PRG:053AD: F0 EF    BEQ $EF
PRG:053AF: 60       RTS
PRG:053B0: B5 1E    LDA $1E
PRG:053B2: D0 56    BNE $56
PRG:053B4: BD 8A 07 LDA $078A
PRG:053B7: D0 51    BNE $51
PRG:053B9: B5 A0    LDA $A0
PRG:053BB: D0 23    BNE $23
PRG:053BD: B5 58    LDA $58
PRG:053BF: 30 14    BMI $14
PRG:053C1: 20 43 E1 JSR $E143
PRG:053C4: 10 09    BPL $09
PRG:053C6: A5 00    LDA $00
PRG:053C8: 49 FF    EOR $FF
PRG:053CA: 18       CLC
PRG:053CB: 69 01    ADC $01
PRG:053CD: 85 00    STA $00
PRG:053CF: A5 00    LDA $00
PRG:053D1: C9 21    CMP $21
PRG:053D3: 90 35    BCC $35
PRG:053D5: B5 58    LDA $58
PRG:053D7: 49 FF    EOR $FF
PRG:053D9: 18       CLC
PRG:053DA: 69 01    ADC $01
PRG:053DC: 95 58    STA $58
PRG:053DE: F6 A0    INC $A0
PRG:053E0: BD 34 04 LDA $0434
PRG:053E3: B4 58    LDY $58
PRG:053E5: 10 03    BPL $03
PRG:053E7: BD 17 04 LDA $0417
PRG:053EA: 85 00    STA $00
PRG:053EC: A5 09    LDA $09
PRG:053EE: 4A       LSR
PRG:053EF: 90 19    BCC $19
PRG:053F1: AD 47 07 LDA $0747
PRG:053F4: D0 14    BNE $14
PRG:053F6: B5 CF    LDA $CF
PRG:053F8: 18       CLC
PRG:053F9: 75 58    ADC $58
PRG:053FB: 95 CF    STA $CF
PRG:053FD: C5 00    CMP $00
PRG:053FF: D0 09    BNE $09
PRG:05401: A9 00    LDA $00
PRG:05403: 95 A0    STA $A0
PRG:05405: A9 40    LDA $40
PRG:05407: 9D 8A 07 STA $078A
PRG:0540A: A9 20    LDA $20
PRG:0540C: 9D C5 03 STA $03C5
PRG:0540F: 60       RTS
PRG:05410: 85 07    STA $07
PRG:05412: B5 34    LDA $34
PRG:05414: D0 0E    BNE $0E
PRG:05416: A0 18    LDY $18
PRG:05418: B5 58    LDA $58
PRG:0541A: 18       CLC
PRG:0541B: 65 07    ADC $07
PRG:0541D: 95 58    STA $58
PRG:0541F: B5 A0    LDA $A0
PRG:05421: 69 00    ADC $00
PRG:05423: 60       RTS
PRG:05424: A0 08    LDY $08
PRG:05426: B5 58    LDA $58
PRG:05428: 38       SEC
PRG:05429: E5 07    SBC $07
PRG:0542B: 95 58    STA $58
PRG:0542D: B5 A0    LDA $A0
PRG:0542F: E9 00    SBC $00
PRG:05431: 60       RTS
PRG:05432: B5 B6    LDA $B6
PRG:05434: C9 03    CMP $03
PRG:05436: D0 03    BNE $03
PRG:05438: 4C 98 C9 JMP $C998
PRG:0543B: B5 1E    LDA $1E
PRG:0543D: 10 01    BPL $01
PRG:0543F: 60       RTS
PRG:05440: A8       TAY
PRG:05441: BD A2 03 LDA $03A2
PRG:05444: 85 00    STA $00
PRG:05446: B5 46    LDA $46
PRG:05448: F0 03    BEQ $03
PRG:0544A: 4C BB D5 JMP $D5BB
PRG:0544D: A9 2D    LDA $2D
PRG:0544F: D5 CF    CMP $CF
PRG:05451: 90 0F    BCC $0F
PRG:05453: C4 00    CPY $00
PRG:05455: F0 08    BEQ $08
PRG:05457: 18       CLC
PRG:05458: 69 02    ADC $02
PRG:0545A: 95 CF    STA $CF
PRG:0545C: 4C B1 D5 JMP $D5B1
PRG:0545F: 4C 98 D5 JMP $D598
PRG:05462: D9 CF 00 CMP $00CF
PRG:05465: 90 0D    BCC $0D
PRG:05467: E4 00    CPX $00
PRG:05469: F0 F4    BEQ $F4
PRG:0546B: 18       CLC
PRG:0546C: 69 02    ADC $02
PRG:0546E: 99 CF 00 STA $00CF
PRG:05471: 4C B1 D5 JMP $D5B1
PRG:05474: B5 CF    LDA $CF
PRG:05476: 48       PHA
PRG:05477: BD A2 03 LDA $03A2
PRG:0547A: 10 18    BPL $18
PRG:0547C: BD 34 04 LDA $0434
PRG:0547F: 18       CLC
PRG:05480: 69 05    ADC $05
PRG:05482: 85 00    STA $00
PRG:05484: B5 A0    LDA $A0
PRG:05486: 69 00    ADC $00
PRG:05488: 30 1A    BMI $1A
PRG:0548A: D0 0C    BNE $0C
PRG:0548C: A5 00    LDA $00
PRG:0548E: C9 0B    CMP $0B
PRG:05490: 90 0C    BCC $0C
PRG:05492: B0 04    BCS $04
PRG:05494: C5 08    CMP $08
PRG:05496: F0 0C    BEQ $0C
PRG:05498: 20 B7 BF JSR $BFB7
PRG:0549B: 4C A7 D4 JMP $D4A7
PRG:0549E: 20 B1 D5 JSR $D5B1
PRG:054A1: 4C A7 D4 JMP $D4A7
PRG:054A4: 20 B4 BF JSR $BFB4
PRG:054A7: B4 1E    LDY $1E
PRG:054A9: 68       PLA
PRG:054AA: 38       SEC
PRG:054AB: F5 CF    SBC $CF
PRG:054AD: 18       CLC
PRG:054AE: 79 CF 00 ADC $00CF
PRG:054B1: 99 CF 00 STA $00CF
PRG:054B4: BD A2 03 LDA $03A2
PRG:054B7: 30 04    BMI $04
PRG:054B9: AA       TAX
PRG:054BA: 20 21 DC JSR $DC21
PRG:054BD: A4 08    LDY $08
PRG:054BF: B9 A0 00 LDA $00A0
PRG:054C2: 19 34 04 ORA $0434
PRG:054C5: F0 77    BEQ $77
PRG:054C7: AE 00 03 LDX $0300
PRG:054CA: E0 20    CPX $20
PRG:054CC: B0 70    BCS $70
PRG:054CE: B9 A0 00 LDA $00A0
PRG:054D1: 48       PHA
PRG:054D2: 48       PHA
PRG:054D3: 20 41 D5 JSR $D541
PRG:054D6: A5 01    LDA $01
PRG:054D8: 9D 01 03 STA $0301
PRG:054DB: A5 00    LDA $00
PRG:054DD: 9D 02 03 STA $0302
PRG:054E0: A9 02    LDA $02
PRG:054E2: 9D 03 03 STA $0303
PRG:054E5: B9 A0 00 LDA $00A0
PRG:054E8: 30 0D    BMI $0D
PRG:054EA: A9 A2    LDA $A2
PRG:054EC: 9D 04 03 STA $0304
PRG:054EF: A9 A3    LDA $A3
PRG:054F1: 9D 05 03 STA $0305
PRG:054F4: 4C FF D4 JMP $D4FF
PRG:054F7: A9 24    LDA $24
PRG:054F9: 9D 04 03 STA $0304
PRG:054FC: 9D 05 03 STA $0305
PRG:054FF: B9 1E 00 LDA $001E
PRG:05502: A8       TAY
PRG:05503: 68       PLA
PRG:05504: 49 FF    EOR $FF
PRG:05506: 20 41 D5 JSR $D541
PRG:05509: A5 01    LDA $01
PRG:0550B: 9D 06 03 STA $0306
PRG:0550E: A5 00    LDA $00
PRG:05510: 9D 07 03 STA $0307
PRG:05513: A9 02    LDA $02
PRG:05515: 9D 08 03 STA $0308
PRG:05518: 68       PLA
PRG:05519: 10 0D    BPL $0D
PRG:0551B: A9 A2    LDA $A2
PRG:0551D: 9D 09 03 STA $0309
PRG:05520: A9 A3    LDA $A3
PRG:05522: 9D 0A 03 STA $030A
PRG:05525: 4C 30 D5 JMP $D530
PRG:05528: A9 24    LDA $24
PRG:0552A: 9D 09 03 STA $0309
PRG:0552D: 9D 0A 03 STA $030A
PRG:05530: A9 00    LDA $00
PRG:05532: 9D 0B 03 STA $030B
PRG:05535: AD 00 03 LDA $0300
PRG:05538: 18       CLC
PRG:05539: 69 0A    ADC $0A
PRG:0553B: 8D 00 03 STA $0300
PRG:0553E: A6 08    LDX $08
PRG:05540: 60       RTS
PRG:05541: 48       PHA
PRG:05542: B9 87 00 LDA $0087
PRG:05545: 18       CLC
PRG:05546: 69 08    ADC $08
PRG:05548: AE CC 06 LDX $06CC
PRG:0554B: D0 03    BNE $03
PRG:0554D: 18       CLC
PRG:0554E: 69 10    ADC $10
PRG:05550: 48       PHA
PRG:05551: B9 6E 00 LDA $006E
PRG:05554: 69 00    ADC $00
PRG:05556: 85 02    STA $02
PRG:05558: 68       PLA
PRG:05559: 29 F0    AND $F0
PRG:0555B: 4A       LSR
PRG:0555C: 4A       LSR
PRG:0555D: 4A       LSR
PRG:0555E: 85 00    STA $00
PRG:05560: B6 CF    LDX $CF
PRG:05562: 68       PLA
PRG:05563: 10 05    BPL $05
PRG:05565: 8A       TXA
PRG:05566: 18       CLC
PRG:05567: 69 08    ADC $08
PRG:05569: AA       TAX
PRG:0556A: 8A       TXA
PRG:0556B: AE 00 03 LDX $0300
PRG:0556E: 0A       ASL
PRG:0556F: 2A       ROL
PRG:05570: 48       PHA
PRG:05571: 2A       ROL
PRG:05572: 29 03    AND $03
PRG:05574: 09 20    ORA $20
PRG:05576: 85 01    STA $01
PRG:05578: A5 02    LDA $02
PRG:0557A: 29 01    AND $01
PRG:0557C: 0A       ASL
PRG:0557D: 0A       ASL
PRG:0557E: 05 01    ORA $01
PRG:05580: 85 01    STA $01
PRG:05582: 68       PLA
PRG:05583: 29 E0    AND $E0
PRG:05585: 18       CLC
PRG:05586: 65 00    ADC $00
PRG:05588: 85 00    STA $00
PRG:0558A: B9 CF 00 LDA $00CF
PRG:0558D: C9 E8    CMP $E8
PRG:0558F: 90 06    BCC $06
PRG:05591: A5 00    LDA $00
PRG:05593: 29 BF    AND $BF
PRG:05595: 85 00    STA $00
PRG:05597: 60       RTS
PRG:05598: 98       TYA
PRG:05599: AA       TAX
PRG:0559A: 20 AF F1 JSR $F1AF
PRG:0559D: A9 06    LDA $06
PRG:0559F: 20 11 DA JSR $DA11
PRG:055A2: AD AD 03 LDA $03AD
PRG:055A5: 9D 17 01 STA $0117
PRG:055A8: A5 CE    LDA $CE
PRG:055AA: 9D 1E 01 STA $011E
PRG:055AD: A9 01    LDA $01
PRG:055AF: 95 46    STA $46
PRG:055B1: 20 63 C3 JSR $C363
PRG:055B4: 99 A0 00 STA $00A0
PRG:055B7: 99 34 04 STA $0434
PRG:055BA: 60       RTS
PRG:055BB: 98       TYA
PRG:055BC: 48       PHA
PRG:055BD: 20 6B BF JSR $BF6B
PRG:055C0: 68       PLA
PRG:055C1: AA       TAX
PRG:055C2: 20 6B BF JSR $BF6B
PRG:055C5: A6 08    LDX $08
PRG:055C7: BD A2 03 LDA $03A2
PRG:055CA: 30 04    BMI $04
PRG:055CC: AA       TAX
PRG:055CD: 20 21 DC JSR $DC21
PRG:055D0: A6 08    LDX $08
PRG:055D2: 60       RTS
PRG:055D3: B5 A0    LDA $A0
PRG:055D5: 1D 34 04 ORA $0434
PRG:055D8: D0 15    BNE $15
PRG:055DA: 9D 17 04 STA $0417
PRG:055DD: B5 CF    LDA $CF
PRG:055DF: DD 01 04 CMP $0401
PRG:055E2: B0 0B    BCS $0B
PRG:055E4: A5 09    LDA $09
PRG:055E6: 29 07    AND $07
PRG:055E8: D0 02    BNE $02
PRG:055EA: F6 CF    INC $CF
PRG:055EC: 4C FE D5 JMP $D5FE
PRG:055EF: B5 CF    LDA $CF
PRG:055F1: D5 58    CMP $58
PRG:055F3: 90 06    BCC $06
PRG:055F5: 20 B7 BF JSR $BFB7
PRG:055F8: 4C FE D5 JMP $D5FE
PRG:055FB: 20 B4 BF JSR $BFB4
PRG:055FE: BD A2 03 LDA $03A2
PRG:05601: 30 03    BMI $03
PRG:05603: 20 21 DC JSR $DC21
PRG:05606: 60       RTS
PRG:05607: A9 0E    LDA $0E
PRG:05609: 20 47 CB JSR $CB47
PRG:0560C: 20 66 CB JSR $CB66
PRG:0560F: BD A2 03 LDA $03A2
PRG:05612: 30 1C    BMI $1C
PRG:05614: A5 86    LDA $86
PRG:05616: 18       CLC
PRG:05617: 65 00    ADC $00
PRG:05619: 85 86    STA $86
PRG:0561B: A5 6D    LDA $6D
PRG:0561D: A4 00    LDY $00
PRG:0561F: 30 05    BMI $05
PRG:05621: 69 00    ADC $00
PRG:05623: 4C 28 D6 JMP $D628
PRG:05626: E9 00    SBC $00
PRG:05628: 85 6D    STA $6D
PRG:0562A: 8C A1 03 STY $03A1
PRG:0562D: 20 21 DC JSR $DC21
PRG:05630: 60       RTS
PRG:05631: BD A2 03 LDA $03A2
PRG:05634: 30 06    BMI $06
PRG:05636: 20 88 BF JSR $BF88
PRG:05639: 20 21 DC JSR $DC21
PRG:0563C: 60       RTS
PRG:0563D: 20 02 BF JSR $BF02
PRG:05640: 85 00    STA $00
PRG:05642: BD A2 03 LDA $03A2
PRG:05645: 30 07    BMI $07
PRG:05647: A9 10    LDA $10
PRG:05649: 95 58    STA $58
PRG:0564B: 20 14 D6 JSR $D614
PRG:0564E: 60       RTS
PRG:0564F: 20 5B D6 JSR $D65B
PRG:05652: 4C FE D5 JMP $D5FE
PRG:05655: 20 5B D6 JSR $D65B
PRG:05658: 4C 71 D6 JMP $D671
PRG:0565B: AD 47 07 LDA $0747
PRG:0565E: D0 19    BNE $19
PRG:05660: BD 17 04 LDA $0417
PRG:05663: 18       CLC
PRG:05664: 7D 34 04 ADC $0434
PRG:05667: 9D 17 04 STA $0417
PRG:0566A: B5 CF    LDA $CF
PRG:0566C: 75 A0    ADC $A0
PRG:0566E: 95 CF    STA $CF
PRG:05670: 60       RTS
PRG:05671: BD A2 03 LDA $03A2
PRG:05674: F0 03    BEQ $03
PRG:05676: 20 19 DC JSR $DC19
PRG:05679: 60       RTS
PRG:0567A: B5 16    LDA $16
PRG:0567C: C9 14    CMP $14
PRG:0567E: F0 55    BEQ $55
PRG:05680: AD 1C 07 LDA $071C
PRG:05683: B4 16    LDY $16
PRG:05685: C0 05    CPY $05
PRG:05687: F0 04    BEQ $04
PRG:05689: C0 0D    CPY $0D
PRG:0568B: D0 02    BNE $02
PRG:0568D: 69 38    ADC $38
PRG:0568F: E9 48    SBC $48
PRG:05691: 85 01    STA $01
PRG:05693: AD 1A 07 LDA $071A
PRG:05696: E9 00    SBC $00
PRG:05698: 85 00    STA $00
PRG:0569A: AD 1D 07 LDA $071D
PRG:0569D: 69 48    ADC $48
PRG:0569F: 85 03    STA $03
PRG:056A1: AD 1B 07 LDA $071B
PRG:056A4: 69 00    ADC $00
PRG:056A6: 85 02    STA $02
PRG:056A8: B5 87    LDA $87
PRG:056AA: C5 01    CMP $01
PRG:056AC: B5 6E    LDA $6E
PRG:056AE: E5 00    SBC $00
PRG:056B0: 30 20    BMI $20
PRG:056B2: B5 87    LDA $87
PRG:056B4: C5 03    CMP $03
PRG:056B6: B5 6E    LDA $6E
PRG:056B8: E5 02    SBC $02
PRG:056BA: 30 19    BMI $19
PRG:056BC: B5 1E    LDA $1E
PRG:056BE: C9 05    CMP $05
PRG:056C0: F0 13    BEQ $13
PRG:056C2: C0 0D    CPY $0D
PRG:056C4: F0 0F    BEQ $0F
PRG:056C6: C0 30    CPY $30
PRG:056C8: F0 0B    BEQ $0B
PRG:056CA: C0 31    CPY $31
PRG:056CC: F0 07    BEQ $07
PRG:056CE: C0 32    CPY $32
PRG:056D0: F0 03    BEQ $03
PRG:056D2: 20 98 C9 JSR $C998
PRG:056D5: 60       RTS
PRG:056D6: FF       .byte $FF
PRG:056D7: FF       .byte $FF
PRG:056D8: FF       .byte $FF
PRG:056D9: B5 24    LDA $24
PRG:056DB: F0 56    BEQ $56
PRG:056DD: 0A       ASL
PRG:056DE: B0 53    BCS $53
PRG:056E0: A5 09    LDA $09
PRG:056E2: 4A       LSR
PRG:056E3: B0 4E    BCS $4E
PRG:056E5: 8A       TXA
PRG:056E6: 0A       ASL
PRG:056E7: 0A       ASL
PRG:056E8: 18       CLC
PRG:056E9: 69 1C    ADC $1C
PRG:056EB: A8       TAY
PRG:056EC: A2 04    LDX $04
PRG:056EE: 86 01    STX $01
PRG:056F0: 98       TYA
PRG:056F1: 48       PHA
PRG:056F2: B5 1E    LDA $1E
PRG:056F4: 29 20    AND $20
PRG:056F6: D0 34    BNE $34
PRG:056F8: B5 0F    LDA $0F
PRG:056FA: F0 30    BEQ $30
PRG:056FC: B5 16    LDA $16
PRG:056FE: C9 24    CMP $24
PRG:05700: 90 04    BCC $04
PRG:05702: C9 2B    CMP $2B
PRG:05704: 90 26    BCC $26
PRG:05706: C9 06    CMP $06
PRG:05708: D0 06    BNE $06
PRG:0570A: B5 1E    LDA $1E
PRG:0570C: C9 02    CMP $02
PRG:0570E: B0 1C    BCS $1C
PRG:05710: BD D8 03 LDA $03D8
PRG:05713: D0 17    BNE $17
PRG:05715: 8A       TXA
PRG:05716: 0A       ASL
PRG:05717: 0A       ASL
PRG:05718: 18       CLC
PRG:05719: 69 04    ADC $04
PRG:0571B: AA       TAX
PRG:0571C: 20 27 E3 JSR $E327
PRG:0571F: A6 08    LDX $08
PRG:05721: 90 09    BCC $09
PRG:05723: A9 80    LDA $80
PRG:05725: 95 24    STA $24
PRG:05727: A6 01    LDX $01
PRG:05729: 20 3E D7 JSR $D73E
PRG:0572C: 68       PLA
PRG:0572D: A8       TAY
PRG:0572E: A6 01    LDX $01
PRG:05730: CA       DEX
PRG:05731: 10 BB    BPL $BB
PRG:05733: A6 08    LDX $08
PRG:05735: 60       RTS
PRG:05736: 06 00    ASL $00
PRG:05738: 02       .byte $02
PRG:05739: 12       .byte $12
PRG:0573A: 11 07    ORA $07
PRG:0573C: 05 2D    ORA $2D
PRG:0573E: 20 52 F1 JSR $F152
PRG:05741: A6 01    LDX $01
PRG:05743: B5 0F    LDA $0F
PRG:05745: 10 0B    BPL $0B
PRG:05747: 29 0F    AND $0F
PRG:05749: AA       TAX
PRG:0574A: B5 16    LDA $16
PRG:0574C: C9 2D    CMP $2D
PRG:0574E: F0 0C    BEQ $0C
PRG:05750: A6 01    LDX $01
PRG:05752: B5 16    LDA $16
PRG:05754: C9 02    CMP $02
PRG:05756: F0 6B    BEQ $6B
PRG:05758: C9 2D    CMP $2D
PRG:0575A: D0 2D    BNE $2D
PRG:0575C: CE 83 04 DEC $0483
PRG:0575F: D0 62    BNE $62
PRG:05761: 20 63 C3 JSR $C363
PRG:05764: 95 58    STA $58
PRG:05766: 8D CB 06 STA $06CB
PRG:05769: A9 FE    LDA $FE
PRG:0576B: 95 A0    STA $A0
PRG:0576D: AC 5F 07 LDY $075F
PRG:05770: B9 36 D7 LDA $D736
PRG:05773: 95 16    STA $16
PRG:05775: A9 20    LDA $20
PRG:05777: C0 03    CPY $03
PRG:05779: B0 02    BCS $02
PRG:0577B: 09 03    ORA $03
PRG:0577D: 95 1E    STA $1E
PRG:0577F: A9 80    LDA $80
PRG:05781: 85 FE    STA $FE
PRG:05783: A6 01    LDX $01
PRG:05785: A9 09    LDA $09
PRG:05787: D0 33    BNE $33
PRG:05789: C9 08    CMP $08
PRG:0578B: F0 36    BEQ $36
PRG:0578D: C9 0C    CMP $0C
PRG:0578F: F0 32    BEQ $32
PRG:05791: C9 15    CMP $15
PRG:05793: B0 2E    BCS $2E
PRG:05795: B5 16    LDA $16
PRG:05797: C9 0D    CMP $0D
PRG:05799: D0 06    BNE $06
PRG:0579B: B5 CF    LDA $CF
PRG:0579D: 69 18    ADC $18
PRG:0579F: 95 CF    STA $CF
PRG:057A1: 20 1B E0 JSR $E01B
PRG:057A4: B5 1E    LDA $1E
PRG:057A6: 29 1F    AND $1F
PRG:057A8: 09 20    ORA $20
PRG:057AA: 95 1E    STA $1E
PRG:057AC: A9 02    LDA $02
PRG:057AE: B4 16    LDY $16
PRG:057B0: C0 05    CPY $05
PRG:057B2: D0 02    BNE $02
PRG:057B4: A9 06    LDA $06
PRG:057B6: C0 06    CPY $06
PRG:057B8: D0 02    BNE $02
PRG:057BA: A9 01    LDA $01
PRG:057BC: 20 11 DA JSR $DA11
PRG:057BF: A9 08    LDA $08
PRG:057C1: 85 FF    STA $FF
PRG:057C3: 60       RTS
PRG:057C4: A5 09    LDA $09
PRG:057C6: 4A       LSR
PRG:057C7: 90 36    BCC $36
PRG:057C9: AD 47 07 LDA $0747
PRG:057CC: 0D D6 03 ORA $03D6
PRG:057CF: D0 2E    BNE $2E
PRG:057D1: 8A       TXA
PRG:057D2: 0A       ASL
PRG:057D3: 0A       ASL
PRG:057D4: 18       CLC
PRG:057D5: 69 24    ADC $24
PRG:057D7: A8       TAY
PRG:057D8: 20 25 E3 JSR $E325
PRG:057DB: A6 08    LDX $08
PRG:057DD: 90 1B    BCC $1B
PRG:057DF: BD BE 06 LDA $06BE
PRG:057E2: D0 1B    BNE $1B
PRG:057E4: A9 01    LDA $01
PRG:057E6: 9D BE 06 STA $06BE
PRG:057E9: B5 64    LDA $64
PRG:057EB: 49 FF    EOR $FF
PRG:057ED: 18       CLC
PRG:057EE: 69 01    ADC $01
PRG:057F0: 95 64    STA $64
PRG:057F2: AD 9F 07 LDA $079F
PRG:057F5: D0 08    BNE $08
PRG:057F7: 4C 2C D9 JMP $D92C
PRG:057FA: A9 00    LDA $00
PRG:057FC: 9D BE 06 STA $06BE
PRG:057FF: 60       RTS
PRG:05800: 20 98 C9 JSR $C998
PRG:05803: A9 06    LDA $06
PRG:05805: 20 11 DA JSR $DA11
PRG:05808: A9 20    LDA $20
PRG:0580A: 85 FE    STA $FE
PRG:0580C: A5 39    LDA $39
PRG:0580E: C9 02    CMP $02
PRG:05810: 90 0E    BCC $0E
PRG:05812: C9 03    CMP $03
PRG:05814: F0 24    BEQ $24
PRG:05816: A9 23    LDA $23
PRG:05818: 8D 9F 07 STA $079F
PRG:0581B: A9 40    LDA $40
PRG:0581D: 85 FB    STA $FB
PRG:0581F: 60       RTS
PRG:05820: AD 56 07 LDA $0756
PRG:05823: F0 1B    BEQ $1B
PRG:05825: C9 01    CMP $01
PRG:05827: D0 23    BNE $23
PRG:05829: A6 08    LDX $08
PRG:0582B: A9 02    LDA $02
PRG:0582D: 8D 56 07 STA $0756
PRG:05830: 20 F1 85 JSR $85F1
PRG:05833: A6 08    LDX $08
PRG:05835: A9 0C    LDA $0C
PRG:05837: 4C 47 D8 JMP $D847
PRG:0583A: A9 0B    LDA $0B
PRG:0583C: 9D 10 01 STA $0110
PRG:0583F: 60       RTS
PRG:05840: A9 01    LDA $01
PRG:05842: 8D 56 07 STA $0756
PRG:05845: A9 09    LDA $09
PRG:05847: A0 00    LDY $00
PRG:05849: 20 48 D9 JSR $D948
PRG:0584C: 60       RTS
PRG:0584D: 18       CLC
PRG:0584E: E8       INX
PRG:0584F: 30 D0    BMI $D0
PRG:05851: 08       PHP
PRG:05852: F8       SED
PRG:05853: A5 09    LDA $09
PRG:05855: 4A       LSR
PRG:05856: B0 F4    BCS $F4
PRG:05858: 20 41 DC JSR $DC41
PRG:0585B: B0 23    BCS $23
PRG:0585D: BD D8 03 LDA $03D8
PRG:05860: D0 1E    BNE $1E
PRG:05862: A5 0E    LDA $0E
PRG:05864: C9 08    CMP $08
PRG:05866: D0 18    BNE $18
PRG:05868: B5 1E    LDA $1E
PRG:0586A: 29 20    AND $20
PRG:0586C: D0 12    BNE $12
PRG:0586E: 20 52 DC JSR $DC52
PRG:05871: 20 25 E3 JSR $E325
PRG:05874: A6 08    LDX $08
PRG:05876: B0 09    BCS $09
PRG:05878: BD 91 04 LDA $0491
PRG:0587B: 29 FE    AND $FE
PRG:0587D: 9D 91 04 STA $0491
PRG:05880: 60       RTS
PRG:05881: B4 16    LDY $16
PRG:05883: C0 2E    CPY $2E
PRG:05885: D0 03    BNE $03
PRG:05887: 4C 00 D8 JMP $D800
PRG:0588A: AD 9F 07 LDA $079F
PRG:0588D: F0 06    BEQ $06
PRG:0588F: 4C 95 D7 JMP $D795
PRG:05892: 0A       ASL
PRG:05893: 06 04    ASL $04
PRG:05895: BD 91 04 LDA $0491
PRG:05898: 29 01    AND $01
PRG:0589A: 1D D8 03 ORA $03D8
PRG:0589D: D0 59    BNE $59
PRG:0589F: A9 01    LDA $01
PRG:058A1: 1D 91 04 ORA $0491
PRG:058A4: 9D 91 04 STA $0491
PRG:058A7: C0 12    CPY $12
PRG:058A9: F0 4E    BEQ $4E
PRG:058AB: C0 0D    CPY $0D
PRG:058AD: F0 7D    BEQ $7D
PRG:058AF: C0 0C    CPY $0C
PRG:058B1: F0 79    BEQ $79
PRG:058B3: C0 33    CPY $33
PRG:058B5: F0 42    BEQ $42
PRG:058B7: C0 15    CPY $15
PRG:058B9: B0 71    BCS $71
PRG:058BB: AD 4E 07 LDA $074E
PRG:058BE: F0 6C    BEQ $6C
PRG:058C0: B5 1E    LDA $1E
PRG:058C2: 0A       ASL
PRG:058C3: B0 34    BCS $34
PRG:058C5: B5 1E    LDA $1E
PRG:058C7: 29 07    AND $07
PRG:058C9: C9 02    CMP $02
PRG:058CB: 90 2C    BCC $2C
PRG:058CD: B5 16    LDA $16
PRG:058CF: C9 06    CMP $06
PRG:058D1: F0 25    BEQ $25
PRG:058D3: A9 08    LDA $08
PRG:058D5: 85 FF    STA $FF
PRG:058D7: B5 1E    LDA $1E
PRG:058D9: 09 80    ORA $80
PRG:058DB: 95 1E    STA $1E
PRG:058DD: 20 05 DA JSR $DA05
PRG:058E0: B9 4F D8 LDA $D84F
PRG:058E3: 95 58    STA $58
PRG:058E5: A9 03    LDA $03
PRG:058E7: 18       CLC
PRG:058E8: 6D 84 04 ADC $0484
PRG:058EB: BC 96 07 LDY $0796
PRG:058EE: C0 03    CPY $03
PRG:058F0: B0 03    BCS $03
PRG:058F2: B9 92 D8 LDA $D892
PRG:058F5: 20 11 DA JSR $DA11
PRG:058F8: 60       RTS
PRG:058F9: A5 9F    LDA $9F
PRG:058FB: 30 02    BMI $02
PRG:058FD: D0 6A    BNE $6A
PRG:058FF: B5 16    LDA $16
PRG:05901: C9 07    CMP $07
PRG:05903: 90 09    BCC $09
PRG:05905: A5 CE    LDA $CE
PRG:05907: 18       CLC
PRG:05908: 69 0C    ADC $0C
PRG:0590A: D5 CF    CMP $CF
PRG:0590C: 90 5B    BCC $5B
PRG:0590E: AD 91 07 LDA $0791
PRG:05911: D0 56    BNE $56
PRG:05913: AD 9E 07 LDA $079E
PRG:05916: D0 3D    BNE $3D
PRG:05918: AD AD 03 LDA $03AD
PRG:0591B: CD AE 03 CMP $03AE
PRG:0591E: 90 03    BCC $03
PRG:05920: 4C F6 D9 JMP $D9F6
PRG:05923: B5 46    LDA $46
PRG:05925: C9 01    CMP $01
PRG:05927: D0 03    BNE $03
PRG:05929: 4C FF D9 JMP $D9FF
PRG:0592C: AD 9E 07 LDA $079E
PRG:0592F: D0 24    BNE $24
PRG:05931: AE 56 07 LDX $0756
PRG:05934: F0 22    BEQ $22
PRG:05936: 8D 56 07 STA $0756
PRG:05939: A9 08    LDA $08
PRG:0593B: 8D 9E 07 STA $079E
PRG:0593E: 0A       ASL
PRG:0593F: 85 FF    STA $FF
PRG:05941: 20 F1 85 JSR $85F1
PRG:05944: A9 0A    LDA $0A
PRG:05946: A0 01    LDY $01
PRG:05948: 85 0E    STA $0E
PRG:0594A: 84 1D    STY $1D
PRG:0594C: A0 FF    LDY $FF
PRG:0594E: 8C 47 07 STY $0747
PRG:05951: C8       INY
PRG:05952: 8C 75 07 STY $0775
PRG:05955: A6 08    LDX $08
PRG:05957: 60       RTS
PRG:05958: 86 57    STX $57
PRG:0595A: E8       INX
PRG:0595B: 86 FC    STX $FC
PRG:0595D: A9 FC    LDA $FC
PRG:0595F: 85 9F    STA $9F
PRG:05961: A9 0B    LDA $0B
PRG:05963: D0 E1    BNE $E1
PRG:05965: 02       .byte $02
PRG:05966: 06 05    ASL $05
PRG:05968: 06 B5    ASL $B5
PRG:0596A: 16 C9    ASL $C9
PRG:0596C: 12       .byte $12
PRG:0596D: F0 BD    BEQ $BD
PRG:0596F: A9 04    LDA $04
PRG:05971: 85 FF    STA $FF
PRG:05973: B5 16    LDA $16
PRG:05975: A0 00    LDY $00
PRG:05977: C9 14    CMP $14
PRG:05979: F0 1B    BEQ $1B
PRG:0597B: C9 08    CMP $08
PRG:0597D: F0 17    BEQ $17
PRG:0597F: C9 33    CMP $33
PRG:05981: F0 13    BEQ $13
PRG:05983: C9 0C    CMP $0C
PRG:05985: F0 0F    BEQ $0F
PRG:05987: C8       INY
PRG:05988: C9 05    CMP $05
PRG:0598A: F0 0A    BEQ $0A
PRG:0598C: C8       INY
PRG:0598D: C9 11    CMP $11
PRG:0598F: F0 05    BEQ $05
PRG:05991: C8       INY
PRG:05992: C9 07    CMP $07
PRG:05994: D0 1D    BNE $1D
PRG:05996: B9 65 D9 LDA $D965
PRG:05999: 20 11 DA JSR $DA11
PRG:0599C: B5 46    LDA $46
PRG:0599E: 48       PHA
PRG:0599F: 20 2F E0 JSR $E02F
PRG:059A2: 68       PLA
PRG:059A3: 95 46    STA $46
PRG:059A5: A9 20    LDA $20
PRG:059A7: 95 1E    STA $1E
PRG:059A9: 20 63 C3 JSR $C363
PRG:059AC: 95 58    STA $58
PRG:059AE: A9 FD    LDA $FD
PRG:059B0: 85 9F    STA $9F
PRG:059B2: 60       RTS
PRG:059B3: C9 09    CMP $09
PRG:059B5: 90 1D    BCC $1D
PRG:059B7: 29 01    AND $01
PRG:059B9: 95 16    STA $16
PRG:059BB: A0 00    LDY $00
PRG:059BD: 94 1E    STY $1E
PRG:059BF: A9 03    LDA $03
PRG:059C1: 20 11 DA JSR $DA11
PRG:059C4: 20 63 C3 JSR $C363
PRG:059C7: 20 05 DA JSR $DA05
PRG:059CA: B9 51 D8 LDA $D851
PRG:059CD: 95 58    STA $58
PRG:059CF: 4C F1 D9 JMP $D9F1
PRG:059D2: 10 0B    BPL $0B
PRG:059D4: A9 04    LDA $04
PRG:059D6: 95 1E    STA $1E
PRG:059D8: EE 84 04 INC $0484
PRG:059DB: AD 84 04 LDA $0484
PRG:059DE: 18       CLC
PRG:059DF: 6D 91 07 ADC $0791
PRG:059E2: 20 11 DA JSR $DA11
PRG:059E5: EE 91 07 INC $0791
PRG:059E8: AC 6A 07 LDY $076A
PRG:059EB: B9 D2 D9 LDA $D9D2
PRG:059EE: 9D 96 07 STA $0796
PRG:059F1: A9 FC    LDA $FC
PRG:059F3: 85 9F    STA $9F
PRG:059F5: 60       RTS
PRG:059F6: B5 46    LDA $46
PRG:059F8: C9 01    CMP $01
PRG:059FA: D0 03    BNE $03
PRG:059FC: 4C 2C D9 JMP $D92C
PRG:059FF: 20 1C DB JSR $DB1C
PRG:05A02: 4C 2C D9 JMP $D92C
PRG:05A05: A0 01    LDY $01
PRG:05A07: 20 43 E1 JSR $E143
PRG:05A0A: 10 01    BPL $01
PRG:05A0C: C8       INY
PRG:05A0D: 94 46    STY $46
PRG:05A0F: 88       DEY
PRG:05A10: 60       RTS
PRG:05A11: 9D 10 01 STA $0110
PRG:05A14: A9 30    LDA $30
PRG:05A16: 9D 2C 01 STA $012C
PRG:05A19: B5 CF    LDA $CF
PRG:05A1B: 9D 1E 01 STA $011E
PRG:05A1E: AD AE 03 LDA $03AE
PRG:05A21: 9D 17 01 STA $0117
PRG:05A24: 60       RTS
PRG:05A25: 80 40    NOP $40
PRG:05A27: 20 10 08 JSR $0810
PRG:05A2A: 04 02    NOP $02
PRG:05A2C: 7F       .byte $7F
PRG:05A2D: BF       .byte $BF
PRG:05A2E: DF       .byte $DF
PRG:05A2F: EF       .byte $EF
PRG:05A30: F7       .byte $F7
PRG:05A31: FB       .byte $FB
PRG:05A32: FD A5 09 SBC $09A5
PRG:05A35: 4A       LSR
PRG:05A36: 90 EC    BCC $EC
PRG:05A38: AD 4E 07 LDA $074E
PRG:05A3B: F0 E7    BEQ $E7
PRG:05A3D: B5 16    LDA $16
PRG:05A3F: C9 15    CMP $15
PRG:05A41: B0 6E    BCS $6E
PRG:05A43: C9 11    CMP $11
PRG:05A45: F0 6A    BEQ $6A
PRG:05A47: C9 0D    CMP $0D
PRG:05A49: F0 66    BEQ $66
PRG:05A4B: BD D8 03 LDA $03D8
PRG:05A4E: D0 61    BNE $61
PRG:05A50: 20 52 DC JSR $DC52
PRG:05A53: CA       DEX
PRG:05A54: 30 5B    BMI $5B
PRG:05A56: 86 01    STX $01
PRG:05A58: 98       TYA
PRG:05A59: 48       PHA
PRG:05A5A: B5 0F    LDA $0F
PRG:05A5C: F0 4C    BEQ $4C
PRG:05A5E: B5 16    LDA $16
PRG:05A60: C9 15    CMP $15
PRG:05A62: B0 46    BCS $46
PRG:05A64: C9 11    CMP $11
PRG:05A66: F0 42    BEQ $42
PRG:05A68: C9 0D    CMP $0D
PRG:05A6A: F0 3E    BEQ $3E
PRG:05A6C: BD D8 03 LDA $03D8
PRG:05A6F: D0 39    BNE $39
PRG:05A71: 8A       TXA
PRG:05A72: 0A       ASL
PRG:05A73: 0A       ASL
PRG:05A74: 18       CLC
PRG:05A75: 69 04    ADC $04
PRG:05A77: AA       TAX
PRG:05A78: 20 27 E3 JSR $E327
PRG:05A7B: A6 08    LDX $08
PRG:05A7D: A4 01    LDY $01
PRG:05A7F: 90 20    BCC $20
PRG:05A81: B5 1E    LDA $1E
PRG:05A83: 19 1E 00 ORA $001E
PRG:05A86: 29 80    AND $80
PRG:05A88: D0 11    BNE $11
PRG:05A8A: B9 91 04 LDA $0491
PRG:05A8D: 3D 25 DA AND $DA25
PRG:05A90: D0 18    BNE $18
PRG:05A92: B9 91 04 LDA $0491
PRG:05A95: 1D 25 DA ORA $DA25
PRG:05A98: 99 91 04 STA $0491
PRG:05A9B: 20 B4 DA JSR $DAB4
PRG:05A9E: 4C AA DA JMP $DAAA
PRG:05AA1: B9 91 04 LDA $0491
PRG:05AA4: 3D 2C DA AND $DA2C
PRG:05AA7: 99 91 04 STA $0491
PRG:05AAA: 68       PLA
PRG:05AAB: A8       TAY
PRG:05AAC: A6 01    LDX $01
PRG:05AAE: CA       DEX
PRG:05AAF: 10 A5    BPL $A5
PRG:05AB1: A6 08    LDX $08
PRG:05AB3: 60       RTS
PRG:05AB4: B9 1E 00 LDA $001E
PRG:05AB7: 15 1E    ORA $1E
PRG:05AB9: 29 20    AND $20
PRG:05ABB: D0 33    BNE $33
PRG:05ABD: B5 1E    LDA $1E
PRG:05ABF: C9 06    CMP $06
PRG:05AC1: 90 2E    BCC $2E
PRG:05AC3: B5 16    LDA $16
PRG:05AC5: C9 05    CMP $05
PRG:05AC7: F0 27    BEQ $27
PRG:05AC9: B9 1E 00 LDA $001E
PRG:05ACC: 0A       ASL
PRG:05ACD: 90 0A    BCC $0A
PRG:05ACF: A9 06    LDA $06
PRG:05AD1: 20 11 DA JSR $DA11
PRG:05AD4: 20 95 D7 JSR $D795
PRG:05AD7: A4 01    LDY $01
PRG:05AD9: 98       TYA
PRG:05ADA: AA       TAX
PRG:05ADB: 20 95 D7 JSR $D795
PRG:05ADE: A6 08    LDX $08
PRG:05AE0: BD 25 01 LDA $0125
PRG:05AE3: 18       CLC
PRG:05AE4: 69 04    ADC $04
PRG:05AE6: A6 01    LDX $01
PRG:05AE8: 20 11 DA JSR $DA11
PRG:05AEB: A6 08    LDX $08
PRG:05AED: FE 25 01 INC $0125
PRG:05AF0: 60       RTS
PRG:05AF1: B9 1E 00 LDA $001E
PRG:05AF4: C9 06    CMP $06
PRG:05AF6: 90 1D    BCC $1D
PRG:05AF8: B9 16 00 LDA $0016
PRG:05AFB: C9 05    CMP $05
PRG:05AFD: F0 F1    BEQ $F1
PRG:05AFF: 20 95 D7 JSR $D795
PRG:05B02: A4 01    LDY $01
PRG:05B04: B9 25 01 LDA $0125
PRG:05B07: 18       CLC
PRG:05B08: 69 04    ADC $04
PRG:05B0A: A6 08    LDX $08
PRG:05B0C: 20 11 DA JSR $DA11
PRG:05B0F: A6 01    LDX $01
PRG:05B11: FE 25 01 INC $0125
PRG:05B14: 60       RTS
PRG:05B15: 98       TYA
PRG:05B16: AA       TAX
PRG:05B17: 20 1C DB JSR $DB1C
PRG:05B1A: A6 08    LDX $08
PRG:05B1C: B5 16    LDA $16
PRG:05B1E: C9 0D    CMP $0D
PRG:05B20: F0 22    BEQ $22
PRG:05B22: C9 11    CMP $11
PRG:05B24: F0 1E    BEQ $1E
PRG:05B26: C9 05    CMP $05
PRG:05B28: F0 1A    BEQ $1A
PRG:05B2A: C9 12    CMP $12
PRG:05B2C: F0 08    BEQ $08
PRG:05B2E: C9 0E    CMP $0E
PRG:05B30: F0 04    BEQ $04
PRG:05B32: C9 07    CMP $07
PRG:05B34: B0 0E    BCS $0E
PRG:05B36: B5 58    LDA $58
PRG:05B38: 49 FF    EOR $FF
PRG:05B3A: A8       TAY
PRG:05B3B: C8       INY
PRG:05B3C: 94 58    STY $58
PRG:05B3E: B5 46    LDA $46
PRG:05B40: 49 03    EOR $03
PRG:05B42: 95 46    STA $46
PRG:05B44: 60       RTS
PRG:05B45: A9 FF    LDA $FF
PRG:05B47: 9D A2 03 STA $03A2
PRG:05B4A: AD 47 07 LDA $0747
PRG:05B4D: D0 29    BNE $29
PRG:05B4F: B5 1E    LDA $1E
PRG:05B51: 30 25    BMI $25
PRG:05B53: B5 16    LDA $16
PRG:05B55: C9 24    CMP $24
PRG:05B57: D0 06    BNE $06
PRG:05B59: B5 1E    LDA $1E
PRG:05B5B: AA       TAX
PRG:05B5C: 20 5F DB JSR $DB5F
PRG:05B5F: 20 41 DC JSR $DC41
PRG:05B62: B0 14    BCS $14
PRG:05B64: 8A       TXA
PRG:05B65: 20 54 DC JSR $DC54
PRG:05B68: B5 CF    LDA $CF
PRG:05B6A: 85 00    STA $00
PRG:05B6C: 8A       TXA
PRG:05B6D: 48       PHA
PRG:05B6E: 20 25 E3 JSR $E325
PRG:05B71: 68       PLA
PRG:05B72: AA       TAX
PRG:05B73: 90 03    BCC $03
PRG:05B75: 20 BC DB JSR $DBBC
PRG:05B78: A6 08    LDX $08
PRG:05B7A: 60       RTS
PRG:05B7B: AD 47 07 LDA $0747
PRG:05B7E: D0 37    BNE $37
PRG:05B80: 9D A2 03 STA $03A2
PRG:05B83: 20 41 DC JSR $DC41
PRG:05B86: B0 2F    BCS $2F
PRG:05B88: A9 02    LDA $02
PRG:05B8A: 85 00    STA $00
PRG:05B8C: A6 08    LDX $08
PRG:05B8E: 20 52 DC JSR $DC52
PRG:05B91: 29 02    AND $02
PRG:05B93: D0 22    BNE $22
PRG:05B95: B9 AD 04 LDA $04AD
PRG:05B98: C9 20    CMP $20
PRG:05B9A: 90 05    BCC $05
PRG:05B9C: 20 25 E3 JSR $E325
PRG:05B9F: B0 19    BCS $19
PRG:05BA1: B9 AD 04 LDA $04AD
PRG:05BA4: 18       CLC
PRG:05BA5: 69 80    ADC $80
PRG:05BA7: 99 AD 04 STA $04AD
PRG:05BAA: B9 AF 04 LDA $04AF
PRG:05BAD: 18       CLC
PRG:05BAE: 69 80    ADC $80
PRG:05BB0: 99 AF 04 STA $04AF
PRG:05BB3: C6 00    DEC $00
PRG:05BB5: D0 D5    BNE $D5
PRG:05BB7: A6 08    LDX $08
PRG:05BB9: 60       RTS
PRG:05BBA: A6 08    LDX $08
PRG:05BBC: B9 AF 04 LDA $04AF
PRG:05BBF: 38       SEC
PRG:05BC0: ED AD 04 SBC $04AD
PRG:05BC3: C9 04    CMP $04
PRG:05BC5: B0 08    BCS $08
PRG:05BC7: A5 9F    LDA $9F
PRG:05BC9: 10 04    BPL $04
PRG:05BCB: A9 01    LDA $01
PRG:05BCD: 85 9F    STA $9F
PRG:05BCF: AD AF 04 LDA $04AF
PRG:05BD2: 38       SEC
PRG:05BD3: F9 AD 04 SBC $04AD
PRG:05BD6: C9 06    CMP $06
PRG:05BD8: B0 1B    BCS $1B
PRG:05BDA: A5 9F    LDA $9F
PRG:05BDC: 30 17    BMI $17
PRG:05BDE: A5 00    LDA $00
PRG:05BE0: B4 16    LDY $16
PRG:05BE2: C0 2B    CPY $2B
PRG:05BE4: F0 05    BEQ $05
PRG:05BE6: C0 2C    CPY $2C
PRG:05BE8: F0 01    BEQ $01
PRG:05BEA: 8A       TXA
PRG:05BEB: A6 08    LDX $08
PRG:05BED: 9D A2 03 STA $03A2
PRG:05BF0: A9 00    LDA $00
PRG:05BF2: 85 1D    STA $1D
PRG:05BF4: 60       RTS
PRG:05BF5: A9 01    LDA $01
PRG:05BF7: 85 00    STA $00
PRG:05BF9: AD AE 04 LDA $04AE
PRG:05BFC: 38       SEC
PRG:05BFD: F9 AC 04 SBC $04AC
PRG:05C00: C9 08    CMP $08
PRG:05C02: 90 0D    BCC $0D
PRG:05C04: E6 00    INC $00
PRG:05C06: B9 AE 04 LDA $04AE
PRG:05C09: 18       CLC
PRG:05C0A: ED AC 04 SBC $04AC
PRG:05C0D: C9 09    CMP $09
PRG:05C0F: B0 03    BCS $03
PRG:05C11: 20 4B DF JSR $DF4B
PRG:05C14: A6 08    LDX $08
PRG:05C16: 60       RTS
PRG:05C17: 80 00    NOP $00
PRG:05C19: A8       TAY
PRG:05C1A: B5 CF    LDA $CF
PRG:05C1C: 18       CLC
PRG:05C1D: 79 16 DC ADC $DC16
PRG:05C20: 2C B5 CF BIT $CFB5
PRG:05C23: A4 0E    LDY $0E
PRG:05C25: C0 0B    CPY $0B
PRG:05C27: F0 17    BEQ $17
PRG:05C29: B4 B6    LDY $B6
PRG:05C2B: C0 01    CPY $01
PRG:05C2D: D0 11    BNE $11
PRG:05C2F: 38       SEC
PRG:05C30: E9 20    SBC $20
PRG:05C32: 85 CE    STA $CE
PRG:05C34: 98       TYA
PRG:05C35: E9 00    SBC $00
PRG:05C37: 85 B5    STA $B5
PRG:05C39: A9 00    LDA $00
PRG:05C3B: 85 9F    STA $9F
PRG:05C3D: 8D 33 04 STA $0433
PRG:05C40: 60       RTS
PRG:05C41: AD D0 03 LDA $03D0
PRG:05C44: C9 F0    CMP $F0
PRG:05C46: B0 09    BCS $09
PRG:05C48: A4 B5    LDY $B5
PRG:05C4A: 88       DEY
PRG:05C4B: D0 04    BNE $04
PRG:05C4D: A5 CE    LDA $CE
PRG:05C4F: C9 D0    CMP $D0
PRG:05C51: 60       RTS
PRG:05C52: A5 08    LDA $08
PRG:05C54: 0A       ASL
PRG:05C55: 0A       ASL
PRG:05C56: 18       CLC
PRG:05C57: 69 04    ADC $04
PRG:05C59: A8       TAY
PRG:05C5A: AD D1 03 LDA $03D1
PRG:05C5D: 29 0F    AND $0F
PRG:05C5F: C9 0F    CMP $0F
PRG:05C61: 60       RTS
PRG:05C62: 20 10 AD JSR $AD10
PRG:05C65: 16 07    ASL $07
PRG:05C67: D0 2E    BNE $2E
PRG:05C69: A5 0E    LDA $0E
PRG:05C6B: C9 0B    CMP $0B
PRG:05C6D: F0 28    BEQ $28
PRG:05C6F: C9 04    CMP $04
PRG:05C71: 90 24    BCC $24
PRG:05C73: A9 01    LDA $01
PRG:05C75: AC 04 07 LDY $0704
PRG:05C78: D0 0A    BNE $0A
PRG:05C7A: A5 1D    LDA $1D
PRG:05C7C: F0 04    BEQ $04
PRG:05C7E: C9 03    CMP $03
PRG:05C80: D0 04    BNE $04
PRG:05C82: A9 02    LDA $02
PRG:05C84: 85 1D    STA $1D
PRG:05C86: A5 B5    LDA $B5
PRG:05C88: C9 01    CMP $01
PRG:05C8A: D0 0B    BNE $0B
PRG:05C8C: A9 FF    LDA $FF
PRG:05C8E: 8D 90 04 STA $0490
PRG:05C91: A5 CE    LDA $CE
PRG:05C93: C9 CF    CMP $CF
PRG:05C95: 90 01    BCC $01
PRG:05C97: 60       RTS
PRG:05C98: A0 02    LDY $02
PRG:05C9A: AD 14 07 LDA $0714
PRG:05C9D: D0 0C    BNE $0C
PRG:05C9F: AD 54 07 LDA $0754
PRG:05CA2: D0 07    BNE $07
PRG:05CA4: 88       DEY
PRG:05CA5: AD 04 07 LDA $0704
PRG:05CA8: D0 01    BNE $01
PRG:05CAA: 88       DEY
PRG:05CAB: B9 AD E3 LDA $E3AD
PRG:05CAE: 85 EB    STA $EB
PRG:05CB0: A8       TAY
PRG:05CB1: AE 54 07 LDX $0754
PRG:05CB4: AD 14 07 LDA $0714
PRG:05CB7: F0 01    BEQ $01
PRG:05CB9: E8       INX
PRG:05CBA: A5 CE    LDA $CE
PRG:05CBC: DD 62 DC CMP $DC62
PRG:05CBF: 90 35    BCC $35
PRG:05CC1: 20 E9 E3 JSR $E3E9
PRG:05CC4: F0 30    BEQ $30
PRG:05CC6: 20 A1 DF JSR $DFA1
PRG:05CC9: B0 4F    BCS $4F
PRG:05CCB: A4 9F    LDY $9F
PRG:05CCD: 10 27    BPL $27
PRG:05CCF: A4 04    LDY $04
PRG:05CD1: C0 04    CPY $04
PRG:05CD3: 90 21    BCC $21
PRG:05CD5: 20 8F DF JSR $DF8F
PRG:05CD8: B0 10    BCS $10
PRG:05CDA: AC 4E 07 LDY $074E
PRG:05CDD: F0 13    BEQ $13
PRG:05CDF: AC 84 07 LDY $0784
PRG:05CE2: D0 0E    BNE $0E
PRG:05CE4: 20 ED BC JSR $BCED
PRG:05CE7: 4C F6 DC JMP $DCF6
PRG:05CEA: C9 26    CMP $26
PRG:05CEC: F0 04    BEQ $04
PRG:05CEE: A9 02    LDA $02
PRG:05CF0: 85 FF    STA $FF
PRG:05CF2: A9 01    LDA $01
PRG:05CF4: 85 9F    STA $9F
PRG:05CF6: A4 EB    LDY $EB
PRG:05CF8: A5 CE    LDA $CE
PRG:05CFA: C9 CF    CMP $CF
PRG:05CFC: B0 60    BCS $60
PRG:05CFE: 20 E8 E3 JSR $E3E8
PRG:05D01: 20 A1 DF JSR $DFA1
PRG:05D04: B0 14    BCS $14
PRG:05D06: 48       PHA
PRG:05D07: 20 E8 E3 JSR $E3E8
PRG:05D0A: 85 00    STA $00
PRG:05D0C: 68       PLA
PRG:05D0D: 85 01    STA $01
PRG:05D0F: D0 0C    BNE $0C
PRG:05D11: A5 00    LDA $00
PRG:05D13: F0 49    BEQ $49
PRG:05D15: 20 A1 DF JSR $DFA1
PRG:05D18: 90 03    BCC $03
PRG:05D1A: 4C 05 DE JMP $DE05
PRG:05D1D: 20 9A DF JSR $DF9A
PRG:05D20: B0 3C    BCS $3C
PRG:05D22: A4 9F    LDY $9F
PRG:05D24: 30 38    BMI $38
PRG:05D26: C9 C5    CMP $C5
PRG:05D28: D0 03    BNE $03
PRG:05D2A: 4C 0E DE JMP $DE0E
PRG:05D2D: 20 BD DE JSR $DEBD
PRG:05D30: F0 2C    BEQ $2C
PRG:05D32: AC 0E 07 LDY $070E
PRG:05D35: D0 23    BNE $23
PRG:05D37: A4 04    LDY $04
PRG:05D39: C0 05    CPY $05
PRG:05D3B: 90 07    BCC $07
PRG:05D3D: A5 45    LDA $45
PRG:05D3F: 85 00    STA $00
PRG:05D41: 4C 4B DF JMP $DF4B
PRG:05D44: 20 C4 DE JSR $DEC4
PRG:05D47: A9 F0    LDA $F0
PRG:05D49: 25 CE    AND $CE
PRG:05D4B: 85 CE    STA $CE
PRG:05D4D: 20 E8 DE JSR $DEE8
PRG:05D50: A9 00    LDA $00
PRG:05D52: 85 9F    STA $9F
PRG:05D54: 8D 33 04 STA $0433
PRG:05D57: 8D 84 04 STA $0484
PRG:05D5A: A9 00    LDA $00
PRG:05D5C: 85 1D    STA $1D
PRG:05D5E: A4 EB    LDY $EB
PRG:05D60: C8       INY
PRG:05D61: C8       INY
PRG:05D62: A9 02    LDA $02
PRG:05D64: 85 00    STA $00
PRG:05D66: C8       INY
PRG:05D67: 84 EB    STY $EB
PRG:05D69: A5 CE    LDA $CE
PRG:05D6B: C9 20    CMP $20
PRG:05D6D: 90 16    BCC $16
PRG:05D6F: C9 E4    CMP $E4
PRG:05D71: B0 28    BCS $28
PRG:05D73: 20 EC E3 JSR $E3EC
PRG:05D76: F0 0D    BEQ $0D
PRG:05D78: C9 1C    CMP $1C
PRG:05D7A: F0 09    BEQ $09
PRG:05D7C: C9 6B    CMP $6B
PRG:05D7E: F0 05    BEQ $05
PRG:05D80: 20 9A DF JSR $DF9A
PRG:05D83: 90 17    BCC $17
PRG:05D85: A4 EB    LDY $EB
PRG:05D87: C8       INY
PRG:05D88: A5 CE    LDA $CE
PRG:05D8A: C9 08    CMP $08
PRG:05D8C: 90 0D    BCC $0D
PRG:05D8E: C9 D0    CMP $D0
PRG:05D90: B0 09    BCS $09
PRG:05D92: 20 EC E3 JSR $E3EC
PRG:05D95: D0 05    BNE $05
PRG:05D97: C6 00    DEC $00
PRG:05D99: D0 CB    BNE $CB
PRG:05D9B: 60       RTS
PRG:05D9C: 20 BD DE JSR $DEBD
PRG:05D9F: F0 61    BEQ $61
PRG:05DA1: 20 9A DF JSR $DF9A
PRG:05DA4: 90 03    BCC $03
PRG:05DA6: 4C 2E DE JMP $DE2E
PRG:05DA9: 20 A1 DF JSR $DFA1
PRG:05DAC: B0 57    BCS $57
PRG:05DAE: 20 DD DE JSR $DEDD
PRG:05DB1: 90 08    BCC $08
PRG:05DB3: AD 0E 07 LDA $070E
PRG:05DB6: D0 4A    BNE $4A
PRG:05DB8: 4C FF DD JMP $DDFF
PRG:05DBB: A4 1D    LDY $1D
PRG:05DBD: C0 00    CPY $00
PRG:05DBF: D0 3E    BNE $3E
PRG:05DC1: A4 33    LDY $33
PRG:05DC3: 88       DEY
PRG:05DC4: D0 39    BNE $39
PRG:05DC6: C9 6C    CMP $6C
PRG:05DC8: F0 04    BEQ $04
PRG:05DCA: C9 1F    CMP $1F
PRG:05DCC: D0 31    BNE $31
PRG:05DCE: AD C4 03 LDA $03C4
PRG:05DD1: D0 04    BNE $04
PRG:05DD3: A0 10    LDY $10
PRG:05DD5: 84 FF    STY $FF
PRG:05DD7: 09 20    ORA $20
PRG:05DD9: 8D C4 03 STA $03C4
PRG:05DDC: A5 86    LDA $86
PRG:05DDE: 29 0F    AND $0F
PRG:05DE0: F0 0E    BEQ $0E
PRG:05DE2: A0 00    LDY $00
PRG:05DE4: AD 1A 07 LDA $071A
PRG:05DE7: F0 01    BEQ $01
PRG:05DE9: C8       INY
PRG:05DEA: B9 03 DE LDA $DE03
PRG:05DED: 8D DE 06 STA $06DE
PRG:05DF0: A5 0E    LDA $0E
PRG:05DF2: C9 07    CMP $07
PRG:05DF4: F0 0C    BEQ $0C
PRG:05DF6: C9 08    CMP $08
PRG:05DF8: D0 08    BNE $08
PRG:05DFA: A9 02    LDA $02
PRG:05DFC: 85 0E    STA $0E
PRG:05DFE: 60       RTS
PRG:05DFF: 20 4B DF JSR $DF4B
PRG:05E02: 60       RTS
PRG:05E03: A0 34    LDY $34
PRG:05E05: 20 1C DE JSR $DE1C
PRG:05E08: EE 48 07 INC $0748
PRG:05E0B: 4C FE BB JMP $BBFE
PRG:05E0E: A9 00    LDA $00
PRG:05E10: 8D 72 07 STA $0772
PRG:05E13: A9 02    LDA $02
PRG:05E15: 8D 70 07 STA $0770
PRG:05E18: A9 18    LDA $18
PRG:05E1A: 85 57    STA $57
PRG:05E1C: A4 02    LDY $02
PRG:05E1E: A9 00    LDA $00
PRG:05E20: 91 06    STA $06
PRG:05E22: 4C 4D 8A JMP $8A4D
PRG:05E25: F9 07 FF SBC $FF07
PRG:05E28: 00 18    BRK $18
PRG:05E2A: 22       .byte $22
PRG:05E2B: 50 68    BVC $68
PRG:05E2D: 90 A4    BCC $A4
PRG:05E2F: 04 C0    NOP $C0
PRG:05E31: 06 90    ASL $90
PRG:05E33: 04 C0    NOP $C0
PRG:05E35: 0A       ASL
PRG:05E36: 90 01    BCC $01
PRG:05E38: 60       RTS
PRG:05E39: C9 24    CMP $24
PRG:05E3B: F0 04    BEQ $04
PRG:05E3D: C9 25    CMP $25
PRG:05E3F: D0 39    BNE $39
PRG:05E41: A5 0E    LDA $0E
PRG:05E43: C9 05    CMP $05
PRG:05E45: F0 41    BEQ $41
PRG:05E47: A9 01    LDA $01
PRG:05E49: 85 33    STA $33
PRG:05E4B: EE 23 07 INC $0723
PRG:05E4E: A5 0E    LDA $0E
PRG:05E50: C9 04    CMP $04
PRG:05E52: F0 1F    BEQ $1F
PRG:05E54: A9 33    LDA $33
PRG:05E56: 20 16 97 JSR $9716
PRG:05E59: A9 80    LDA $80
PRG:05E5B: 85 FC    STA $FC
PRG:05E5D: 4A       LSR
PRG:05E5E: 8D 13 07 STA $0713
PRG:05E61: A2 04    LDX $04
PRG:05E63: A5 CE    LDA $CE
PRG:05E65: 8D 0F 07 STA $070F
PRG:05E68: DD 29 DE CMP $DE29
PRG:05E6B: B0 03    BCS $03
PRG:05E6D: CA       DEX
PRG:05E6E: D0 F8    BNE $F8
PRG:05E70: 8E 0F 01 STX $010F
PRG:05E73: A9 04    LDA $04
PRG:05E75: 85 0E    STA $0E
PRG:05E77: 4C 88 DE JMP $DE88
PRG:05E7A: C9 26    CMP $26
PRG:05E7C: D0 0A    BNE $0A
PRG:05E7E: A5 CE    LDA $CE
PRG:05E80: C9 20    CMP $20
PRG:05E82: B0 04    BCS $04
PRG:05E84: A9 01    LDA $01
PRG:05E86: 85 0E    STA $0E
PRG:05E88: A9 03    LDA $03
PRG:05E8A: 85 1D    STA $1D
PRG:05E8C: A9 00    LDA $00
PRG:05E8E: 85 57    STA $57
PRG:05E90: 8D 05 07 STA $0705
PRG:05E93: A5 86    LDA $86
PRG:05E95: 38       SEC
PRG:05E96: ED 1C 07 SBC $071C
PRG:05E99: C9 10    CMP $10
PRG:05E9B: B0 04    BCS $04
PRG:05E9D: A9 02    LDA $02
PRG:05E9F: 85 33    STA $33
PRG:05EA1: A4 33    LDY $33
PRG:05EA3: A5 06    LDA $06
PRG:05EA5: 0A       ASL
PRG:05EA6: 0A       ASL
PRG:05EA7: 0A       ASL
PRG:05EA8: 0A       ASL
PRG:05EA9: 18       CLC
PRG:05EAA: 79 24 DE ADC $DE24
PRG:05EAD: 85 86    STA $86
PRG:05EAF: A5 06    LDA $06
PRG:05EB1: D0 09    BNE $09
PRG:05EB3: AD 1B 07 LDA $071B
PRG:05EB6: 18       CLC
PRG:05EB7: 79 26 DE ADC $DE26
PRG:05EBA: 85 6D    STA $6D
PRG:05EBC: 60       RTS
PRG:05EBD: C9 5F    CMP $5F
PRG:05EBF: F0 02    BEQ $02
PRG:05EC1: C9 60    CMP $60
PRG:05EC3: 60       RTS
PRG:05EC4: 20 DD DE JSR $DEDD
PRG:05EC7: 90 13    BCC $13
PRG:05EC9: A9 70    LDA $70
PRG:05ECB: 8D 09 07 STA $0709
PRG:05ECE: A9 F9    LDA $F9
PRG:05ED0: 8D DB 06 STA $06DB
PRG:05ED3: A9 03    LDA $03
PRG:05ED5: 8D 86 07 STA $0786
PRG:05ED8: 4A       LSR
PRG:05ED9: 8D 0E 07 STA $070E
PRG:05EDC: 60       RTS
PRG:05EDD: C9 67    CMP $67
PRG:05EDF: F0 05    BEQ $05
PRG:05EE1: C9 68    CMP $68
PRG:05EE3: 18       CLC
PRG:05EE4: D0 01    BNE $01
PRG:05EE6: 38       SEC
PRG:05EE7: 60       RTS
PRG:05EE8: A5 0B    LDA $0B
PRG:05EEA: 29 04    AND $04
PRG:05EEC: F0 5C    BEQ $5C
PRG:05EEE: A5 00    LDA $00
PRG:05EF0: C9 11    CMP $11
PRG:05EF2: D0 56    BNE $56
PRG:05EF4: A5 01    LDA $01
PRG:05EF6: C9 10    CMP $10
PRG:05EF8: D0 50    BNE $50
PRG:05EFA: A9 30    LDA $30
PRG:05EFC: 8D DE 06 STA $06DE
PRG:05EFF: A9 03    LDA $03
PRG:05F01: 85 0E    STA $0E
PRG:05F03: A9 10    LDA $10
PRG:05F05: 85 FF    STA $FF
PRG:05F07: A9 20    LDA $20
PRG:05F09: 8D C4 03 STA $03C4
PRG:05F0C: AD D6 06 LDA $06D6
PRG:05F0F: F0 39    BEQ $39
PRG:05F11: 29 03    AND $03
PRG:05F13: 0A       ASL
PRG:05F14: 0A       ASL
PRG:05F15: AA       TAX
PRG:05F16: A5 86    LDA $86
PRG:05F18: C9 60    CMP $60
PRG:05F1A: 90 06    BCC $06
PRG:05F1C: E8       INX
PRG:05F1D: C9 A0    CMP $A0
PRG:05F1F: 90 01    BCC $01
PRG:05F21: E8       INX
PRG:05F22: BC F2 87 LDY $87F2
PRG:05F25: 88       DEY
PRG:05F26: 8C 5F 07 STY $075F
PRG:05F29: BE B4 9C LDX $9CB4
PRG:05F2C: BD BC 9C LDA $9CBC
PRG:05F2F: 8D 50 07 STA $0750
PRG:05F32: A9 80    LDA $80
PRG:05F34: 85 FC    STA $FC
PRG:05F36: A9 00    LDA $00
PRG:05F38: 8D 51 07 STA $0751
PRG:05F3B: 8D 60 07 STA $0760
PRG:05F3E: 8D 5C 07 STA $075C
PRG:05F41: 8D 52 07 STA $0752
PRG:05F44: EE 5D 07 INC $075D
PRG:05F47: EE 57 07 INC $0757
PRG:05F4A: 60       RTS
PRG:05F4B: A9 00    LDA $00
PRG:05F4D: A4 57    LDY $57
PRG:05F4F: A6 00    LDX $00
PRG:05F51: CA       DEX
PRG:05F52: D0 0A    BNE $0A
PRG:05F54: E8       INX
PRG:05F55: C0 00    CPY $00
PRG:05F57: 30 28    BMI $28
PRG:05F59: A9 FF    LDA $FF
PRG:05F5B: 4C 66 DF JMP $DF66
PRG:05F5E: A2 02    LDX $02
PRG:05F60: C0 01    CPY $01
PRG:05F62: 10 1D    BPL $1D
PRG:05F64: A9 01    LDA $01
PRG:05F66: A0 10    LDY $10
PRG:05F68: 8C 85 07 STY $0785
PRG:05F6B: A0 00    LDY $00
PRG:05F6D: 84 57    STY $57
PRG:05F6F: C9 00    CMP $00
PRG:05F71: 10 01    BPL $01
PRG:05F73: 88       DEY
PRG:05F74: 84 00    STY $00
PRG:05F76: 18       CLC
PRG:05F77: 65 86    ADC $86
PRG:05F79: 85 86    STA $86
PRG:05F7B: A5 6D    LDA $6D
PRG:05F7D: 65 00    ADC $00
PRG:05F7F: 85 6D    STA $6D
PRG:05F81: 8A       TXA
PRG:05F82: 49 FF    EOR $FF
PRG:05F84: 2D 90 04 AND $0490
PRG:05F87: 8D 90 04 STA $0490
PRG:05F8A: 60       RTS
PRG:05F8B: 10 61    BPL $61
PRG:05F8D: 88       DEY
PRG:05F8E: C4 20    CPY $20
PRG:05F90: B0 DF    BCS $DF
PRG:05F92: DD 8B DF CMP $DF8B
PRG:05F95: 60       RTS
PRG:05F96: 24 6D    BIT $6D
PRG:05F98: 8A       TXA
PRG:05F99: C6 20    DEC $20
PRG:05F9B: B0 DF    BCS $DF
PRG:05F9D: DD 96 DF CMP $DF96
PRG:05FA0: 60       RTS
PRG:05FA1: C9 C2    CMP $C2
PRG:05FA3: F0 06    BEQ $06
PRG:05FA5: C9 C3    CMP $C3
PRG:05FA7: F0 02    BEQ $02
PRG:05FA9: 18       CLC
PRG:05FAA: 60       RTS
PRG:05FAB: A9 01    LDA $01
PRG:05FAD: 85 FE    STA $FE
PRG:05FAF: 60       RTS
PRG:05FB0: A8       TAY
PRG:05FB1: 29 C0    AND $C0
PRG:05FB3: 0A       ASL
PRG:05FB4: 2A       ROL
PRG:05FB5: 2A       ROL
PRG:05FB6: AA       TAX
PRG:05FB7: 98       TYA
PRG:05FB8: 60       RTS
PRG:05FB9: 01 01    ORA $01
PRG:05FBB: 02       .byte $02
PRG:05FBC: 02       .byte $02
PRG:05FBD: 02       .byte $02
PRG:05FBE: 05 10    ORA $10
PRG:05FC0: F0 B5    BEQ $B5
PRG:05FC2: 1E 29 20 ASL $2029
PRG:05FC5: D0 F1    BNE $F1
PRG:05FC7: 20 5B E1 JSR $E15B
PRG:05FCA: 90 EC    BCC $EC
PRG:05FCC: B4 16    LDY $16
PRG:05FCE: C0 12    CPY $12
PRG:05FD0: D0 06    BNE $06
PRG:05FD2: B5 CF    LDA $CF
PRG:05FD4: C9 25    CMP $25
PRG:05FD6: 90 E0    BCC $E0
PRG:05FD8: C0 0E    CPY $0E
PRG:05FDA: D0 03    BNE $03
PRG:05FDC: 4C 63 E1 JMP $E163
PRG:05FDF: C0 05    CPY $05
PRG:05FE1: D0 03    BNE $03
PRG:05FE3: 4C 85 E1 JMP $E185
PRG:05FE6: C0 12    CPY $12
PRG:05FE8: F0 08    BEQ $08
PRG:05FEA: C0 2E    CPY $2E
PRG:05FEC: F0 04    BEQ $04
PRG:05FEE: C0 07    CPY $07
PRG:05FF0: B0 74    BCS $74
PRG:05FF2: 20 AE E1 JSR $E1AE
PRG:05FF5: D0 03    BNE $03
PRG:05FF7: 4C E2 E0 JMP $E0E2
PRG:05FFA: 20 B5 E1 JSR $E1B5
PRG:05FFD: F0 F8    BEQ $F8
PRG:05FFF: C9 23    CMP $23
PRG:06001: D0 64    BNE $64
PRG:06003: A4 02    LDY $02
PRG:06005: A9 00    LDA $00
PRG:06007: 91 06    STA $06
PRG:06009: B5 16    LDA $16
PRG:0600B: C9 15    CMP $15
PRG:0600D: B0 0C    BCS $0C
PRG:0600F: C9 06    CMP $06
PRG:06011: D0 03    BNE $03
PRG:06013: 20 8E E1 JSR $E18E
PRG:06016: A9 01    LDA $01
PRG:06018: 20 11 DA JSR $DA11
PRG:0601B: C9 09    CMP $09
PRG:0601D: 90 10    BCC $10
PRG:0601F: C9 11    CMP $11
PRG:06021: B0 0C    BCS $0C
PRG:06023: C9 0A    CMP $0A
PRG:06025: 90 04    BCC $04
PRG:06027: C9 0D    CMP $0D
PRG:06029: 90 04    BCC $04
PRG:0602B: 29 01    AND $01
PRG:0602D: 95 16    STA $16
PRG:0602F: B5 1E    LDA $1E
PRG:06031: 29 F0    AND $F0
PRG:06033: 09 02    ORA $02
PRG:06035: 95 1E    STA $1E
PRG:06037: D6 CF    DEC $CF
PRG:06039: D6 CF    DEC $CF
PRG:0603B: B5 16    LDA $16
PRG:0603D: C9 07    CMP $07
PRG:0603F: F0 07    BEQ $07
PRG:06041: A9 FD    LDA $FD
PRG:06043: AC 4E 07 LDY $074E
PRG:06046: D0 02    BNE $02
PRG:06048: A9 FF    LDA $FF
PRG:0604A: 95 A0    STA $A0
PRG:0604C: A0 01    LDY $01
PRG:0604E: 20 43 E1 JSR $E143
PRG:06051: 10 01    BPL $01
PRG:06053: C8       INY
PRG:06054: B5 16    LDA $16
PRG:06056: C9 33    CMP $33
PRG:06058: F0 06    BEQ $06
PRG:0605A: C9 08    CMP $08
PRG:0605C: F0 02    BEQ $02
PRG:0605E: 94 46    STY $46
PRG:06060: 88       DEY
PRG:06061: B9 BF DF LDA $DFBF
PRG:06064: 95 58    STA $58
PRG:06066: 60       RTS
PRG:06067: A5 04    LDA $04
PRG:06069: 38       SEC
PRG:0606A: E9 08    SBC $08
PRG:0606C: C9 05    CMP $05
PRG:0606E: B0 72    BCS $72
PRG:06070: B5 1E    LDA $1E
PRG:06072: 29 40    AND $40
PRG:06074: D0 57    BNE $57
PRG:06076: B5 1E    LDA $1E
PRG:06078: 0A       ASL
PRG:06079: 90 03    BCC $03
PRG:0607B: 4C FE E0 JMP $E0FE
PRG:0607E: B5 1E    LDA $1E
PRG:06080: F0 F9    BEQ $F9
PRG:06082: C9 05    CMP $05
PRG:06084: F0 1F    BEQ $1F
PRG:06086: C9 03    CMP $03
PRG:06088: B0 1A    BCS $1A
PRG:0608A: B5 1E    LDA $1E
PRG:0608C: C9 02    CMP $02
PRG:0608E: D0 15    BNE $15
PRG:06090: A9 10    LDA $10
PRG:06092: B4 16    LDY $16
PRG:06094: C0 12    CPY $12
PRG:06096: D0 02    BNE $02
PRG:06098: A9 00    LDA $00
PRG:0609A: 9D 96 07 STA $0796
PRG:0609D: A9 03    LDA $03
PRG:0609F: 95 1E    STA $1E
PRG:060A1: 20 4F E1 JSR $E14F
PRG:060A4: 60       RTS
PRG:060A5: B5 16    LDA $16
PRG:060A7: C9 06    CMP $06
PRG:060A9: F0 22    BEQ $22
PRG:060AB: C9 12    CMP $12
PRG:060AD: D0 0E    BNE $0E
PRG:060AF: A9 01    LDA $01
PRG:060B1: 95 46    STA $46
PRG:060B3: A9 08    LDA $08
PRG:060B5: 95 58    STA $58
PRG:060B7: A5 09    LDA $09
PRG:060B9: 29 07    AND $07
PRG:060BB: F0 10    BEQ $10
PRG:060BD: A0 01    LDY $01
PRG:060BF: 20 43 E1 JSR $E143
PRG:060C2: 10 01    BPL $01
PRG:060C4: C8       INY
PRG:060C5: 98       TYA
PRG:060C6: D5 46    CMP $46
PRG:060C8: D0 03    BNE $03
PRG:060CA: 20 24 E1 JSR $E124
PRG:060CD: 20 4F E1 JSR $E14F
PRG:060D0: B5 1E    LDA $1E
PRG:060D2: 29 80    AND $80
PRG:060D4: D0 05    BNE $05
PRG:060D6: A9 00    LDA $00
PRG:060D8: 95 1E    STA $1E
PRG:060DA: 60       RTS
PRG:060DB: B5 1E    LDA $1E
PRG:060DD: 29 BF    AND $BF
PRG:060DF: 95 1E    STA $1E
PRG:060E1: 60       RTS
PRG:060E2: B5 16    LDA $16
PRG:060E4: C9 03    CMP $03
PRG:060E6: D0 04    BNE $04
PRG:060E8: B5 1E    LDA $1E
PRG:060EA: F0 38    BEQ $38
PRG:060EC: B5 1E    LDA $1E
PRG:060EE: A8       TAY
PRG:060EF: 0A       ASL
PRG:060F0: 90 07    BCC $07
PRG:060F2: B5 1E    LDA $1E
PRG:060F4: 09 40    ORA $40
PRG:060F6: 4C FC E0 JMP $E0FC
PRG:060F9: B9 B9 DF LDA $DFB9
PRG:060FC: 95 1E    STA $1E
PRG:060FE: B5 CF    LDA $CF
PRG:06100: C9 20    CMP $20
PRG:06102: 90 1F    BCC $1F
PRG:06104: A0 16    LDY $16
PRG:06106: A9 02    LDA $02
PRG:06108: 85 EB    STA $EB
PRG:0610A: A5 EB    LDA $EB
PRG:0610C: D5 46    CMP $46
PRG:0610E: D0 0C    BNE $0C
PRG:06110: A9 01    LDA $01
PRG:06112: 20 88 E3 JSR $E388
PRG:06115: F0 05    BEQ $05
PRG:06117: 20 B5 E1 JSR $E1B5
PRG:0611A: D0 08    BNE $08
PRG:0611C: C6 EB    DEC $EB
PRG:0611E: C8       INY
PRG:0611F: C0 18    CPY $18
PRG:06121: 90 E7    BCC $E7
PRG:06123: 60       RTS
PRG:06124: E0 05    CPX $05
PRG:06126: F0 09    BEQ $09
PRG:06128: B5 1E    LDA $1E
PRG:0612A: 0A       ASL
PRG:0612B: 90 04    BCC $04
PRG:0612D: A9 02    LDA $02
PRG:0612F: 85 FF    STA $FF
PRG:06131: B5 16    LDA $16
PRG:06133: C9 05    CMP $05
PRG:06135: D0 09    BNE $09
PRG:06137: A9 00    LDA $00
PRG:06139: 85 00    STA $00
PRG:0613B: A0 FA    LDY $FA
PRG:0613D: 4C 37 CA JMP $CA37
PRG:06140: 4C 36 DB JMP $DB36
PRG:06143: B5 87    LDA $87
PRG:06145: 38       SEC
PRG:06146: E5 86    SBC $86
PRG:06148: 85 00    STA $00
PRG:0614A: B5 6E    LDA $6E
PRG:0614C: E5 6D    SBC $6D
PRG:0614E: 60       RTS
PRG:0614F: 20 63 C3 JSR $C363
PRG:06152: B5 CF    LDA $CF
PRG:06154: 29 F0    AND $F0
PRG:06156: 09 08    ORA $08
PRG:06158: 95 CF    STA $CF
PRG:0615A: 60       RTS
PRG:0615B: B5 CF    LDA $CF
PRG:0615D: 18       CLC
PRG:0615E: 69 3E    ADC $3E
PRG:06160: C9 44    CMP $44
PRG:06162: 60       RTS
PRG:06163: 20 5B E1 JSR $E15B
PRG:06166: 90 1A    BCC $1A
PRG:06168: B5 A0    LDA $A0
PRG:0616A: 18       CLC
PRG:0616B: 69 02    ADC $02
PRG:0616D: C9 03    CMP $03
PRG:0616F: 90 11    BCC $11
PRG:06171: 20 AE E1 JSR $E1AE
PRG:06174: F0 0C    BEQ $0C
PRG:06176: 20 B5 E1 JSR $E1B5
PRG:06179: F0 07    BEQ $07
PRG:0617B: 20 4F E1 JSR $E14F
PRG:0617E: A9 FD    LDA $FD
PRG:06180: 95 A0    STA $A0
PRG:06182: 4C FE E0 JMP $E0FE
PRG:06185: 20 AE E1 JSR $E1AE
PRG:06188: F0 1D    BEQ $1D
PRG:0618A: C9 23    CMP $23
PRG:0618C: D0 08    BNE $08
PRG:0618E: 20 95 D7 JSR $D795
PRG:06191: A9 FC    LDA $FC
PRG:06193: 95 A0    STA $A0
PRG:06195: 60       RTS
PRG:06196: BD 8A 07 LDA $078A
PRG:06199: D0 0C    BNE $0C
PRG:0619B: B5 1E    LDA $1E
PRG:0619D: 29 88    AND $88
PRG:0619F: 95 1E    STA $1E
PRG:061A1: 20 4F E1 JSR $E14F
PRG:061A4: 4C FE E0 JMP $E0FE
PRG:061A7: B5 1E    LDA $1E
PRG:061A9: 09 01    ORA $01
PRG:061AB: 95 1E    STA $1E
PRG:061AD: 60       RTS
PRG:061AE: A9 00    LDA $00
PRG:061B0: A0 15    LDY $15
PRG:061B2: 4C 88 E3 JMP $E388
PRG:061B5: C9 26    CMP $26
PRG:061B7: F0 0E    BEQ $0E
PRG:061B9: C9 C2    CMP $C2
PRG:061BB: F0 0A    BEQ $0A
PRG:061BD: C9 C3    CMP $C3
PRG:061BF: F0 06    BEQ $06
PRG:061C1: C9 5F    CMP $5F
PRG:061C3: F0 02    BEQ $02
PRG:061C5: C9 60    CMP $60
PRG:061C7: 60       RTS
PRG:061C8: B5 D5    LDA $D5
PRG:061CA: C9 18    CMP $18
PRG:061CC: 90 21    BCC $21
PRG:061CE: 20 9C E3 JSR $E39C
PRG:061D1: F0 1C    BEQ $1C
PRG:061D3: 20 B5 E1 JSR $E1B5
PRG:061D6: F0 17    BEQ $17
PRG:061D8: B5 A6    LDA $A6
PRG:061DA: 30 18    BMI $18
PRG:061DC: B5 3A    LDA $3A
PRG:061DE: D0 14    BNE $14
PRG:061E0: A9 FD    LDA $FD
PRG:061E2: 95 A6    STA $A6
PRG:061E4: A9 01    LDA $01
PRG:061E6: 95 3A    STA $3A
PRG:061E8: B5 D5    LDA $D5
PRG:061EA: 29 F8    AND $F8
PRG:061EC: 95 D5    STA $D5
PRG:061EE: 60       RTS
PRG:061EF: A9 00    LDA $00
PRG:061F1: 95 3A    STA $3A
PRG:061F3: 60       RTS
PRG:061F4: A9 80    LDA $80
PRG:061F6: 95 24    STA $24
PRG:061F8: A9 02    LDA $02
PRG:061FA: 85 FF    STA $FF
PRG:061FC: 60       RTS
PRG:061FD: 02       .byte $02
PRG:061FE: 08       PHP
PRG:061FF: 0E 20 03 ASL $0320
PRG:06202: 14 0D    NOP $0D
PRG:06204: 20 02 14 JSR $1402
PRG:06207: 0E 20 02 ASL $0220
PRG:0620A: 09 0E    ORA $0E
PRG:0620C: 15 00    ORA $00
PRG:0620E: 00 18    BRK $18
PRG:06210: 06 00    ASL $00
PRG:06212: 00 20    BRK $20
PRG:06214: 0D 00 00 ORA $0000
PRG:06217: 30 0D    BMI $0D
PRG:06219: 00 00    BRK $00
PRG:0621B: 08       PHP
PRG:0621C: 08       PHP
PRG:0621D: 06 04    ASL $04
PRG:0621F: 0A       ASL
PRG:06220: 08       PHP
PRG:06221: 03       .byte $03
PRG:06222: 0E 0D 14 ASL $140D
PRG:06225: 00 02    BRK $02
PRG:06227: 10 15    BPL $15
PRG:06229: 04 04    NOP $04
PRG:0622B: 0C 1C 8A NOP $8A1C
PRG:0622E: 18       CLC
PRG:0622F: 69 07    ADC $07
PRG:06231: AA       TAX
PRG:06232: A0 02    LDY $02
PRG:06234: D0 07    BNE $07
PRG:06236: 8A       TXA
PRG:06237: 18       CLC
PRG:06238: 69 09    ADC $09
PRG:0623A: AA       TAX
PRG:0623B: A0 06    LDY $06
PRG:0623D: 20 9C E2 JSR $E29C
PRG:06240: 4C DE E2 JMP $E2DE
PRG:06243: A0 48    LDY $48
PRG:06245: 84 00    STY $00
PRG:06247: A0 44    LDY $44
PRG:06249: 4C 52 E2 JMP $E252
PRG:0624C: A0 08    LDY $08
PRG:0624E: 84 00    STY $00
PRG:06250: A0 04    LDY $04
PRG:06252: B5 87    LDA $87
PRG:06254: 38       SEC
PRG:06255: ED 1C 07 SBC $071C
PRG:06258: 85 01    STA $01
PRG:0625A: B5 6E    LDA $6E
PRG:0625C: ED 1A 07 SBC $071A
PRG:0625F: 30 06    BMI $06
PRG:06261: 05 01    ORA $01
PRG:06263: F0 02    BEQ $02
PRG:06265: A4 00    LDY $00
PRG:06267: 98       TYA
PRG:06268: 2D D1 03 AND $03D1
PRG:0626B: 9D D8 03 STA $03D8
PRG:0626E: D0 19    BNE $19
PRG:06270: 4C 7C E2 JMP $E27C
PRG:06273: E8       INX
PRG:06274: 20 F6 F1 JSR $F1F6
PRG:06277: CA       DEX
PRG:06278: C9 FE    CMP $FE
PRG:0627A: B0 0D    BCS $0D
PRG:0627C: 8A       TXA
PRG:0627D: 18       CLC
PRG:0627E: 69 01    ADC $01
PRG:06280: AA       TAX
PRG:06281: A0 01    LDY $01
PRG:06283: 20 9C E2 JSR $E29C
PRG:06286: 4C DE E2 JMP $E2DE
PRG:06289: 8A       TXA
PRG:0628A: 0A       ASL
PRG:0628B: 0A       ASL
PRG:0628C: A8       TAY
PRG:0628D: A9 FF    LDA $FF
PRG:0628F: 99 B0 04 STA $04B0
PRG:06292: 99 B1 04 STA $04B1
PRG:06295: 99 B2 04 STA $04B2
PRG:06298: 99 B3 04 STA $04B3
PRG:0629B: 60       RTS
PRG:0629C: 86 00    STX $00
PRG:0629E: B9 B8 03 LDA $03B8
PRG:062A1: 85 02    STA $02
PRG:062A3: B9 AD 03 LDA $03AD
PRG:062A6: 85 01    STA $01
PRG:062A8: 8A       TXA
PRG:062A9: 0A       ASL
PRG:062AA: 0A       ASL
PRG:062AB: 48       PHA
PRG:062AC: A8       TAY
PRG:062AD: BD 99 04 LDA $0499
PRG:062B0: 0A       ASL
PRG:062B1: 0A       ASL
PRG:062B2: AA       TAX
PRG:062B3: A5 01    LDA $01
PRG:062B5: 18       CLC
PRG:062B6: 7D FD E1 ADC $E1FD
PRG:062B9: 99 AC 04 STA $04AC
PRG:062BC: A5 01    LDA $01
PRG:062BE: 18       CLC
PRG:062BF: 7D FF E1 ADC $E1FF
PRG:062C2: 99 AE 04 STA $04AE
PRG:062C5: E8       INX
PRG:062C6: C8       INY
PRG:062C7: A5 02    LDA $02
PRG:062C9: 18       CLC
PRG:062CA: 7D FD E1 ADC $E1FD
PRG:062CD: 99 AC 04 STA $04AC
PRG:062D0: A5 02    LDA $02
PRG:062D2: 18       CLC
PRG:062D3: 7D FF E1 ADC $E1FF
PRG:062D6: 99 AE 04 STA $04AE
PRG:062D9: 68       PLA
PRG:062DA: A8       TAY
PRG:062DB: A6 00    LDX $00
PRG:062DD: 60       RTS
PRG:062DE: AD 1C 07 LDA $071C
PRG:062E1: 18       CLC
PRG:062E2: 69 80    ADC $80
PRG:062E4: 85 02    STA $02
PRG:062E6: AD 1A 07 LDA $071A
PRG:062E9: 69 00    ADC $00
PRG:062EB: 85 01    STA $01
PRG:062ED: B5 86    LDA $86
PRG:062EF: C5 02    CMP $02
PRG:062F1: B5 6D    LDA $6D
PRG:062F3: E5 01    SBC $01
PRG:062F5: 90 15    BCC $15
PRG:062F7: B9 AE 04 LDA $04AE
PRG:062FA: 30 0D    BMI $0D
PRG:062FC: A9 FF    LDA $FF
PRG:062FE: BE AC 04 LDX $04AC
PRG:06301: 30 03    BMI $03
PRG:06303: 99 AC 04 STA $04AC
PRG:06306: 99 AE 04 STA $04AE
PRG:06309: A6 08    LDX $08
PRG:0630B: 60       RTS
PRG:0630C: B9 AC 04 LDA $04AC
PRG:0630F: 10 11    BPL $11
PRG:06311: C9 A0    CMP $A0
PRG:06313: 90 0D    BCC $0D
PRG:06315: A9 00    LDA $00
PRG:06317: BE AE 04 LDX $04AE
PRG:0631A: 10 03    BPL $03
PRG:0631C: 99 AE 04 STA $04AE
PRG:0631F: 99 AC 04 STA $04AC
PRG:06322: A6 08    LDX $08
PRG:06324: 60       RTS
PRG:06325: A2 00    LDX $00
PRG:06327: 84 06    STY $06
PRG:06329: A9 01    LDA $01
PRG:0632B: 85 07    STA $07
PRG:0632D: B9 AC 04 LDA $04AC
PRG:06330: DD AC 04 CMP $04AC
PRG:06333: B0 2A    BCS $2A
PRG:06335: DD AE 04 CMP $04AE
PRG:06338: 90 12    BCC $12
PRG:0633A: F0 42    BEQ $42
PRG:0633C: B9 AE 04 LDA $04AE
PRG:0633F: D9 AC 04 CMP $04AC
PRG:06342: 90 3A    BCC $3A
PRG:06344: DD AC 04 CMP $04AC
PRG:06347: B0 35    BCS $35
PRG:06349: A4 06    LDY $06
PRG:0634B: 60       RTS
PRG:0634C: BD AE 04 LDA $04AE
PRG:0634F: DD AC 04 CMP $04AC
PRG:06352: 90 2A    BCC $2A
PRG:06354: B9 AE 04 LDA $04AE
PRG:06357: DD AC 04 CMP $04AC
PRG:0635A: B0 22    BCS $22
PRG:0635C: A4 06    LDY $06
PRG:0635E: 60       RTS
PRG:0635F: DD AC 04 CMP $04AC
PRG:06362: F0 1A    BEQ $1A
PRG:06364: DD AE 04 CMP $04AE
PRG:06367: 90 15    BCC $15
PRG:06369: F0 13    BEQ $13
PRG:0636B: D9 AE 04 CMP $04AE
PRG:0636E: 90 0A    BCC $0A
PRG:06370: F0 08    BEQ $08
PRG:06372: B9 AE 04 LDA $04AE
PRG:06375: DD AC 04 CMP $04AC
PRG:06378: B0 04    BCS $04
PRG:0637A: 18       CLC
PRG:0637B: A4 06    LDY $06
PRG:0637D: 60       RTS
PRG:0637E: E8       INX
PRG:0637F: C8       INY
PRG:06380: C6 07    DEC $07
PRG:06382: 10 A9    BPL $A9
PRG:06384: 38       SEC
PRG:06385: A4 06    LDY $06
PRG:06387: 60       RTS
PRG:06388: 48       PHA
PRG:06389: 8A       TXA
PRG:0638A: 18       CLC
PRG:0638B: 69 01    ADC $01
PRG:0638D: AA       TAX
PRG:0638E: 68       PLA
PRG:0638F: 4C A5 E3 JMP $E3A5
PRG:06392: 8A       TXA
PRG:06393: 18       CLC
PRG:06394: 69 0D    ADC $0D
PRG:06396: AA       TAX
PRG:06397: A0 1B    LDY $1B
PRG:06399: 4C A3 E3 JMP $E3A3
PRG:0639C: A0 1A    LDY $1A
PRG:0639E: 8A       TXA
PRG:0639F: 18       CLC
PRG:063A0: 69 07    ADC $07
PRG:063A2: AA       TAX
PRG:063A3: A9 00    LDA $00
PRG:063A5: 20 F0 E3 JSR $E3F0
PRG:063A8: A6 08    LDX $08
PRG:063AA: C9 00    CMP $00
PRG:063AC: 60       RTS
PRG:063AD: 00 07    BRK $07
PRG:063AF: 0E 08 03 ASL $0308
PRG:063B2: 0C 02 02 NOP $0202
PRG:063B5: 0D 0D 08 ORA $080D
PRG:063B8: 03       .byte $03
PRG:063B9: 0C 02 02 NOP $0202
PRG:063BC: 0D 0D 08 ORA $080D
PRG:063BF: 03       .byte $03
PRG:063C0: 0C 02 02 NOP $0202
PRG:063C3: 0D 0D 08 ORA $080D
PRG:063C6: 00 10    BRK $10
PRG:063C8: 04 14    NOP $14
PRG:063CA: 04 04    NOP $04
PRG:063CC: 04 20    NOP $20
PRG:063CE: 20 08 18 JSR $1808
PRG:063D1: 08       PHP
PRG:063D2: 18       CLC
PRG:063D3: 02       .byte $02
PRG:063D4: 20 20 08 JSR $0820
PRG:063D7: 18       CLC
PRG:063D8: 08       PHP
PRG:063D9: 18       CLC
PRG:063DA: 12       .byte $12
PRG:063DB: 20 20 18 JSR $1820
PRG:063DE: 18       CLC
PRG:063DF: 18       CLC
PRG:063E0: 18       CLC
PRG:063E1: 18       CLC
PRG:063E2: 14 14    NOP $14
PRG:063E4: 06 06    ASL $06
PRG:063E6: 08       PHP
PRG:063E7: 10 C8    BPL $C8
PRG:063E9: A9 00    LDA $00
PRG:063EB: 2C A9 01 BIT $01A9
PRG:063EE: A2 00    LDX $00
PRG:063F0: 48       PHA
PRG:063F1: 84 04    STY $04
PRG:063F3: B9 B0 E3 LDA $E3B0
PRG:063F6: 18       CLC
PRG:063F7: 75 86    ADC $86
PRG:063F9: 85 05    STA $05
PRG:063FB: B5 6D    LDA $6D
PRG:063FD: 69 00    ADC $00
PRG:063FF: 29 01    AND $01
PRG:06401: 4A       LSR
PRG:06402: 05 05    ORA $05
PRG:06404: 6A       ROR
PRG:06405: 4A       LSR
PRG:06406: 4A       LSR
PRG:06407: 4A       LSR
PRG:06408: 20 E1 9B JSR $9BE1
PRG:0640B: A4 04    LDY $04
PRG:0640D: B5 CE    LDA $CE
PRG:0640F: 18       CLC
PRG:06410: 79 CC E3 ADC $E3CC
PRG:06413: 29 F0    AND $F0
PRG:06415: 38       SEC
PRG:06416: E9 20    SBC $20
PRG:06418: 85 02    STA $02
PRG:0641A: A8       TAY
PRG:0641B: B1 06    LDA $06
PRG:0641D: 85 03    STA $03
PRG:0641F: A4 04    LDY $04
PRG:06421: 68       PLA
PRG:06422: D0 05    BNE $05
PRG:06424: B5 CE    LDA $CE
PRG:06426: 4C 2B E4 JMP $E42B
PRG:06429: B5 86    LDA $86
PRG:0642B: 29 0F    AND $0F
PRG:0642D: 85 04    STA $04
PRG:0642F: A5 03    LDA $03
PRG:06431: 60       RTS
PRG:06432: FF       .byte $FF
PRG:06433: 00 30    BRK $30
PRG:06435: 84 00    STY $00
PRG:06437: AD B9 03 LDA $03B9
PRG:0643A: 18       CLC
PRG:0643B: 79 33 E4 ADC $E433
PRG:0643E: BE 9A 03 LDX $039A
PRG:06441: BC E5 06 LDY $06E5
PRG:06444: 84 02    STY $02
PRG:06446: 20 AE E4 JSR $E4AE
PRG:06449: AD AE 03 LDA $03AE
PRG:0644C: 99 03 02 STA $0203
PRG:0644F: 99 0B 02 STA $020B
PRG:06452: 99 13 02 STA $0213
PRG:06455: 18       CLC
PRG:06456: 69 06    ADC $06
PRG:06458: 99 07 02 STA $0207
PRG:0645B: 99 0F 02 STA $020F
PRG:0645E: 99 17 02 STA $0217
PRG:06461: A9 21    LDA $21
PRG:06463: 99 02 02 STA $0202
PRG:06466: 99 0A 02 STA $020A
PRG:06469: 99 12 02 STA $0212
PRG:0646C: 09 40    ORA $40
PRG:0646E: 99 06 02 STA $0206
PRG:06471: 99 0E 02 STA $020E
PRG:06474: 99 16 02 STA $0216
PRG:06477: A2 05    LDX $05
PRG:06479: A9 E1    LDA $E1
PRG:0647B: 99 01 02 STA $0201
PRG:0647E: C8       INY
PRG:0647F: C8       INY
PRG:06480: C8       INY
PRG:06481: C8       INY
PRG:06482: CA       DEX
PRG:06483: 10 F4    BPL $F4
PRG:06485: A4 02    LDY $02
PRG:06487: A5 00    LDA $00
PRG:06489: D0 05    BNE $05
PRG:0648B: A9 E0    LDA $E0
PRG:0648D: 99 01 02 STA $0201
PRG:06490: A2 00    LDX $00
PRG:06492: AD 9D 03 LDA $039D
PRG:06495: 38       SEC
PRG:06496: F9 00 02 SBC $0200
PRG:06499: C9 64    CMP $64
PRG:0649B: 90 05    BCC $05
PRG:0649D: A9 F8    LDA $F8
PRG:0649F: 99 00 02 STA $0200
PRG:064A2: C8       INY
PRG:064A3: C8       INY
PRG:064A4: C8       INY
PRG:064A5: C8       INY
PRG:064A6: E8       INX
PRG:064A7: E0 06    CPX $06
PRG:064A9: D0 E7    BNE $E7
PRG:064AB: A4 00    LDY $00
PRG:064AD: 60       RTS
PRG:064AE: A2 06    LDX $06
PRG:064B0: 99 00 02 STA $0200
PRG:064B3: 18       CLC
PRG:064B4: 69 08    ADC $08
PRG:064B6: C8       INY
PRG:064B7: C8       INY
PRG:064B8: C8       INY
PRG:064B9: C8       INY
PRG:064BA: CA       DEX
PRG:064BB: D0 F3    BNE $F3
PRG:064BD: A4 02    LDY $02
PRG:064BF: 60       RTS
PRG:064C0: 04 00    NOP $00
PRG:064C2: 04 00    NOP $00
PRG:064C4: 00 04    BRK $04
PRG:064C6: 00 04    BRK $04
PRG:064C8: 00 08    BRK $08
PRG:064CA: 00 08    BRK $08
PRG:064CC: 08       PHP
PRG:064CD: 00 08    BRK $08
PRG:064CF: 00 80    BRK $80
PRG:064D1: 82       .byte $82
PRG:064D2: 81 83    STA $83
PRG:064D4: 81 83    STA $83
PRG:064D6: 80 82    NOP $82
PRG:064D8: 03       .byte $03
PRG:064D9: 03       .byte $03
PRG:064DA: C3       .byte $C3
PRG:064DB: C3       .byte $C3
PRG:064DC: BC F3 06 LDY $06F3
PRG:064DF: AD 47 07 LDA $0747
PRG:064E2: D0 08    BNE $08
PRG:064E4: B5 2A    LDA $2A
PRG:064E6: 29 7F    AND $7F
PRG:064E8: C9 01    CMP $01
PRG:064EA: F0 04    BEQ $04
PRG:064EC: A2 00    LDX $00
PRG:064EE: F0 07    BEQ $07
PRG:064F0: A5 09    LDA $09
PRG:064F2: 4A       LSR
PRG:064F3: 4A       LSR
PRG:064F4: 29 03    AND $03
PRG:064F6: AA       TAX
PRG:064F7: AD BE 03 LDA $03BE
PRG:064FA: 18       CLC
PRG:064FB: 7D C4 E4 ADC $E4C4
PRG:064FE: 99 00 02 STA $0200
PRG:06501: 18       CLC
PRG:06502: 7D CC E4 ADC $E4CC
PRG:06505: 99 04 02 STA $0204
PRG:06508: AD B3 03 LDA $03B3
PRG:0650B: 18       CLC
PRG:0650C: 7D C0 E4 ADC $E4C0
PRG:0650F: 99 03 02 STA $0203
PRG:06512: 18       CLC
PRG:06513: 7D C8 E4 ADC $E4C8
PRG:06516: 99 07 02 STA $0207
PRG:06519: BD D0 E4 LDA $E4D0
PRG:0651C: 99 01 02 STA $0201
PRG:0651F: BD D4 E4 LDA $E4D4
PRG:06522: 99 05 02 STA $0205
PRG:06525: BD D8 E4 LDA $E4D8
PRG:06528: 99 02 02 STA $0202
PRG:0652B: 99 06 02 STA $0206
PRG:0652E: A6 08    LDX $08
PRG:06530: AD D6 03 LDA $03D6
PRG:06533: 29 FC    AND $FC
PRG:06535: F0 09    BEQ $09
PRG:06537: A9 00    LDA $00
PRG:06539: 95 2A    STA $2A
PRG:0653B: A9 F8    LDA $F8
PRG:0653D: 20 C1 E5 JSR $E5C1
PRG:06540: 60       RTS
PRG:06541: F9 50 F7 SBC $F750
PRG:06544: 50 FA    BVC $FA
PRG:06546: FB       .byte $FB
PRG:06547: F8       SED
PRG:06548: FB       .byte $FB
PRG:06549: F6 FB    INC $FB
PRG:0654B: BC E5 06 LDY $06E5
PRG:0654E: AD AE 03 LDA $03AE
PRG:06551: 99 03 02 STA $0203
PRG:06554: 18       CLC
PRG:06555: 69 08    ADC $08
PRG:06557: 99 07 02 STA $0207
PRG:0655A: 99 0B 02 STA $020B
PRG:0655D: 18       CLC
PRG:0655E: 69 0C    ADC $0C
PRG:06560: 85 05    STA $05
PRG:06562: B5 CF    LDA $CF
PRG:06564: 20 C1 E5 JSR $E5C1
PRG:06567: 69 08    ADC $08
PRG:06569: 99 08 02 STA $0208
PRG:0656C: AD 0D 01 LDA $010D
PRG:0656F: 85 02    STA $02
PRG:06571: A9 01    LDA $01
PRG:06573: 85 03    STA $03
PRG:06575: 85 04    STA $04
PRG:06577: 99 02 02 STA $0202
PRG:0657A: 99 06 02 STA $0206
PRG:0657D: 99 0A 02 STA $020A
PRG:06580: A9 7E    LDA $7E
PRG:06582: 99 01 02 STA $0201
PRG:06585: 99 09 02 STA $0209
PRG:06588: A9 7F    LDA $7F
PRG:0658A: 99 05 02 STA $0205
PRG:0658D: AD 0F 07 LDA $070F
PRG:06590: F0 15    BEQ $15
PRG:06592: 98       TYA
PRG:06593: 18       CLC
PRG:06594: 69 0C    ADC $0C
PRG:06596: A8       TAY
PRG:06597: AD 0F 01 LDA $010F
PRG:0659A: 0A       ASL
PRG:0659B: AA       TAX
PRG:0659C: BD 41 E5 LDA $E541
PRG:0659F: 85 00    STA $00
PRG:065A1: BD 42 E5 LDA $E542
PRG:065A4: 20 B2 EB JSR $EBB2
PRG:065A7: A6 08    LDX $08
PRG:065A9: BC E5 06 LDY $06E5
PRG:065AC: AD D1 03 LDA $03D1
PRG:065AF: 29 0E    AND $0E
PRG:065B1: F0 14    BEQ $14
PRG:065B3: A9 F8    LDA $F8
PRG:065B5: 99 14 02 STA $0214
PRG:065B8: 99 10 02 STA $0210
PRG:065BB: 99 0C 02 STA $020C
PRG:065BE: 99 08 02 STA $0208
PRG:065C1: 99 04 02 STA $0204
PRG:065C4: 99 00 02 STA $0200
PRG:065C7: 60       RTS
PRG:065C8: BC E5 06 LDY $06E5
PRG:065CB: 84 02    STY $02
PRG:065CD: C8       INY
PRG:065CE: C8       INY
PRG:065CF: C8       INY
PRG:065D0: AD AE 03 LDA $03AE
PRG:065D3: 20 AE E4 JSR $E4AE
PRG:065D6: A6 08    LDX $08
PRG:065D8: B5 CF    LDA $CF
PRG:065DA: 20 BB E5 JSR $E5BB
PRG:065DD: AC 4E 07 LDY $074E
PRG:065E0: C0 03    CPY $03
PRG:065E2: F0 05    BEQ $05
PRG:065E4: AC CC 06 LDY $06CC
PRG:065E7: F0 02    BEQ $02
PRG:065E9: A9 F8    LDA $F8
PRG:065EB: BC E5 06 LDY $06E5
PRG:065EE: 99 10 02 STA $0210
PRG:065F1: 99 14 02 STA $0214
PRG:065F4: A9 5B    LDA $5B
PRG:065F6: AE 43 07 LDX $0743
PRG:065F9: F0 02    BEQ $02
PRG:065FB: A9 75    LDA $75
PRG:065FD: A6 08    LDX $08
PRG:065FF: C8       INY
PRG:06600: 20 B5 E5 JSR $E5B5
PRG:06603: A9 02    LDA $02
PRG:06605: C8       INY
PRG:06606: 20 B5 E5 JSR $E5B5
PRG:06609: E8       INX
PRG:0660A: 20 F6 F1 JSR $F1F6
PRG:0660D: CA       DEX
PRG:0660E: BC E5 06 LDY $06E5
PRG:06611: 0A       ASL
PRG:06612: 48       PHA
PRG:06613: 90 05    BCC $05
PRG:06615: A9 F8    LDA $F8
PRG:06617: 99 00 02 STA $0200
PRG:0661A: 68       PLA
PRG:0661B: 0A       ASL
PRG:0661C: 48       PHA
PRG:0661D: 90 05    BCC $05
PRG:0661F: A9 F8    LDA $F8
PRG:06621: 99 04 02 STA $0204
PRG:06624: 68       PLA
PRG:06625: 0A       ASL
PRG:06626: 48       PHA
PRG:06627: 90 05    BCC $05
PRG:06629: A9 F8    LDA $F8
PRG:0662B: 99 08 02 STA $0208
PRG:0662E: 68       PLA
PRG:0662F: 0A       ASL
PRG:06630: 48       PHA
PRG:06631: 90 05    BCC $05
PRG:06633: A9 F8    LDA $F8
PRG:06635: 99 0C 02 STA $020C
PRG:06638: 68       PLA
PRG:06639: 0A       ASL
PRG:0663A: 48       PHA
PRG:0663B: 90 05    BCC $05
PRG:0663D: A9 F8    LDA $F8
PRG:0663F: 99 10 02 STA $0210
PRG:06642: 68       PLA
PRG:06643: 0A       ASL
PRG:06644: 90 05    BCC $05
PRG:06646: A9 F8    LDA $F8
PRG:06648: 99 14 02 STA $0214
PRG:0664B: AD D1 03 LDA $03D1
PRG:0664E: 0A       ASL
PRG:0664F: 90 03    BCC $03
PRG:06651: 20 B3 E5 JSR $E5B3
PRG:06654: 60       RTS
PRG:06655: A5 09    LDA $09
PRG:06657: 4A       LSR
PRG:06658: B0 02    BCS $02
PRG:0665A: D6 DB    DEC $DB
PRG:0665C: B5 DB    LDA $DB
PRG:0665E: 20 C1 E5 JSR $E5C1
PRG:06661: AD B3 03 LDA $03B3
PRG:06664: 99 03 02 STA $0203
PRG:06667: 18       CLC
PRG:06668: 69 08    ADC $08
PRG:0666A: 99 07 02 STA $0207
PRG:0666D: A9 02    LDA $02
PRG:0666F: 99 02 02 STA $0202
PRG:06672: 99 06 02 STA $0206
PRG:06675: A9 F7    LDA $F7
PRG:06677: 99 01 02 STA $0201
PRG:0667A: A9 FB    LDA $FB
PRG:0667C: 99 05 02 STA $0205
PRG:0667F: 4C BD E6 JMP $E6BD
PRG:06682: 60       RTS
PRG:06683: 61 62    ADC $62
PRG:06685: 63       .byte $63
PRG:06686: BC F3 06 LDY $06F3
PRG:06689: B5 2A    LDA $2A
PRG:0668B: C9 02    CMP $02
PRG:0668D: B0 C6    BCS $C6
PRG:0668F: B5 DB    LDA $DB
PRG:06691: 99 00 02 STA $0200
PRG:06694: 18       CLC
PRG:06695: 69 08    ADC $08
PRG:06697: 99 04 02 STA $0204
PRG:0669A: AD B3 03 LDA $03B3
PRG:0669D: 99 03 02 STA $0203
PRG:066A0: 99 07 02 STA $0207
PRG:066A3: A5 09    LDA $09
PRG:066A5: 4A       LSR
PRG:066A6: 29 03    AND $03
PRG:066A8: AA       TAX
PRG:066A9: BD 82 E6 LDA $E682
PRG:066AC: C8       INY
PRG:066AD: 20 C1 E5 JSR $E5C1
PRG:066B0: 88       DEY
PRG:066B1: A9 02    LDA $02
PRG:066B3: 99 02 02 STA $0202
PRG:066B6: A9 82    LDA $82
PRG:066B8: 99 06 02 STA $0206
PRG:066BB: A6 08    LDX $08
PRG:066BD: 60       RTS
PRG:066BE: 76 77    ROR $77
PRG:066C0: 78       SEI
PRG:066C1: 79 D6 D6 ADC $D6D6
PRG:066C4: D9 D9 8D CMP $8DD9
PRG:066C7: 8D E4 E4 STA $E4E4
PRG:066CA: 76 77    ROR $77
PRG:066CC: 78       SEI
PRG:066CD: 79 02 01 ADC $0102
PRG:066D0: 02       .byte $02
PRG:066D1: 01 AC    ORA $AC
PRG:066D3: EA       NOP
PRG:066D4: 06 AD    ASL $AD
PRG:066D6: B9 03 18 LDA $1803
PRG:066D9: 69 08    ADC $08
PRG:066DB: 85 02    STA $02
PRG:066DD: AD AE 03 LDA $03AE
PRG:066E0: 85 05    STA $05
PRG:066E2: A6 39    LDX $39
PRG:066E4: BD CE E6 LDA $E6CE
PRG:066E7: 0D CA 03 ORA $03CA
PRG:066EA: 85 04    STA $04
PRG:066EC: 8A       TXA
PRG:066ED: 48       PHA
PRG:066EE: 0A       ASL
PRG:066EF: 0A       ASL
PRG:066F0: AA       TAX
PRG:066F1: A9 01    LDA $01
PRG:066F3: 85 07    STA $07
PRG:066F5: 85 03    STA $03
PRG:066F7: BD BE E6 LDA $E6BE
PRG:066FA: 85 00    STA $00
PRG:066FC: BD BF E6 LDA $E6BF
PRG:066FF: 20 B2 EB JSR $EBB2
PRG:06702: C6 07    DEC $07
PRG:06704: 10 F1    BPL $F1
PRG:06706: AC EA 06 LDY $06EA
PRG:06709: 68       PLA
PRG:0670A: F0 2F    BEQ $2F
PRG:0670C: C9 03    CMP $03
PRG:0670E: F0 2B    BEQ $2B
PRG:06710: 85 00    STA $00
PRG:06712: A5 09    LDA $09
PRG:06714: 4A       LSR
PRG:06715: 29 03    AND $03
PRG:06717: 0D CA 03 ORA $03CA
PRG:0671A: 99 02 02 STA $0202
PRG:0671D: 99 06 02 STA $0206
PRG:06720: A6 00    LDX $00
PRG:06722: CA       DEX
PRG:06723: F0 06    BEQ $06
PRG:06725: 99 0A 02 STA $020A
PRG:06728: 99 0E 02 STA $020E
PRG:0672B: B9 06 02 LDA $0206
PRG:0672E: 09 40    ORA $40
PRG:06730: 99 06 02 STA $0206
PRG:06733: B9 0E 02 LDA $020E
PRG:06736: 09 40    ORA $40
PRG:06738: 99 0E 02 STA $020E
PRG:0673B: 4C 64 EB JMP $EB64
PRG:0673E: FC FC AA NOP $AAFC
PRG:06741: AB       .byte $AB
PRG:06742: AC AD FC LDY $FCAD
PRG:06745: FC AE AF NOP $AFAE
PRG:06748: B0 B1    BCS $B1
PRG:0674A: FC A5 A6 NOP $A6A5
PRG:0674D: A7       .byte $A7
PRG:0674E: A8       TAY
PRG:0674F: A9 FC    LDA $FC
PRG:06751: A0 A1    LDY $A1
PRG:06753: A2 A3    LDX $A3
PRG:06755: A4 69    LDY $69
PRG:06757: A5 6A    LDA $6A
PRG:06759: A7       .byte $A7
PRG:0675A: A8       TAY
PRG:0675B: A9 6B    LDA $6B
PRG:0675D: A0 6C    LDY $6C
PRG:0675F: A2 A3    LDX $A3
PRG:06761: A4 FC    LDY $FC
PRG:06763: FC 96 97 NOP $9796
PRG:06766: 98       TYA
PRG:06767: 99 FC FC STA $FCFC
PRG:0676A: 9A       TXS
PRG:0676B: 9B       .byte $9B
PRG:0676C: 9C       .byte $9C
PRG:0676D: 9D FC FC STA $FCFC
PRG:06770: 8F       .byte $8F
PRG:06771: 8E 8E 8F STX $8F8E
PRG:06774: FC FC 95 NOP $95FC
PRG:06777: 94 94    STY $94
PRG:06779: 95 FC    STA $FC
PRG:0677B: FC DC DC NOP $DCDC
PRG:0677E: DF       .byte $DF
PRG:0677F: DF       .byte $DF
PRG:06780: DC DC DD NOP $DDDC
PRG:06783: DD DE DE CMP $DEDE
PRG:06786: FC FC B2 NOP $B2FC
PRG:06789: B3       .byte $B3
PRG:0678A: B4 B5    LDY $B5
PRG:0678C: FC FC B6 NOP $B6FC
PRG:0678F: B3       .byte $B3
PRG:06790: B7       .byte $B7
PRG:06791: B5 FC    LDA $FC
PRG:06793: FC 70 71 NOP $7170
PRG:06796: 72       .byte $72
PRG:06797: 73       .byte $73
PRG:06798: FC FC 6E NOP $6EFC
PRG:0679B: 6E 6F 6F ROR $6F6F
PRG:0679E: FC FC 6D NOP $6DFC
PRG:067A1: 6D 6F 6F ADC $6F6F
PRG:067A4: FC FC 6F NOP $6FFC
PRG:067A7: 6F       .byte $6F
PRG:067A8: 6E 6E FC ROR $FC6E
PRG:067AB: FC 6F 6F NOP $6F6F
PRG:067AE: 6D 6D FC ADC $FC6D
PRG:067B1: FC F4 F4 NOP $F4F4
PRG:067B4: F5 F5    SBC $F5
PRG:067B6: FC FC F4 NOP $F4FC
PRG:067B9: F4 F5    NOP $F5
PRG:067BB: F5 FC    SBC $FC
PRG:067BD: FC F5 F5 NOP $F5F5
PRG:067C0: F4 F4    NOP $F4
PRG:067C2: FC FC F5 NOP $F5FC
PRG:067C5: F5 F4    SBC $F4
PRG:067C7: F4 FC    NOP $FC
PRG:067C9: FC FC FC NOP $FCFC
PRG:067CC: EF       .byte $EF
PRG:067CD: EF       .byte $EF
PRG:067CE: B9 B8 BB LDA $BBB8
PRG:067D1: BA       TSX
PRG:067D2: BC BC FC LDY $FCBC
PRG:067D5: FC BD BD NOP $BDBD
PRG:067D8: BC BC 7A LDY $7ABC
PRG:067DB: 7B       .byte $7B
PRG:067DC: DA       NOP
PRG:067DD: DB       .byte $DB
PRG:067DE: D8       CLD
PRG:067DF: D8       CLD
PRG:067E0: CD CD CE CMP $CECD
PRG:067E3: CE CF CF DEC $CFCF
PRG:067E6: 7D 7C D1 ADC $D17C
PRG:067E9: 8C D3 D2 STY $D2D3
PRG:067EC: 7D 7C 89 ADC $897C
PRG:067EF: 88       DEY
PRG:067F0: 8B       .byte $8B
PRG:067F1: 8A       TXA
PRG:067F2: D5 D4    CMP $D4
PRG:067F4: E3       .byte $E3
PRG:067F5: E2       .byte $E2
PRG:067F6: D3       .byte $D3
PRG:067F7: D2       .byte $D2
PRG:067F8: D5 D4    CMP $D4
PRG:067FA: E3       .byte $E3
PRG:067FB: E2       .byte $E2
PRG:067FC: 8B       .byte $8B
PRG:067FD: 8A       TXA
PRG:067FE: E5 E5    SBC $E5
PRG:06800: E6 E6    INC $E6
PRG:06802: EB       .byte $EB
PRG:06803: EB       .byte $EB
PRG:06804: EC EC ED CPX $EDEC
PRG:06807: ED EE EE SBC $EEEE
PRG:0680A: FC FC D0 NOP $D0FC
PRG:0680D: D0 D7    BNE $D7
PRG:0680F: D7       .byte $D7
PRG:06810: BF       .byte $BF
PRG:06811: BE C1 C0 LDX $C0C1
PRG:06814: C2       .byte $C2
PRG:06815: FC C4 C3 NOP $C3C4
PRG:06818: C6 C5    DEC $C5
PRG:0681A: C8       INY
PRG:0681B: C7       .byte $C7
PRG:0681C: BF       .byte $BF
PRG:0681D: BE CA C9 LDX $C9CA
PRG:06820: C2       .byte $C2
PRG:06821: FC C4 C3 NOP $C3C4
PRG:06824: C6 C5    DEC $C5
PRG:06826: CC CB FC CPY $FCCB
PRG:06829: FC E8 E7 NOP $E7E8
PRG:0682C: EA       NOP
PRG:0682D: E9 F2    SBC $F2
PRG:0682F: F2       .byte $F2
PRG:06830: F3       .byte $F3
PRG:06831: F3       .byte $F3
PRG:06832: F2       .byte $F2
PRG:06833: F2       .byte $F2
PRG:06834: F1 F1    SBC $F1
PRG:06836: F1 F1    SBC $F1
PRG:06838: FC FC F0 NOP $F0FC
PRG:0683B: F0 FC    BEQ $FC
PRG:0683D: FC FC FC NOP $FCFC
PRG:06840: 0C 0C 00 NOP $000C
PRG:06843: 0C 0C A8 NOP $A80C
PRG:06846: 54 3C    NOP $3C
PRG:06848: EA       NOP
PRG:06849: 18       CLC
PRG:0684A: 48       PHA
PRG:0684B: 48       PHA
PRG:0684C: CC C0 18 CPY $18C0
PRG:0684F: 18       CLC
PRG:06850: 18       CLC
PRG:06851: 90 24    BCC $24
PRG:06853: FF       .byte $FF
PRG:06854: 48       PHA
PRG:06855: 9C       .byte $9C
PRG:06856: D2       .byte $D2
PRG:06857: D8       CLD
PRG:06858: F0 F6    BEQ $F6
PRG:0685A: FC 01 02 NOP $0201
PRG:0685D: 03       .byte $03
PRG:0685E: 02       .byte $02
PRG:0685F: 01 01    ORA $01
PRG:06861: 03       .byte $03
PRG:06862: 03       .byte $03
PRG:06863: 03       .byte $03
PRG:06864: 01 01    ORA $01
PRG:06866: 02       .byte $02
PRG:06867: 02       .byte $02
PRG:06868: 21 01    AND $01
PRG:0686A: 02       .byte $02
PRG:0686B: 01 01    ORA $01
PRG:0686D: 02       .byte $02
PRG:0686E: FF       .byte $FF
PRG:0686F: 02       .byte $02
PRG:06870: 02       .byte $02
PRG:06871: 01 01    ORA $01
PRG:06873: 02       .byte $02
PRG:06874: 02       .byte $02
PRG:06875: 02       .byte $02
PRG:06876: 08       PHP
PRG:06877: 18       CLC
PRG:06878: 18       CLC
PRG:06879: 19 1A 19 ORA $191A
PRG:0687C: 18       CLC
PRG:0687D: B5 CF    LDA $CF
PRG:0687F: 85 02    STA $02
PRG:06881: AD AE 03 LDA $03AE
PRG:06884: 85 05    STA $05
PRG:06886: BC E5 06 LDY $06E5
PRG:06889: 84 EB    STY $EB
PRG:0688B: A9 00    LDA $00
PRG:0688D: 8D 09 01 STA $0109
PRG:06890: B5 46    LDA $46
PRG:06892: 85 03    STA $03
PRG:06894: BD C5 03 LDA $03C5
PRG:06897: 85 04    STA $04
PRG:06899: B5 16    LDA $16
PRG:0689B: C9 0D    CMP $0D
PRG:0689D: D0 0A    BNE $0A
PRG:0689F: B4 58    LDY $58
PRG:068A1: 30 06    BMI $06
PRG:068A3: BC 8A 07 LDY $078A
PRG:068A6: F0 01    BEQ $01
PRG:068A8: 60       RTS
PRG:068A9: B5 1E    LDA $1E
PRG:068AB: 85 ED    STA $ED
PRG:068AD: 29 1F    AND $1F
PRG:068AF: A8       TAY
PRG:068B0: B5 16    LDA $16
PRG:068B2: C9 35    CMP $35
PRG:068B4: D0 08    BNE $08
PRG:068B6: A0 00    LDY $00
PRG:068B8: A9 01    LDA $01
PRG:068BA: 85 03    STA $03
PRG:068BC: A9 15    LDA $15
PRG:068BE: C9 33    CMP $33
PRG:068C0: D0 13    BNE $13
PRG:068C2: C6 02    DEC $02
PRG:068C4: A9 03    LDA $03
PRG:068C6: BC 8A 07 LDY $078A
PRG:068C9: F0 02    BEQ $02
PRG:068CB: 09 20    ORA $20
PRG:068CD: 85 04    STA $04
PRG:068CF: A0 00    LDY $00
PRG:068D1: 84 ED    STY $ED
PRG:068D3: A9 08    LDA $08
PRG:068D5: C9 32    CMP $32
PRG:068D7: D0 08    BNE $08
PRG:068D9: A0 03    LDY $03
PRG:068DB: AE 0E 07 LDX $070E
PRG:068DE: BD 78 E8 LDA $E878
PRG:068E1: 85 EF    STA $EF
PRG:068E3: 84 EC    STY $EC
PRG:068E5: A6 08    LDX $08
PRG:068E7: C9 0C    CMP $0C
PRG:068E9: D0 07    BNE $07
PRG:068EB: B5 A0    LDA $A0
PRG:068ED: 30 03    BMI $03
PRG:068EF: EE 09 01 INC $0109
PRG:068F2: AD 6A 03 LDA $036A
PRG:068F5: F0 09    BEQ $09
PRG:068F7: A0 16    LDY $16
PRG:068F9: C9 01    CMP $01
PRG:068FB: F0 01    BEQ $01
PRG:068FD: C8       INY
PRG:068FE: 84 EF    STY $EF
PRG:06900: A4 EF    LDY $EF
PRG:06902: C0 06    CPY $06
PRG:06904: D0 1D    BNE $1D
PRG:06906: B5 1E    LDA $1E
PRG:06908: C9 02    CMP $02
PRG:0690A: 90 04    BCC $04
PRG:0690C: A2 04    LDX $04
PRG:0690E: 86 EC    STX $EC
PRG:06910: 29 20    AND $20
PRG:06912: 0D 47 07 ORA $0747
PRG:06915: D0 0C    BNE $0C
PRG:06917: A5 09    LDA $09
PRG:06919: 29 08    AND $08
PRG:0691B: D0 06    BNE $06
PRG:0691D: A5 03    LDA $03
PRG:0691F: 49 03    EOR $03
PRG:06921: 85 03    STA $03
PRG:06923: B9 5B E8 LDA $E85B
PRG:06926: 05 04    ORA $04
PRG:06928: 85 04    STA $04
PRG:0692A: B9 40 E8 LDA $E840
PRG:0692D: AA       TAX
PRG:0692E: A4 EC    LDY $EC
PRG:06930: AD 6A 03 LDA $036A
PRG:06933: F0 30    BEQ $30
PRG:06935: C9 01    CMP $01
PRG:06937: D0 13    BNE $13
PRG:06939: AD 63 03 LDA $0363
PRG:0693C: 10 02    BPL $02
PRG:0693E: A2 DE    LDX $DE
PRG:06940: A5 ED    LDA $ED
PRG:06942: 29 20    AND $20
PRG:06944: F0 03    BEQ $03
PRG:06946: 8E 09 01 STX $0109
PRG:06949: 4C 4B EA JMP $EA4B
PRG:0694C: AD 63 03 LDA $0363
PRG:0694F: 29 01    AND $01
PRG:06951: F0 02    BEQ $02
PRG:06953: A2 E4    LDX $E4
PRG:06955: A5 ED    LDA $ED
PRG:06957: 29 20    AND $20
PRG:06959: F0 EE    BEQ $EE
PRG:0695B: A5 02    LDA $02
PRG:0695D: 38       SEC
PRG:0695E: E9 10    SBC $10
PRG:06960: 85 02    STA $02
PRG:06962: 4C 46 E9 JMP $E946
PRG:06965: E0 24    CPX $24
PRG:06967: D0 11    BNE $11
PRG:06969: C0 05    CPY $05
PRG:0696B: D0 0A    BNE $0A
PRG:0696D: A2 30    LDX $30
PRG:0696F: A9 02    LDA $02
PRG:06971: 85 03    STA $03
PRG:06973: A9 05    LDA $05
PRG:06975: 85 EC    STA $EC
PRG:06977: 4C CA E9 JMP $E9CA
PRG:0697A: E0 90    CPX $90
PRG:0697C: D0 12    BNE $12
PRG:0697E: A5 ED    LDA $ED
PRG:06980: 29 20    AND $20
PRG:06982: D0 09    BNE $09
PRG:06984: AD 8F 07 LDA $078F
PRG:06987: C9 10    CMP $10
PRG:06989: B0 02    BCS $02
PRG:0698B: A2 96    LDX $96
PRG:0698D: 4C 37 EA JMP $EA37
PRG:06990: A5 EF    LDA $EF
PRG:06992: C9 04    CMP $04
PRG:06994: B0 10    BCS $10
PRG:06996: C0 02    CPY $02
PRG:06998: 90 0C    BCC $0C
PRG:0699A: A2 5A    LDX $5A
PRG:0699C: A4 EF    LDY $EF
PRG:0699E: C0 02    CPY $02
PRG:069A0: D0 04    BNE $04
PRG:069A2: A2 7E    LDX $7E
PRG:069A4: E6 02    INC $02
PRG:069A6: A5 EC    LDA $EC
PRG:069A8: C9 04    CMP $04
PRG:069AA: D0 1E    BNE $1E
PRG:069AC: A2 72    LDX $72
PRG:069AE: E6 02    INC $02
PRG:069B0: A4 EF    LDY $EF
PRG:069B2: C0 02    CPY $02
PRG:069B4: F0 04    BEQ $04
PRG:069B6: A2 66    LDX $66
PRG:069B8: E6 02    INC $02
PRG:069BA: C0 06    CPY $06
PRG:069BC: D0 0C    BNE $0C
PRG:069BE: A2 54    LDX $54
PRG:069C0: A5 ED    LDA $ED
PRG:069C2: 29 20    AND $20
PRG:069C4: D0 04    BNE $04
PRG:069C6: A2 8A    LDX $8A
PRG:069C8: C6 02    DEC $02
PRG:069CA: A4 08    LDY $08
PRG:069CC: A5 EF    LDA $EF
PRG:069CE: C9 05    CMP $05
PRG:069D0: D0 0C    BNE $0C
PRG:069D2: A5 ED    LDA $ED
PRG:069D4: F0 24    BEQ $24
PRG:069D6: 29 08    AND $08
PRG:069D8: F0 5D    BEQ $5D
PRG:069DA: A2 B4    LDX $B4
PRG:069DC: D0 1C    BNE $1C
PRG:069DE: E0 48    CPX $48
PRG:069E0: F0 18    BEQ $18
PRG:069E2: B9 96 07 LDA $0796
PRG:069E5: C9 05    CMP $05
PRG:069E7: B0 4E    BCS $4E
PRG:069E9: E0 3C    CPX $3C
PRG:069EB: D0 0D    BNE $0D
PRG:069ED: C9 01    CMP $01
PRG:069EF: F0 46    BEQ $46
PRG:069F1: E6 02    INC $02
PRG:069F3: E6 02    INC $02
PRG:069F5: E6 02    INC $02
PRG:069F7: 4C 29 EA JMP $EA29
PRG:069FA: A5 EF    LDA $EF
PRG:069FC: C9 06    CMP $06
PRG:069FE: F0 37    BEQ $37
PRG:06A00: C9 08    CMP $08
PRG:06A02: F0 33    BEQ $33
PRG:06A04: C9 0C    CMP $0C
PRG:06A06: F0 2F    BEQ $2F
PRG:06A08: C9 18    CMP $18
PRG:06A0A: B0 2B    BCS $2B
PRG:06A0C: A0 00    LDY $00
PRG:06A0E: C9 15    CMP $15
PRG:06A10: D0 10    BNE $10
PRG:06A12: C8       INY
PRG:06A13: AD 5F 07 LDA $075F
PRG:06A16: C9 07    CMP $07
PRG:06A18: B0 1D    BCS $1D
PRG:06A1A: A2 A2    LDX $A2
PRG:06A1C: A9 03    LDA $03
PRG:06A1E: 85 EC    STA $EC
PRG:06A20: D0 15    BNE $15
PRG:06A22: A5 09    LDA $09
PRG:06A24: 39 76 E8 AND $E876
PRG:06A27: D0 0E    BNE $0E
PRG:06A29: A5 ED    LDA $ED
PRG:06A2B: 29 A0    AND $A0
PRG:06A2D: 0D 47 07 ORA $0747
PRG:06A30: D0 05    BNE $05
PRG:06A32: 8A       TXA
PRG:06A33: 18       CLC
PRG:06A34: 69 06    ADC $06
PRG:06A36: AA       TAX
PRG:06A37: A5 ED    LDA $ED
PRG:06A39: 29 20    AND $20
PRG:06A3B: F0 0E    BEQ $0E
PRG:06A3D: A5 EF    LDA $EF
PRG:06A3F: C9 04    CMP $04
PRG:06A41: 90 08    BCC $08
PRG:06A43: A0 01    LDY $01
PRG:06A45: 8C 09 01 STY $0109
PRG:06A48: 88       DEY
PRG:06A49: 84 EC    STY $EC
PRG:06A4B: A4 EB    LDY $EB
PRG:06A4D: 20 AA EB JSR $EBAA
PRG:06A50: 20 AA EB JSR $EBAA
PRG:06A53: 20 AA EB JSR $EBAA
PRG:06A56: A6 08    LDX $08
PRG:06A58: BC E5 06 LDY $06E5
PRG:06A5B: A5 EF    LDA $EF
PRG:06A5D: C9 08    CMP $08
PRG:06A5F: D0 03    BNE $03
PRG:06A61: 4C 64 EB JMP $EB64
PRG:06A64: AD 09 01 LDA $0109
PRG:06A67: F0 3D    BEQ $3D
PRG:06A69: B9 02 02 LDA $0202
PRG:06A6C: 09 80    ORA $80
PRG:06A6E: C8       INY
PRG:06A6F: C8       INY
PRG:06A70: 20 B5 E5 JSR $E5B5
PRG:06A73: 88       DEY
PRG:06A74: 88       DEY
PRG:06A75: 98       TYA
PRG:06A76: AA       TAX
PRG:06A77: A5 EF    LDA $EF
PRG:06A79: C9 05    CMP $05
PRG:06A7B: F0 0D    BEQ $0D
PRG:06A7D: C9 11    CMP $11
PRG:06A7F: F0 09    BEQ $09
PRG:06A81: C9 15    CMP $15
PRG:06A83: B0 05    BCS $05
PRG:06A85: 8A       TXA
PRG:06A86: 18       CLC
PRG:06A87: 69 08    ADC $08
PRG:06A89: AA       TAX
PRG:06A8A: BD 01 02 LDA $0201
PRG:06A8D: 48       PHA
PRG:06A8E: BD 05 02 LDA $0205
PRG:06A91: 48       PHA
PRG:06A92: B9 11 02 LDA $0211
PRG:06A95: 9D 01 02 STA $0201
PRG:06A98: B9 15 02 LDA $0215
PRG:06A9B: 9D 05 02 STA $0205
PRG:06A9E: 68       PLA
PRG:06A9F: 99 15 02 STA $0215
PRG:06AA2: 68       PLA
PRG:06AA3: 99 11 02 STA $0211
PRG:06AA6: AD 6A 03 LDA $036A
PRG:06AA9: D0 B6    BNE $B6
PRG:06AAB: A5 EF    LDA $EF
PRG:06AAD: A6 EC    LDX $EC
PRG:06AAF: C9 05    CMP $05
PRG:06AB1: D0 03    BNE $03
PRG:06AB3: 4C 64 EB JMP $EB64
PRG:06AB6: C9 07    CMP $07
PRG:06AB8: F0 1D    BEQ $1D
PRG:06ABA: C9 0D    CMP $0D
PRG:06ABC: F0 19    BEQ $19
PRG:06ABE: C9 0C    CMP $0C
PRG:06AC0: F0 15    BEQ $15
PRG:06AC2: C9 12    CMP $12
PRG:06AC4: D0 04    BNE $04
PRG:06AC6: E0 05    CPX $05
PRG:06AC8: D0 48    BNE $48
PRG:06ACA: C9 15    CMP $15
PRG:06ACC: D0 05    BNE $05
PRG:06ACE: A9 42    LDA $42
PRG:06AD0: 99 16 02 STA $0216
PRG:06AD3: E0 02    CPX $02
PRG:06AD5: 90 3B    BCC $3B
PRG:06AD7: AD 6A 03 LDA $036A
PRG:06ADA: D0 36    BNE $36
PRG:06ADC: B9 02 02 LDA $0202
PRG:06ADF: 29 A3    AND $A3
PRG:06AE1: 99 02 02 STA $0202
PRG:06AE4: 99 0A 02 STA $020A
PRG:06AE7: 99 12 02 STA $0212
PRG:06AEA: 09 40    ORA $40
PRG:06AEC: E0 05    CPX $05
PRG:06AEE: D0 02    BNE $02
PRG:06AF0: 09 80    ORA $80
PRG:06AF2: 99 06 02 STA $0206
PRG:06AF5: 99 0E 02 STA $020E
PRG:06AF8: 99 16 02 STA $0216
PRG:06AFB: E0 04    CPX $04
PRG:06AFD: D0 13    BNE $13
PRG:06AFF: B9 0A 02 LDA $020A
PRG:06B02: 09 80    ORA $80
PRG:06B04: 99 0A 02 STA $020A
PRG:06B07: 99 12 02 STA $0212
PRG:06B0A: 09 40    ORA $40
PRG:06B0C: 99 0E 02 STA $020E
PRG:06B0F: 99 16 02 STA $0216
PRG:06B12: A5 EF    LDA $EF
PRG:06B14: C9 11    CMP $11
PRG:06B16: D0 36    BNE $36
PRG:06B18: AD 09 01 LDA $0109
PRG:06B1B: D0 21    BNE $21
PRG:06B1D: B9 12 02 LDA $0212
PRG:06B20: 29 81    AND $81
PRG:06B22: 99 12 02 STA $0212
PRG:06B25: B9 16 02 LDA $0216
PRG:06B28: 09 41    ORA $41
PRG:06B2A: 99 16 02 STA $0216
PRG:06B2D: AE 8F 07 LDX $078F
PRG:06B30: E0 10    CPX $10
PRG:06B32: B0 30    BCS $30
PRG:06B34: 99 0E 02 STA $020E
PRG:06B37: 29 81    AND $81
PRG:06B39: 99 0A 02 STA $020A
PRG:06B3C: 90 26    BCC $26
PRG:06B3E: B9 02 02 LDA $0202
PRG:06B41: 29 81    AND $81
PRG:06B43: 99 02 02 STA $0202
PRG:06B46: B9 06 02 LDA $0206
PRG:06B49: 09 41    ORA $41
PRG:06B4B: 99 06 02 STA $0206
PRG:06B4E: A5 EF    LDA $EF
PRG:06B50: C9 18    CMP $18
PRG:06B52: 90 10    BCC $10
PRG:06B54: A9 82    LDA $82
PRG:06B56: 99 0A 02 STA $020A
PRG:06B59: 99 12 02 STA $0212
PRG:06B5C: 09 40    ORA $40
PRG:06B5E: 99 0E 02 STA $020E
PRG:06B61: 99 16 02 STA $0216
PRG:06B64: A6 08    LDX $08
PRG:06B66: AD D1 03 LDA $03D1
PRG:06B69: 4A       LSR
PRG:06B6A: 4A       LSR
PRG:06B6B: 4A       LSR
PRG:06B6C: 48       PHA
PRG:06B6D: 90 05    BCC $05
PRG:06B6F: A9 04    LDA $04
PRG:06B71: 20 C1 EB JSR $EBC1
PRG:06B74: 68       PLA
PRG:06B75: 4A       LSR
PRG:06B76: 48       PHA
PRG:06B77: 90 05    BCC $05
PRG:06B79: A9 00    LDA $00
PRG:06B7B: 20 C1 EB JSR $EBC1
PRG:06B7E: 68       PLA
PRG:06B7F: 4A       LSR
PRG:06B80: 4A       LSR
PRG:06B81: 48       PHA
PRG:06B82: 90 05    BCC $05
PRG:06B84: A9 10    LDA $10
PRG:06B86: 20 B7 EB JSR $EBB7
PRG:06B89: 68       PLA
PRG:06B8A: 4A       LSR
PRG:06B8B: 48       PHA
PRG:06B8C: 90 05    BCC $05
PRG:06B8E: A9 08    LDA $08
PRG:06B90: 20 B7 EB JSR $EBB7
PRG:06B93: 68       PLA
PRG:06B94: 4A       LSR
PRG:06B95: 90 12    BCC $12
PRG:06B97: 20 B7 EB JSR $EBB7
PRG:06B9A: B5 16    LDA $16
PRG:06B9C: C9 0C    CMP $0C
PRG:06B9E: F0 09    BEQ $09
PRG:06BA0: B5 B6    LDA $B6
PRG:06BA2: C9 02    CMP $02
PRG:06BA4: D0 03    BNE $03
PRG:06BA6: 20 98 C9 JSR $C998
PRG:06BA9: 60       RTS
PRG:06BAA: BD 3E E7 LDA $E73E
PRG:06BAD: 85 00    STA $00
PRG:06BAF: BD 3F E7 LDA $E73F
PRG:06BB2: 85 01    STA $01
PRG:06BB4: 4C 82 F2 JMP $F282
PRG:06BB7: 18       CLC
PRG:06BB8: 7D E5 06 ADC $06E5
PRG:06BBB: A8       TAY
PRG:06BBC: A9 F8    LDA $F8
PRG:06BBE: 4C C1 E5 JMP $E5C1
PRG:06BC1: 18       CLC
PRG:06BC2: 7D E5 06 ADC $06E5
PRG:06BC5: A8       TAY
PRG:06BC6: 20 4A EC JSR $EC4A
PRG:06BC9: 99 10 02 STA $0210
PRG:06BCC: 60       RTS
PRG:06BCD: 85 85    STA $85
PRG:06BCF: 86 86    STX $86
PRG:06BD1: AD BC 03 LDA $03BC
PRG:06BD4: 85 02    STA $02
PRG:06BD6: AD B1 03 LDA $03B1
PRG:06BD9: 85 05    STA $05
PRG:06BDB: A9 03    LDA $03
PRG:06BDD: 85 04    STA $04
PRG:06BDF: 4A       LSR
PRG:06BE0: 85 03    STA $03
PRG:06BE2: BC EC 06 LDY $06EC
PRG:06BE5: A2 00    LDX $00
PRG:06BE7: BD CD EB LDA $EBCD
PRG:06BEA: 85 00    STA $00
PRG:06BEC: BD CE EB LDA $EBCE
PRG:06BEF: 20 B2 EB JSR $EBB2
PRG:06BF2: E0 04    CPX $04
PRG:06BF4: D0 F1    BNE $F1
PRG:06BF6: A6 08    LDX $08
PRG:06BF8: BC EC 06 LDY $06EC
PRG:06BFB: AD 4E 07 LDA $074E
PRG:06BFE: C9 01    CMP $01
PRG:06C00: F0 08    BEQ $08
PRG:06C02: A9 86    LDA $86
PRG:06C04: 99 01 02 STA $0201
PRG:06C07: 99 05 02 STA $0205
PRG:06C0A: BD E8 03 LDA $03E8
PRG:06C0D: C9 C4    CMP $C4
PRG:06C0F: D0 24    BNE $24
PRG:06C11: A9 87    LDA $87
PRG:06C13: C8       INY
PRG:06C14: 20 BB E5 JSR $E5BB
PRG:06C17: 88       DEY
PRG:06C18: A9 03    LDA $03
PRG:06C1A: AE 4E 07 LDX $074E
PRG:06C1D: CA       DEX
PRG:06C1E: F0 01    BEQ $01
PRG:06C20: 4A       LSR
PRG:06C21: A6 08    LDX $08
PRG:06C23: 99 02 02 STA $0202
PRG:06C26: 09 40    ORA $40
PRG:06C28: 99 06 02 STA $0206
PRG:06C2B: 09 80    ORA $80
PRG:06C2D: 99 0E 02 STA $020E
PRG:06C30: 29 83    AND $83
PRG:06C32: 99 0A 02 STA $020A
PRG:06C35: AD D4 03 LDA $03D4
PRG:06C38: 48       PHA
PRG:06C39: 29 04    AND $04
PRG:06C3B: F0 08    BEQ $08
PRG:06C3D: A9 F8    LDA $F8
PRG:06C3F: 99 04 02 STA $0204
PRG:06C42: 99 0C 02 STA $020C
PRG:06C45: 68       PLA
PRG:06C46: 29 08    AND $08
PRG:06C48: F0 08    BEQ $08
PRG:06C4A: A9 F8    LDA $F8
PRG:06C4C: 99 00 02 STA $0200
PRG:06C4F: 99 08 02 STA $0208
PRG:06C52: 60       RTS
PRG:06C53: A9 02    LDA $02
PRG:06C55: 85 00    STA $00
PRG:06C57: A9 75    LDA $75
PRG:06C59: A4 0E    LDY $0E
PRG:06C5B: C0 05    CPY $05
PRG:06C5D: F0 06    BEQ $06
PRG:06C5F: A9 03    LDA $03
PRG:06C61: 85 00    STA $00
PRG:06C63: A9 84    LDA $84
PRG:06C65: BC EC 06 LDY $06EC
PRG:06C68: C8       INY
PRG:06C69: 20 BB E5 JSR $E5BB
PRG:06C6C: A5 09    LDA $09
PRG:06C6E: 0A       ASL
PRG:06C6F: 0A       ASL
PRG:06C70: 0A       ASL
PRG:06C71: 0A       ASL
PRG:06C72: 29 C0    AND $C0
PRG:06C74: 05 00    ORA $00
PRG:06C76: C8       INY
PRG:06C77: 20 BB E5 JSR $E5BB
PRG:06C7A: 88       DEY
PRG:06C7B: 88       DEY
PRG:06C7C: AD BC 03 LDA $03BC
PRG:06C7F: 20 C1 E5 JSR $E5C1
PRG:06C82: AD B1 03 LDA $03B1
PRG:06C85: 99 03 02 STA $0203
PRG:06C88: BD F1 03 LDA $03F1
PRG:06C8B: 38       SEC
PRG:06C8C: ED 1C 07 SBC $071C
PRG:06C8F: 85 00    STA $00
PRG:06C91: 38       SEC
PRG:06C92: ED B1 03 SBC $03B1
PRG:06C95: 65 00    ADC $00
PRG:06C97: 69 06    ADC $06
PRG:06C99: 99 07 02 STA $0207
PRG:06C9C: AD BD 03 LDA $03BD
PRG:06C9F: 99 08 02 STA $0208
PRG:06CA2: 99 0C 02 STA $020C
PRG:06CA5: AD B2 03 LDA $03B2
PRG:06CA8: 99 0B 02 STA $020B
PRG:06CAB: A5 00    LDA $00
PRG:06CAD: 38       SEC
PRG:06CAE: ED B2 03 SBC $03B2
PRG:06CB1: 65 00    ADC $00
PRG:06CB3: 69 06    ADC $06
PRG:06CB5: 99 0F 02 STA $020F
PRG:06CB8: AD D4 03 LDA $03D4
PRG:06CBB: 20 46 EC JSR $EC46
PRG:06CBE: AD D4 03 LDA $03D4
PRG:06CC1: 0A       ASL
PRG:06CC2: 90 05    BCC $05
PRG:06CC4: A9 F8    LDA $F8
PRG:06CC6: 20 C1 E5 JSR $E5C1
PRG:06CC9: A5 00    LDA $00
PRG:06CCB: 10 10    BPL $10
PRG:06CCD: B9 03 02 LDA $0203
PRG:06CD0: D9 07 02 CMP $0207
PRG:06CD3: 90 08    BCC $08
PRG:06CD5: A9 F8    LDA $F8
PRG:06CD7: 99 04 02 STA $0204
PRG:06CDA: 99 0C 02 STA $020C
PRG:06CDD: 60       RTS
PRG:06CDE: BC F1 06 LDY $06F1
PRG:06CE1: AD BA 03 LDA $03BA
PRG:06CE4: 99 00 02 STA $0200
PRG:06CE7: AD AF 03 LDA $03AF
PRG:06CEA: 99 03 02 STA $0203
PRG:06CED: A5 09    LDA $09
PRG:06CEF: 4A       LSR
PRG:06CF0: 4A       LSR
PRG:06CF1: 48       PHA
PRG:06CF2: 29 01    AND $01
PRG:06CF4: 49 64    EOR $64
PRG:06CF6: 99 01 02 STA $0201
PRG:06CF9: 68       PLA
PRG:06CFA: 4A       LSR
PRG:06CFB: 4A       LSR
PRG:06CFC: A9 02    LDA $02
PRG:06CFE: 90 02    BCC $02
PRG:06D00: 09 C0    ORA $C0
PRG:06D02: 99 02 02 STA $0202
PRG:06D05: 60       RTS
PRG:06D06: 68       PLA
PRG:06D07: 67       .byte $67
PRG:06D08: 66 BC    ROR $BC
PRG:06D0A: EC 06 B5 CPX $B506
PRG:06D0D: 24 F6    BIT $F6
PRG:06D0F: 24 4A    BIT $4A
PRG:06D11: 29 07    AND $07
PRG:06D13: C9 03    CMP $03
PRG:06D15: B0 4A    BCS $4A
PRG:06D17: AA       TAX
PRG:06D18: BD 06 ED LDA $ED06
PRG:06D1B: C8       INY
PRG:06D1C: 20 BB E5 JSR $E5BB
PRG:06D1F: 88       DEY
PRG:06D20: A6 08    LDX $08
PRG:06D22: AD BA 03 LDA $03BA
PRG:06D25: 38       SEC
PRG:06D26: E9 04    SBC $04
PRG:06D28: 99 00 02 STA $0200
PRG:06D2B: 99 08 02 STA $0208
PRG:06D2E: 18       CLC
PRG:06D2F: 69 08    ADC $08
PRG:06D31: 99 04 02 STA $0204
PRG:06D34: 99 0C 02 STA $020C
PRG:06D37: AD AF 03 LDA $03AF
PRG:06D3A: 38       SEC
PRG:06D3B: E9 04    SBC $04
PRG:06D3D: 99 03 02 STA $0203
PRG:06D40: 99 07 02 STA $0207
PRG:06D43: 18       CLC
PRG:06D44: 69 08    ADC $08
PRG:06D46: 99 0B 02 STA $020B
PRG:06D49: 99 0F 02 STA $020F
PRG:06D4C: A9 02    LDA $02
PRG:06D4E: 99 02 02 STA $0202
PRG:06D51: A9 82    LDA $82
PRG:06D53: 99 06 02 STA $0206
PRG:06D56: A9 42    LDA $42
PRG:06D58: 99 0A 02 STA $020A
PRG:06D5B: A9 C2    LDA $C2
PRG:06D5D: 99 0E 02 STA $020E
PRG:06D60: 60       RTS
PRG:06D61: A9 00    LDA $00
PRG:06D63: 95 24    STA $24
PRG:06D65: 60       RTS
PRG:06D66: BC E5 06 LDY $06E5
PRG:06D69: A9 5B    LDA $5B
PRG:06D6B: C8       INY
PRG:06D6C: 20 B5 E5 JSR $E5B5
PRG:06D6F: C8       INY
PRG:06D70: A9 02    LDA $02
PRG:06D72: 20 B5 E5 JSR $E5B5
PRG:06D75: 88       DEY
PRG:06D76: 88       DEY
PRG:06D77: AD AE 03 LDA $03AE
PRG:06D7A: 99 03 02 STA $0203
PRG:06D7D: 99 0F 02 STA $020F
PRG:06D80: 18       CLC
PRG:06D81: 69 08    ADC $08
PRG:06D83: 99 07 02 STA $0207
PRG:06D86: 99 13 02 STA $0213
PRG:06D89: 18       CLC
PRG:06D8A: 69 08    ADC $08
PRG:06D8C: 99 0B 02 STA $020B
PRG:06D8F: 99 17 02 STA $0217
PRG:06D92: B5 CF    LDA $CF
PRG:06D94: AA       TAX
PRG:06D95: 48       PHA
PRG:06D96: E0 20    CPX $20
PRG:06D98: B0 02    BCS $02
PRG:06D9A: A9 F8    LDA $F8
PRG:06D9C: 20 BE E5 JSR $E5BE
PRG:06D9F: 68       PLA
PRG:06DA0: 18       CLC
PRG:06DA1: 69 80    ADC $80
PRG:06DA3: AA       TAX
PRG:06DA4: E0 20    CPX $20
PRG:06DA6: B0 02    BCS $02
PRG:06DA8: A9 F8    LDA $F8
PRG:06DAA: 99 0C 02 STA $020C
PRG:06DAD: 99 10 02 STA $0210
PRG:06DB0: 99 14 02 STA $0214
PRG:06DB3: AD D1 03 LDA $03D1
PRG:06DB6: 48       PHA
PRG:06DB7: 29 08    AND $08
PRG:06DB9: F0 08    BEQ $08
PRG:06DBB: A9 F8    LDA $F8
PRG:06DBD: 99 00 02 STA $0200
PRG:06DC0: 99 0C 02 STA $020C
PRG:06DC3: 68       PLA
PRG:06DC4: 48       PHA
PRG:06DC5: 29 04    AND $04
PRG:06DC7: F0 08    BEQ $08
PRG:06DC9: A9 F8    LDA $F8
PRG:06DCB: 99 04 02 STA $0204
PRG:06DCE: 99 10 02 STA $0210
PRG:06DD1: 68       PLA
PRG:06DD2: 29 02    AND $02
PRG:06DD4: F0 08    BEQ $08
PRG:06DD6: A9 F8    LDA $F8
PRG:06DD8: 99 08 02 STA $0208
PRG:06DDB: 99 14 02 STA $0214
PRG:06DDE: A6 08    LDX $08
PRG:06DE0: 60       RTS
PRG:06DE1: A4 B5    LDY $B5
PRG:06DE3: 88       DEY
PRG:06DE4: D0 20    BNE $20
PRG:06DE6: AD D3 03 LDA $03D3
PRG:06DE9: 29 08    AND $08
PRG:06DEB: D0 19    BNE $19
PRG:06DED: BC EE 06 LDY $06EE
PRG:06DF0: AD B0 03 LDA $03B0
PRG:06DF3: 99 03 02 STA $0203
PRG:06DF6: AD BB 03 LDA $03BB
PRG:06DF9: 99 00 02 STA $0200
PRG:06DFC: A9 74    LDA $74
PRG:06DFE: 99 01 02 STA $0201
PRG:06E01: A9 02    LDA $02
PRG:06E03: 99 02 02 STA $0202
PRG:06E06: 60       RTS
PRG:06E07: 20 28 C8 JSR $C828
PRG:06E0A: 18       CLC
PRG:06E0B: 00 40    BRK $40
PRG:06E0D: 50 58    BVC $58
PRG:06E0F: 80 88    NOP $88
PRG:06E11: B8       CLV
PRG:06E12: 78       SEI
PRG:06E13: 60       RTS
PRG:06E14: A0 B0    LDY $B0
PRG:06E16: B8       CLV
PRG:06E17: 00 01    BRK $01
PRG:06E19: 02       .byte $02
PRG:06E1A: 03       .byte $03
PRG:06E1B: 04 05    NOP $05
PRG:06E1D: 06 07    ASL $07
PRG:06E1F: 08       PHP
PRG:06E20: 09 0A    ORA $0A
PRG:06E22: 0B       .byte $0B
PRG:06E23: 0C 0D 0E NOP $0E0D
PRG:06E26: 0F       .byte $0F
PRG:06E27: 10 11    BPL $11
PRG:06E29: 12       .byte $12
PRG:06E2A: 13       .byte $13
PRG:06E2B: 14 15    NOP $15
PRG:06E2D: 16 17    ASL $17
PRG:06E2F: 18       CLC
PRG:06E30: 19 1A 1B ORA $1B1A
PRG:06E33: 1C 1D 1E NOP $1E1D
PRG:06E36: 1F       .byte $1F
PRG:06E37: 20 21 22 JSR $2221
PRG:06E3A: 23       .byte $23
PRG:06E3B: 24 25    BIT $25
PRG:06E3D: 26 27    ROL $27
PRG:06E3F: 08       PHP
PRG:06E40: 09 28    ORA $28
PRG:06E42: 29 2A    AND $2A
PRG:06E44: 2B       .byte $2B
PRG:06E45: 2C 2D 08 BIT $082D
PRG:06E48: 09 0A    ORA $0A
PRG:06E4A: 0B       .byte $0B
PRG:06E4B: 0C 30 2C NOP $2C30
PRG:06E4E: 2D 08 09 AND $0908
PRG:06E51: 0A       ASL
PRG:06E52: 0B       .byte $0B
PRG:06E53: 2E 2F 2C ROL $2C2F
PRG:06E56: 2D 08 09 AND $0908
PRG:06E59: 28       PLP
PRG:06E5A: 29 2A    AND $2A
PRG:06E5C: 2B       .byte $2B
PRG:06E5D: 5C 5D 08 NOP $085D
PRG:06E60: 09 0A    ORA $0A
PRG:06E62: 0B       .byte $0B
PRG:06E63: 0C 0D 5E NOP $5E0D
PRG:06E66: 5F       .byte $5F
PRG:06E67: FC FC 08 NOP $08FC
PRG:06E6A: 09 58    ORA $58
PRG:06E6C: 59 5A 5A EOR $5A5A
PRG:06E6F: 08       PHP
PRG:06E70: 09 28    ORA $28
PRG:06E72: 29 2A    AND $2A
PRG:06E74: 2B       .byte $2B
PRG:06E75: 0E 0F FC ASL $FC0F
PRG:06E78: FC FC FC NOP $FCFC
PRG:06E7B: 32       .byte $32
PRG:06E7C: 33       .byte $33
PRG:06E7D: 34 35    NOP $35
PRG:06E7F: FC FC FC NOP $FCFC
PRG:06E82: FC 36 37 NOP $3736
PRG:06E85: 38       SEC
PRG:06E86: 39 FC FC AND $FCFC
PRG:06E89: FC FC 3A NOP $3AFC
PRG:06E8C: 37       .byte $37
PRG:06E8D: 3B       .byte $3B
PRG:06E8E: 3C FC FC NOP $FCFC
PRG:06E91: FC FC 3D NOP $3DFC
PRG:06E94: 3E 3F 40 ROL $403F
PRG:06E97: FC FC FC NOP $FCFC
PRG:06E9A: FC 32 41 NOP $4132
PRG:06E9D: 42       .byte $42
PRG:06E9E: 43       .byte $43
PRG:06E9F: FC FC FC NOP $FCFC
PRG:06EA2: FC 32 33 NOP $3332
PRG:06EA5: 44 45    NOP $45
PRG:06EA7: FC FC FC NOP $FCFC
PRG:06EAA: FC 32 33 NOP $3332
PRG:06EAD: 44 47    NOP $47
PRG:06EAF: FC FC FC NOP $FCFC
PRG:06EB2: FC 32 33 NOP $3332
PRG:06EB5: 48       PHA
PRG:06EB6: 49 FC    EOR $FC
PRG:06EB8: FC FC FC NOP $FCFC
PRG:06EBB: 32       .byte $32
PRG:06EBC: 33       .byte $33
PRG:06EBD: 90 91    BCC $91
PRG:06EBF: FC FC FC NOP $FCFC
PRG:06EC2: FC 3A 37 NOP $373A
PRG:06EC5: 92       .byte $92
PRG:06EC6: 93       .byte $93
PRG:06EC7: FC FC FC NOP $FCFC
PRG:06ECA: FC 9E 9E NOP $9E9E
PRG:06ECD: 9F       .byte $9F
PRG:06ECE: 9F       .byte $9F
PRG:06ECF: FC FC FC NOP $FCFC
PRG:06ED2: FC 3A 37 NOP $373A
PRG:06ED5: 4F       .byte $4F
PRG:06ED6: 4F       .byte $4F
PRG:06ED7: FC FC 00 NOP $00FC
PRG:06EDA: 01 4C    ORA $4C
PRG:06EDC: 4D 4E 4E EOR $4E4E
PRG:06EDF: 00 01    BRK $01
PRG:06EE1: 4C 4D 4A JMP $4A4D
PRG:06EE4: 4A       LSR
PRG:06EE5: 4B       .byte $4B
PRG:06EE6: 4B       .byte $4B
PRG:06EE7: 31 46    AND $46
PRG:06EE9: AD 9E 07 LDA $079E
PRG:06EEC: F0 05    BEQ $05
PRG:06EEE: A5 09    LDA $09
PRG:06EF0: 4A       LSR
PRG:06EF1: B0 40    BCS $40
PRG:06EF3: A5 0E    LDA $0E
PRG:06EF5: C9 0B    CMP $0B
PRG:06EF7: F0 47    BEQ $47
PRG:06EF9: AD 0B 07 LDA $070B
PRG:06EFC: D0 3C    BNE $3C
PRG:06EFE: AC 04 07 LDY $0704
PRG:06F01: F0 31    BEQ $31
PRG:06F03: A5 1D    LDA $1D
PRG:06F05: C9 00    CMP $00
PRG:06F07: F0 2B    BEQ $2B
PRG:06F09: 20 34 EF JSR $EF34
PRG:06F0C: A5 09    LDA $09
PRG:06F0E: 29 04    AND $04
PRG:06F10: D0 21    BNE $21
PRG:06F12: AA       TAX
PRG:06F13: AC E4 06 LDY $06E4
PRG:06F16: A5 33    LDA $33
PRG:06F18: 4A       LSR
PRG:06F19: B0 04    BCS $04
PRG:06F1B: C8       INY
PRG:06F1C: C8       INY
PRG:06F1D: C8       INY
PRG:06F1E: C8       INY
PRG:06F1F: AD 54 07 LDA $0754
PRG:06F22: F0 09    BEQ $09
PRG:06F24: B9 19 02 LDA $0219
PRG:06F27: CD B5 EE CMP $EEB5
PRG:06F2A: F0 07    BEQ $07
PRG:06F2C: E8       INX
PRG:06F2D: BD E7 EE LDA $EEE7
PRG:06F30: 99 19 02 STA $0219
PRG:06F33: 60       RTS
PRG:06F34: 20 EC EF JSR $EFEC
PRG:06F37: 4C 45 EF JMP $EF45
PRG:06F3A: 20 B0 F0 JSR $F0B0
PRG:06F3D: 4C 45 EF JMP $EF45
PRG:06F40: A0 0E    LDY $0E
PRG:06F42: B9 07 EE LDA $EE07
PRG:06F45: 8D D5 06 STA $06D5
PRG:06F48: A9 04    LDA $04
PRG:06F4A: 20 BE EF JSR $EFBE
PRG:06F4D: 20 E9 F0 JSR $F0E9
PRG:06F50: AD 11 07 LDA $0711
PRG:06F53: F0 25    BEQ $25
PRG:06F55: A0 00    LDY $00
PRG:06F57: AD 81 07 LDA $0781
PRG:06F5A: CD 11 07 CMP $0711
PRG:06F5D: 8C 11 07 STY $0711
PRG:06F60: B0 18    BCS $18
PRG:06F62: 8D 11 07 STA $0711
PRG:06F65: A0 07    LDY $07
PRG:06F67: B9 07 EE LDA $EE07
PRG:06F6A: 8D D5 06 STA $06D5
PRG:06F6D: A0 04    LDY $04
PRG:06F6F: A5 57    LDA $57
PRG:06F71: 05 0C    ORA $0C
PRG:06F73: F0 01    BEQ $01
PRG:06F75: 88       DEY
PRG:06F76: 98       TYA
PRG:06F77: 20 BE EF JSR $EFBE
PRG:06F7A: AD D0 03 LDA $03D0
PRG:06F7D: 4A       LSR
PRG:06F7E: 4A       LSR
PRG:06F7F: 4A       LSR
PRG:06F80: 4A       LSR
PRG:06F81: 85 00    STA $00
PRG:06F83: A2 03    LDX $03
PRG:06F85: AD E4 06 LDA $06E4
PRG:06F88: 18       CLC
PRG:06F89: 69 18    ADC $18
PRG:06F8B: A8       TAY
PRG:06F8C: A9 F8    LDA $F8
PRG:06F8E: 46 00    LSR $00
PRG:06F90: 90 03    BCC $03
PRG:06F92: 20 C1 E5 JSR $E5C1
PRG:06F95: 98       TYA
PRG:06F96: 38       SEC
PRG:06F97: E9 08    SBC $08
PRG:06F99: A8       TAY
PRG:06F9A: CA       DEX
PRG:06F9B: 10 EF    BPL $EF
PRG:06F9D: 60       RTS
PRG:06F9E: 58       CLI
PRG:06F9F: 01 00    ORA $00
PRG:06FA1: 60       RTS
PRG:06FA2: FF       .byte $FF
PRG:06FA3: 04 A2    NOP $A2
PRG:06FA5: 05 BD    ORA $BD
PRG:06FA7: 9E       .byte $9E
PRG:06FA8: EF       .byte $EF
PRG:06FA9: 95 02    STA $02
PRG:06FAB: CA       DEX
PRG:06FAC: 10 F8    BPL $F8
PRG:06FAE: A2 B8    LDX $B8
PRG:06FB0: A0 04    LDY $04
PRG:06FB2: 20 DC EF JSR $EFDC
PRG:06FB5: AD 26 02 LDA $0226
PRG:06FB8: 09 40    ORA $40
PRG:06FBA: 8D 22 02 STA $0222
PRG:06FBD: 60       RTS
PRG:06FBE: 85 07    STA $07
PRG:06FC0: AD AD 03 LDA $03AD
PRG:06FC3: 8D 55 07 STA $0755
PRG:06FC6: 85 05    STA $05
PRG:06FC8: AD B8 03 LDA $03B8
PRG:06FCB: 85 02    STA $02
PRG:06FCD: A5 33    LDA $33
PRG:06FCF: 85 03    STA $03
PRG:06FD1: AD C4 03 LDA $03C4
PRG:06FD4: 85 04    STA $04
PRG:06FD6: AE D5 06 LDX $06D5
PRG:06FD9: AC E4 06 LDY $06E4
PRG:06FDC: BD 17 EE LDA $EE17
PRG:06FDF: 85 00    STA $00
PRG:06FE1: BD 18 EE LDA $EE18
PRG:06FE4: 20 B2 EB JSR $EBB2
PRG:06FE7: C6 07    DEC $07
PRG:06FE9: D0 F1    BNE $F1
PRG:06FEB: 60       RTS
PRG:06FEC: A5 1D    LDA $1D
PRG:06FEE: C9 03    CMP $03
PRG:06FF0: F0 52    BEQ $52
PRG:06FF2: C9 02    CMP $02
PRG:06FF4: F0 3E    BEQ $3E
PRG:06FF6: C9 01    CMP $01
PRG:06FF8: D0 11    BNE $11
PRG:06FFA: AD 04 07 LDA $0704
PRG:06FFD: D0 51    BNE $51
PRG:06FFF: A0 06    LDY $06
PRG:07001: AD 14 07 LDA $0714
PRG:07004: D0 22    BNE $22
PRG:07006: A0 00    LDY $00
PRG:07008: 4C 28 F0 JMP $F028
PRG:0700B: A0 06    LDY $06
PRG:0700D: AD 14 07 LDA $0714
PRG:07010: D0 16    BNE $16
PRG:07012: A0 02    LDY $02
PRG:07014: A5 57    LDA $57
PRG:07016: 05 0C    ORA $0C
PRG:07018: F0 0E    BEQ $0E
PRG:0701A: AD 00 07 LDA $0700
PRG:0701D: C9 09    CMP $09
PRG:0701F: 90 1B    BCC $1B
PRG:07021: A5 45    LDA $45
PRG:07023: 25 33    AND $33
PRG:07025: D0 15    BNE $15
PRG:07027: C8       INY
PRG:07028: 20 91 F0 JSR $F091
PRG:0702B: A9 00    LDA $00
PRG:0702D: 8D 0D 07 STA $070D
PRG:07030: B9 07 EE LDA $EE07
PRG:07033: 60       RTS
PRG:07034: A0 04    LDY $04
PRG:07036: 20 91 F0 JSR $F091
PRG:07039: 4C 62 F0 JMP $F062
PRG:0703C: A0 04    LDY $04
PRG:0703E: 20 91 F0 JSR $F091
PRG:07041: 4C 68 F0 JMP $F068
PRG:07044: A0 05    LDY $05
PRG:07046: A5 9F    LDA $9F
PRG:07048: F0 DE    BEQ $DE
PRG:0704A: 20 91 F0 JSR $F091
PRG:0704D: 4C 6D F0 JMP $F06D
PRG:07050: A0 01    LDY $01
PRG:07052: 20 91 F0 JSR $F091
PRG:07055: AD 82 07 LDA $0782
PRG:07058: 0D 0D 07 ORA $070D
PRG:0705B: D0 0B    BNE $0B
PRG:0705D: A5 0A    LDA $0A
PRG:0705F: 0A       ASL
PRG:07060: B0 06    BCS $06
PRG:07062: AD 0D 07 LDA $070D
PRG:07065: 4C D0 F0 JMP $F0D0
PRG:07068: A9 03    LDA $03
PRG:0706A: 4C 6F F0 JMP $F06F
PRG:0706D: A9 02    LDA $02
PRG:0706F: 85 00    STA $00
PRG:07071: 20 62 F0 JSR $F062
PRG:07074: 48       PHA
PRG:07075: AD 81 07 LDA $0781
PRG:07078: D0 15    BNE $15
PRG:0707A: AD 0C 07 LDA $070C
PRG:0707D: 8D 81 07 STA $0781
PRG:07080: AD 0D 07 LDA $070D
PRG:07083: 18       CLC
PRG:07084: 69 01    ADC $01
PRG:07086: C5 00    CMP $00
PRG:07088: 90 02    BCC $02
PRG:0708A: A9 00    LDA $00
PRG:0708C: 8D 0D 07 STA $070D
PRG:0708F: 68       PLA
PRG:07090: 60       RTS
PRG:07091: AD 54 07 LDA $0754
PRG:07094: F0 05    BEQ $05
PRG:07096: 98       TYA
PRG:07097: 18       CLC
PRG:07098: 69 08    ADC $08
PRG:0709A: A8       TAY
PRG:0709B: 60       RTS
PRG:0709C: 00 01    BRK $01
PRG:0709E: 00 01    BRK $01
PRG:070A0: 00 01    BRK $01
PRG:070A2: 02       .byte $02
PRG:070A3: 00 01    BRK $01
PRG:070A5: 02       .byte $02
PRG:070A6: 02       .byte $02
PRG:070A7: 00 02    BRK $02
PRG:070A9: 00 02    BRK $02
PRG:070AB: 00 02    BRK $02
PRG:070AD: 00 02    BRK $02
PRG:070AF: 00 AC    BRK $AC
PRG:070B1: 0D 07 A5 ORA $A507
PRG:070B4: 09 29    ORA $29
PRG:070B6: 03       .byte $03
PRG:070B7: D0 0D    BNE $0D
PRG:070B9: C8       INY
PRG:070BA: C0 0A    CPY $0A
PRG:070BC: 90 05    BCC $05
PRG:070BE: A0 00    LDY $00
PRG:070C0: 8C 0B 07 STY $070B
PRG:070C3: 8C 0D 07 STY $070D
PRG:070C6: AD 54 07 LDA $0754
PRG:070C9: D0 0C    BNE $0C
PRG:070CB: B9 9C F0 LDA $F09C
PRG:070CE: A0 0F    LDY $0F
PRG:070D0: 0A       ASL
PRG:070D1: 0A       ASL
PRG:070D2: 0A       ASL
PRG:070D3: 79 07 EE ADC $EE07
PRG:070D6: 60       RTS
PRG:070D7: 98       TYA
PRG:070D8: 18       CLC
PRG:070D9: 69 0A    ADC $0A
PRG:070DB: AA       TAX
PRG:070DC: A0 09    LDY $09
PRG:070DE: BD 9C F0 LDA $F09C
PRG:070E1: D0 02    BNE $02
PRG:070E3: A0 01    LDY $01
PRG:070E5: B9 07 EE LDA $EE07
PRG:070E8: 60       RTS
PRG:070E9: AC E4 06 LDY $06E4
PRG:070EC: A5 0E    LDA $0E
PRG:070EE: C9 0B    CMP $0B
PRG:070F0: F0 13    BEQ $13
PRG:070F2: AD D5 06 LDA $06D5
PRG:070F5: C9 50    CMP $50
PRG:070F7: F0 1E    BEQ $1E
PRG:070F9: C9 B8    CMP $B8
PRG:070FB: F0 1A    BEQ $1A
PRG:070FD: C9 C0    CMP $C0
PRG:070FF: F0 16    BEQ $16
PRG:07101: C9 C8    CMP $C8
PRG:07103: D0 24    BNE $24
PRG:07105: B9 12 02 LDA $0212
PRG:07108: 29 3F    AND $3F
PRG:0710A: 99 12 02 STA $0212
PRG:0710D: B9 16 02 LDA $0216
PRG:07110: 29 3F    AND $3F
PRG:07112: 09 40    ORA $40
PRG:07114: 99 16 02 STA $0216
PRG:07117: B9 1A 02 LDA $021A
PRG:0711A: 29 3F    AND $3F
PRG:0711C: 99 1A 02 STA $021A
PRG:0711F: B9 1E 02 LDA $021E
PRG:07122: 29 3F    AND $3F
PRG:07124: 09 40    ORA $40
PRG:07126: 99 1E 02 STA $021E
PRG:07129: 60       RTS
PRG:0712A: A2 00    LDX $00
PRG:0712C: A0 00    LDY $00
PRG:0712E: 4C 42 F1 JMP $F142
PRG:07131: A0 01    LDY $01
PRG:07133: 20 A8 F1 JSR $F1A8
PRG:07136: A0 03    LDY $03
PRG:07138: 4C 42 F1 JMP $F142
PRG:0713B: A0 00    LDY $00
PRG:0713D: 20 A8 F1 JSR $F1A8
PRG:07140: A0 02    LDY $02
PRG:07142: 20 71 F1 JSR $F171
PRG:07145: A6 08    LDX $08
PRG:07147: 60       RTS
PRG:07148: A0 02    LDY $02
PRG:0714A: 20 A8 F1 JSR $F1A8
PRG:0714D: A0 06    LDY $06
PRG:0714F: 4C 42 F1 JMP $F142
PRG:07152: A9 01    LDA $01
PRG:07154: A0 01    LDY $01
PRG:07156: 4C 65 F1 JMP $F165
PRG:07159: A9 09    LDA $09
PRG:0715B: A0 04    LDY $04
PRG:0715D: 20 65 F1 JSR $F165
PRG:07160: E8       INX
PRG:07161: E8       INX
PRG:07162: A9 09    LDA $09
PRG:07164: C8       INY
PRG:07165: 86 00    STX $00
PRG:07167: 18       CLC
PRG:07168: 65 00    ADC $00
PRG:0716A: AA       TAX
PRG:0716B: 20 71 F1 JSR $F171
PRG:0716E: A6 08    LDX $08
PRG:07170: 60       RTS
PRG:07171: B5 CE    LDA $CE
PRG:07173: 99 B8 03 STA $03B8
PRG:07176: B5 86    LDA $86
PRG:07178: 38       SEC
PRG:07179: ED 1C 07 SBC $071C
PRG:0717C: 99 AD 03 STA $03AD
PRG:0717F: 60       RTS
PRG:07180: A2 00    LDX $00
PRG:07182: A0 00    LDY $00
PRG:07184: 4C C0 F1 JMP $F1C0
PRG:07187: A0 00    LDY $00
PRG:07189: 20 A8 F1 JSR $F1A8
PRG:0718C: A0 02    LDY $02
PRG:0718E: 4C C0 F1 JMP $F1C0
PRG:07191: A0 01    LDY $01
PRG:07193: 20 A8 F1 JSR $F1A8
PRG:07196: A0 03    LDY $03
PRG:07198: 4C C0 F1 JMP $F1C0
PRG:0719B: A0 02    LDY $02
PRG:0719D: 20 A8 F1 JSR $F1A8
PRG:071A0: A0 06    LDY $06
PRG:071A2: 4C C0 F1 JMP $F1C0
PRG:071A5: 07       .byte $07
PRG:071A6: 16 0D    ASL $0D
PRG:071A8: 8A       TXA
PRG:071A9: 18       CLC
PRG:071AA: 79 A5 F1 ADC $F1A5
PRG:071AD: AA       TAX
PRG:071AE: 60       RTS
PRG:071AF: A9 01    LDA $01
PRG:071B1: A0 01    LDY $01
PRG:071B3: 4C BA F1 JMP $F1BA
PRG:071B6: A9 09    LDA $09
PRG:071B8: A0 04    LDY $04
PRG:071BA: 86 00    STX $00
PRG:071BC: 18       CLC
PRG:071BD: 65 00    ADC $00
PRG:071BF: AA       TAX
PRG:071C0: 98       TYA
PRG:071C1: 48       PHA
PRG:071C2: 20 D7 F1 JSR $F1D7
PRG:071C5: 0A       ASL
PRG:071C6: 0A       ASL
PRG:071C7: 0A       ASL
PRG:071C8: 0A       ASL
PRG:071C9: 05 00    ORA $00
PRG:071CB: 85 00    STA $00
PRG:071CD: 68       PLA
PRG:071CE: A8       TAY
PRG:071CF: A5 00    LDA $00
PRG:071D1: 99 D0 03 STA $03D0
PRG:071D4: A6 08    LDX $08
PRG:071D6: 60       RTS
PRG:071D7: 20 F6 F1 JSR $F1F6
PRG:071DA: 4A       LSR
PRG:071DB: 4A       LSR
PRG:071DC: 4A       LSR
PRG:071DD: 4A       LSR
PRG:071DE: 85 00    STA $00
PRG:071E0: 4C 39 F2 JMP $F239
PRG:071E3: 7F       .byte $7F
PRG:071E4: 3F       .byte $3F
PRG:071E5: 1F       .byte $1F
PRG:071E6: 0F       .byte $0F
PRG:071E7: 07       .byte $07
PRG:071E8: 03       .byte $03
PRG:071E9: 01 00    ORA $00
PRG:071EB: 80 C0    NOP $C0
PRG:071ED: E0 F0    CPX $F0
PRG:071EF: F8       SED
PRG:071F0: FC FE FF NOP $FFFE
PRG:071F3: 07       .byte $07
PRG:071F4: 0F       .byte $0F
PRG:071F5: 07       .byte $07
PRG:071F6: 86 04    STX $04
PRG:071F8: A0 01    LDY $01
PRG:071FA: B9 1C 07 LDA $071C
PRG:071FD: 38       SEC
PRG:071FE: F5 86    SBC $86
PRG:07200: 85 07    STA $07
PRG:07202: B9 1A 07 LDA $071A
PRG:07205: F5 6D    SBC $6D
PRG:07207: BE F3 F1 LDX $F1F3
PRG:0720A: C9 00    CMP $00
PRG:0720C: 30 10    BMI $10
PRG:0720E: BE F4 F1 LDX $F1F4
PRG:07211: C9 01    CMP $01
PRG:07213: 10 09    BPL $09
PRG:07215: A9 38    LDA $38
PRG:07217: 85 06    STA $06
PRG:07219: A9 08    LDA $08
PRG:0721B: 20 6D F2 JSR $F26D
PRG:0721E: BD E3 F1 LDA $F1E3
PRG:07221: A6 04    LDX $04
PRG:07223: C9 00    CMP $00
PRG:07225: D0 03    BNE $03
PRG:07227: 88       DEY
PRG:07228: 10 D0    BPL $D0
PRG:0722A: 60       RTS
PRG:0722B: 00 08    BRK $08
PRG:0722D: 0C 0E 0F NOP $0F0E
PRG:07230: 07       .byte $07
PRG:07231: 03       .byte $03
PRG:07232: 01 00    ORA $00
PRG:07234: 04 00    NOP $00
PRG:07236: 04 FF    NOP $FF
PRG:07238: 00 86    BRK $86
PRG:0723A: 04 A0    NOP $A0
PRG:0723C: 01 B9    ORA $B9
PRG:0723E: 37       .byte $37
PRG:0723F: F2       .byte $F2
PRG:07240: 38       SEC
PRG:07241: F5 CE    SBC $CE
PRG:07243: 85 07    STA $07
PRG:07245: A9 01    LDA $01
PRG:07247: F5 B5    SBC $B5
PRG:07249: BE 34 F2 LDX $F234
PRG:0724C: C9 00    CMP $00
PRG:0724E: 30 10    BMI $10
PRG:07250: BE 35 F2 LDX $F235
PRG:07253: C9 01    CMP $01
PRG:07255: 10 09    BPL $09
PRG:07257: A9 20    LDA $20
PRG:07259: 85 06    STA $06
PRG:0725B: A9 04    LDA $04
PRG:0725D: 20 6D F2 JSR $F26D
PRG:07260: BD 2B F2 LDA $F22B
PRG:07263: A6 04    LDX $04
PRG:07265: C9 00    CMP $00
PRG:07267: D0 03    BNE $03
PRG:07269: 88       DEY
PRG:0726A: 10 D1    BPL $D1
PRG:0726C: 60       RTS
PRG:0726D: 85 05    STA $05
PRG:0726F: A5 07    LDA $07
PRG:07271: C5 06    CMP $06
PRG:07273: B0 0C    BCS $0C
PRG:07275: 4A       LSR
PRG:07276: 4A       LSR
PRG:07277: 4A       LSR
PRG:07278: 29 07    AND $07
PRG:0727A: C0 01    CPY $01
PRG:0727C: B0 02    BCS $02
PRG:0727E: 65 05    ADC $05
PRG:07280: AA       TAX
PRG:07281: 60       RTS
PRG:07282: A5 03    LDA $03
PRG:07284: 4A       LSR
PRG:07285: 4A       LSR
PRG:07286: A5 00    LDA $00
PRG:07288: 90 0C    BCC $0C
PRG:0728A: 99 05 02 STA $0205
PRG:0728D: A5 01    LDA $01
PRG:0728F: 99 01 02 STA $0201
PRG:07292: A9 40    LDA $40
PRG:07294: D0 0A    BNE $0A
PRG:07296: 99 01 02 STA $0201
PRG:07299: A5 01    LDA $01
PRG:0729B: 99 05 02 STA $0205
PRG:0729E: A9 00    LDA $00
PRG:072A0: 05 04    ORA $04
PRG:072A2: 99 02 02 STA $0202
PRG:072A5: 99 06 02 STA $0206
PRG:072A8: A5 02    LDA $02
PRG:072AA: 99 00 02 STA $0200
PRG:072AD: 99 04 02 STA $0204
PRG:072B0: A5 05    LDA $05
PRG:072B2: 99 03 02 STA $0203
PRG:072B5: 18       CLC
PRG:072B6: 69 08    ADC $08
PRG:072B8: 99 07 02 STA $0207
PRG:072BB: A5 02    LDA $02
PRG:072BD: 18       CLC
PRG:072BE: 69 08    ADC $08
PRG:072C0: 85 02    STA $02
PRG:072C2: 98       TYA
PRG:072C3: 18       CLC
PRG:072C4: 69 08    ADC $08
PRG:072C6: A8       TAY
PRG:072C7: E8       INX
PRG:072C8: E8       INX
PRG:072C9: 60       RTS
PRG:072CA: FF       .byte $FF
PRG:072CB: FF       .byte $FF
PRG:072CC: FF       .byte $FF
PRG:072CD: FF       .byte $FF
PRG:072CE: FF       .byte $FF
PRG:072CF: FF       .byte $FF
PRG:072D0: AD 70 07 LDA $0770
PRG:072D3: D0 04    BNE $04
PRG:072D5: 8D 15 40 STA $4015
PRG:072D8: 60       RTS
PRG:072D9: A9 FF    LDA $FF
PRG:072DB: 8D 17 40 STA $4017
PRG:072DE: A9 0F    LDA $0F
PRG:072E0: 8D 15 40 STA $4015
PRG:072E3: AD C6 07 LDA $07C6
PRG:072E6: D0 06    BNE $06
PRG:072E8: A5 FA    LDA $FA
PRG:072EA: C9 01    CMP $01
PRG:072EC: D0 5D    BNE $5D
PRG:072EE: AD B2 07 LDA $07B2
PRG:072F1: D0 23    BNE $23
PRG:072F3: A5 FA    LDA $FA
PRG:072F5: F0 66    BEQ $66
PRG:072F7: 8D B2 07 STA $07B2
PRG:072FA: 8D C6 07 STA $07C6
PRG:072FD: A9 00    LDA $00
PRG:072FF: 8D 15 40 STA $4015
PRG:07302: 85 F1    STA $F1
PRG:07304: 85 F2    STA $F2
PRG:07306: 85 F3    STA $F3
PRG:07308: A9 0F    LDA $0F
PRG:0730A: 8D 15 40 STA $4015
PRG:0730D: A9 2A    LDA $2A
PRG:0730F: 8D BB 07 STA $07BB
PRG:07312: A9 44    LDA $44
PRG:07314: D0 11    BNE $11
PRG:07316: AD BB 07 LDA $07BB
PRG:07319: C9 24    CMP $24
PRG:0731B: F0 08    BEQ $08
PRG:0731D: C9 1E    CMP $1E
PRG:0731F: F0 F1    BEQ $F1
PRG:07321: C9 18    CMP $18
PRG:07323: D0 09    BNE $09
PRG:07325: A9 64    LDA $64
PRG:07327: A2 84    LDX $84
PRG:07329: A0 7F    LDY $7F
PRG:0732B: 20 88 F3 JSR $F388
PRG:0732E: CE BB 07 DEC $07BB
PRG:07331: D0 2A    BNE $2A
PRG:07333: A9 00    LDA $00
PRG:07335: 8D 15 40 STA $4015
PRG:07338: AD B2 07 LDA $07B2
PRG:0733B: C9 02    CMP $02
PRG:0733D: D0 05    BNE $05
PRG:0733F: A9 00    LDA $00
PRG:07341: 8D C6 07 STA $07C6
PRG:07344: A9 00    LDA $00
PRG:07346: 8D B2 07 STA $07B2
PRG:07349: F0 12    BEQ $12
PRG:0734B: 20 1B F4 JSR $F41B
PRG:0734E: 20 7C F5 JSR $F57C
PRG:07351: 20 67 F6 JSR $F667
PRG:07354: 20 94 F6 JSR $F694
PRG:07357: A9 00    LDA $00
PRG:07359: 85 FB    STA $FB
PRG:0735B: 85 FC    STA $FC
PRG:0735D: A9 00    LDA $00
PRG:0735F: 85 FF    STA $FF
PRG:07361: 85 FE    STA $FE
PRG:07363: 85 FD    STA $FD
PRG:07365: 85 FA    STA $FA
PRG:07367: AC C0 07 LDY $07C0
PRG:0736A: A5 F4    LDA $F4
PRG:0736C: 29 03    AND $03
PRG:0736E: F0 07    BEQ $07
PRG:07370: EE C0 07 INC $07C0
PRG:07373: C0 30    CPY $30
PRG:07375: 90 06    BCC $06
PRG:07377: 98       TYA
PRG:07378: F0 03    BEQ $03
PRG:0737A: CE C0 07 DEC $07C0
PRG:0737D: 8C 11 40 STY $4011
PRG:07380: 60       RTS
PRG:07381: 8C 01 40 STY $4001
PRG:07384: 8E 00 40 STX $4000
PRG:07387: 60       RTS
PRG:07388: 20 81 F3 JSR $F381
PRG:0738B: A2 00    LDX $00
PRG:0738D: A8       TAY
PRG:0738E: B9 01 FF LDA $FF01
PRG:07391: F0 0B    BEQ $0B
PRG:07393: 9D 02 40 STA $4002
PRG:07396: B9 00 FF LDA $FF00
PRG:07399: 09 08    ORA $08
PRG:0739B: 9D 03 40 STA $4003
PRG:0739E: 60       RTS
PRG:0739F: 8E 04 40 STX $4004
PRG:073A2: 8C 05 40 STY $4005
PRG:073A5: 60       RTS
PRG:073A6: 20 9F F3 JSR $F39F
PRG:073A9: A2 04    LDX $04
PRG:073AB: D0 E0    BNE $E0
PRG:073AD: A2 08    LDX $08
PRG:073AF: D0 DC    BNE $DC
PRG:073B1: 9F       .byte $9F
PRG:073B2: 9B       .byte $9B
PRG:073B3: 98       TYA
PRG:073B4: 96 95    STX $95
PRG:073B6: 94 92    STY $92
PRG:073B8: 90 90    BCC $90
PRG:073BA: 9A       TXS
PRG:073BB: 97       .byte $97
PRG:073BC: 95 93    STA $93
PRG:073BE: 92       .byte $92
PRG:073BF: A9 40    LDA $40
PRG:073C1: 8D BB 07 STA $07BB
PRG:073C4: A9 62    LDA $62
PRG:073C6: 20 8B F3 JSR $F38B
PRG:073C9: A2 99    LDX $99
PRG:073CB: D0 25    BNE $25
PRG:073CD: A9 26    LDA $26
PRG:073CF: D0 02    BNE $02
PRG:073D1: A9 18    LDA $18
PRG:073D3: A2 82    LDX $82
PRG:073D5: A0 A7    LDY $A7
PRG:073D7: 20 88 F3 JSR $F388
PRG:073DA: A9 28    LDA $28
PRG:073DC: 8D BB 07 STA $07BB
PRG:073DF: AD BB 07 LDA $07BB
PRG:073E2: C9 25    CMP $25
PRG:073E4: D0 06    BNE $06
PRG:073E6: A2 5F    LDX $5F
PRG:073E8: A0 F6    LDY $F6
PRG:073EA: D0 08    BNE $08
PRG:073EC: C9 20    CMP $20
PRG:073EE: D0 29    BNE $29
PRG:073F0: A2 48    LDX $48
PRG:073F2: A0 BC    LDY $BC
PRG:073F4: 20 81 F3 JSR $F381
PRG:073F7: D0 20    BNE $20
PRG:073F9: A9 05    LDA $05
PRG:073FB: A0 99    LDY $99
PRG:073FD: D0 04    BNE $04
PRG:073FF: A9 0A    LDA $0A
PRG:07401: A0 93    LDY $93
PRG:07403: A2 9E    LDX $9E
PRG:07405: 8D BB 07 STA $07BB
PRG:07408: A9 0C    LDA $0C
PRG:0740A: 20 88 F3 JSR $F388
PRG:0740D: AD BB 07 LDA $07BB
PRG:07410: C9 06    CMP $06
PRG:07412: D0 05    BNE $05
PRG:07414: A9 BB    LDA $BB
PRG:07416: 8D 01 40 STA $4001
PRG:07419: D0 60    BNE $60
PRG:0741B: A4 FF    LDY $FF
PRG:0741D: F0 20    BEQ $20
PRG:0741F: 84 F1    STY $F1
PRG:07421: 30 AA    BMI $AA
PRG:07423: 46 FF    LSR $FF
PRG:07425: B0 AA    BCS $AA
PRG:07427: 46 FF    LSR $FF
PRG:07429: B0 D4    BCS $D4
PRG:0742B: 46 FF    LSR $FF
PRG:0742D: B0 2C    BCS $2C
PRG:0742F: 46 FF    LSR $FF
PRG:07431: B0 4A    BCS $4A
PRG:07433: 46 FF    LSR $FF
PRG:07435: B0 7F    BCS $7F
PRG:07437: 46 FF    LSR $FF
PRG:07439: B0 BE    BCS $BE
PRG:0743B: 46 FF    LSR $FF
PRG:0743D: B0 80    BCS $80
PRG:0743F: A5 F1    LDA $F1
PRG:07441: F0 17    BEQ $17
PRG:07443: 30 9A    BMI $9A
PRG:07445: 4A       LSR
PRG:07446: B0 97    BCS $97
PRG:07448: 4A       LSR
PRG:07449: B0 C2    BCS $C2
PRG:0744B: 4A       LSR
PRG:0744C: B0 1B    BCS $1B
PRG:0744E: 4A       LSR
PRG:0744F: B0 3C    BCS $3C
PRG:07451: 4A       LSR
PRG:07452: B0 67    BCS $67
PRG:07454: 4A       LSR
PRG:07455: B0 B6    BCS $B6
PRG:07457: 4A       LSR
PRG:07458: B0 48    BCS $48
PRG:0745A: 60       RTS
PRG:0745B: A9 0E    LDA $0E
PRG:0745D: 8D BB 07 STA $07BB
PRG:07460: A0 9C    LDY $9C
PRG:07462: A2 9E    LDX $9E
PRG:07464: A9 26    LDA $26
PRG:07466: 20 88 F3 JSR $F388
PRG:07469: AC BB 07 LDY $07BB
PRG:0746C: B9 B0 F3 LDA $F3B0
PRG:0746F: 8D 00 40 STA $4000
PRG:07472: C0 06    CPY $06
PRG:07474: D0 05    BNE $05
PRG:07476: A9 9E    LDA $9E
PRG:07478: 8D 02 40 STA $4002
PRG:0747B: D0 25    BNE $25
PRG:0747D: A9 0E    LDA $0E
PRG:0747F: A0 CB    LDY $CB
PRG:07481: A2 9F    LDX $9F
PRG:07483: 8D BB 07 STA $07BB
PRG:07486: A9 28    LDA $28
PRG:07488: 20 88 F3 JSR $F388
PRG:0748B: D0 15    BNE $15
PRG:0748D: AC BB 07 LDY $07BB
PRG:07490: C0 08    CPY $08
PRG:07492: D0 09    BNE $09
PRG:07494: A9 A0    LDA $A0
PRG:07496: 8D 02 40 STA $4002
PRG:07499: A9 9F    LDA $9F
PRG:0749B: D0 02    BNE $02
PRG:0749D: A9 90    LDA $90
PRG:0749F: 8D 00 40 STA $4000
PRG:074A2: CE BB 07 DEC $07BB
PRG:074A5: D0 0E    BNE $0E
PRG:074A7: A2 00    LDX $00
PRG:074A9: 86 F1    STX $F1
PRG:074AB: A2 0E    LDX $0E
PRG:074AD: 8E 15 40 STX $4015
PRG:074B0: A2 0F    LDX $0F
PRG:074B2: 8E 15 40 STX $4015
PRG:074B5: 60       RTS
PRG:074B6: A9 2F    LDA $2F
PRG:074B8: 8D BB 07 STA $07BB
PRG:074BB: AD BB 07 LDA $07BB
PRG:074BE: 4A       LSR
PRG:074BF: B0 10    BCS $10
PRG:074C1: 4A       LSR
PRG:074C2: B0 0D    BCS $0D
PRG:074C4: 29 02    AND $02
PRG:074C6: F0 09    BEQ $09
PRG:074C8: A0 91    LDY $91
PRG:074CA: A2 9A    LDX $9A
PRG:074CC: A9 44    LDA $44
PRG:074CE: 20 88 F3 JSR $F388
PRG:074D1: 4C A2 F4 JMP $F4A2
PRG:074D4: 58       CLI
PRG:074D5: 02       .byte $02
PRG:074D6: 54 56    NOP $56
PRG:074D8: 4E 44 4C LSR $4C44
PRG:074DB: 52       .byte $52
PRG:074DC: 4C 48 3E JMP $3E48
PRG:074DF: 36 3E    ROL $3E
PRG:074E1: 36 30    ROL $30
PRG:074E3: 28       PLP
PRG:074E4: 4A       LSR
PRG:074E5: 50 4A    BVC $4A
PRG:074E7: 64 3C    NOP $3C
PRG:074E9: 32       .byte $32
PRG:074EA: 3C 32 2C NOP $2C32
PRG:074ED: 24 3A    BIT $3A
PRG:074EF: 64 3A    NOP $3A
PRG:074F1: 34 2C    NOP $2C
PRG:074F3: 22       .byte $22
PRG:074F4: 2C 22 1C BIT $1C22
PRG:074F7: 14 14    NOP $14
PRG:074F9: 04 22    NOP $22
PRG:074FB: 24 16    BIT $16
PRG:074FD: 04 24    NOP $24
PRG:074FF: 26 18    ROL $18
PRG:07501: 04 26    NOP $26
PRG:07503: 28       PLP
PRG:07504: 1A       NOP
PRG:07505: 04 28    NOP $28
PRG:07507: 2A       ROL
PRG:07508: 1C 04 2A NOP $2A04
PRG:0750B: 2C 1E 04 BIT $041E
PRG:0750E: 2C 2E 20 BIT $202E
PRG:07511: 04 2E    NOP $2E
PRG:07513: 30 22    BMI $22
PRG:07515: 04 30    NOP $30
PRG:07517: 32       .byte $32
PRG:07518: A9 35    LDA $35
PRG:0751A: A2 8D    LDX $8D
PRG:0751C: D0 04    BNE $04
PRG:0751E: A9 06    LDA $06
PRG:07520: A2 98    LDX $98
PRG:07522: 8D BD 07 STA $07BD
PRG:07525: A0 7F    LDY $7F
PRG:07527: A9 42    LDA $42
PRG:07529: 20 A6 F3 JSR $F3A6
PRG:0752C: AD BD 07 LDA $07BD
PRG:0752F: C9 30    CMP $30
PRG:07531: D0 05    BNE $05
PRG:07533: A9 54    LDA $54
PRG:07535: 8D 06 40 STA $4006
PRG:07538: D0 2E    BNE $2E
PRG:0753A: A9 20    LDA $20
PRG:0753C: 8D BD 07 STA $07BD
PRG:0753F: A0 94    LDY $94
PRG:07541: A9 5E    LDA $5E
PRG:07543: D0 0B    BNE $0B
PRG:07545: AD BD 07 LDA $07BD
PRG:07548: C9 18    CMP $18
PRG:0754A: D0 1C    BNE $1C
PRG:0754C: A0 93    LDY $93
PRG:0754E: A9 18    LDA $18
PRG:07550: D0 7F    BNE $7F
PRG:07552: A9 36    LDA $36
PRG:07554: 8D BD 07 STA $07BD
PRG:07557: AD BD 07 LDA $07BD
PRG:0755A: 4A       LSR
PRG:0755B: B0 0B    BCS $0B
PRG:0755D: A8       TAY
PRG:0755E: B9 D9 F4 LDA $F4D9
PRG:07561: A2 5D    LDX $5D
PRG:07563: A0 7F    LDY $7F
PRG:07565: 20 A6 F3 JSR $F3A6
PRG:07568: CE BD 07 DEC $07BD
PRG:0756B: D0 0E    BNE $0E
PRG:0756D: A2 00    LDX $00
PRG:0756F: 86 F2    STX $F2
PRG:07571: A2 0D    LDX $0D
PRG:07573: 8E 15 40 STX $4015
PRG:07576: A2 0F    LDX $0F
PRG:07578: 8E 15 40 STX $4015
PRG:0757B: 60       RTS
PRG:0757C: A5 F2    LDA $F2
PRG:0757E: 29 40    AND $40
PRG:07580: D0 65    BNE $65
PRG:07582: A4 FE    LDY $FE
PRG:07584: F0 20    BEQ $20
PRG:07586: 84 F2    STY $F2
PRG:07588: 30 3E    BMI $3E
PRG:0758A: 46 FE    LSR $FE
PRG:0758C: B0 8A    BCS $8A
PRG:0758E: 46 FE    LSR $FE
PRG:07590: B0 6A    BCS $6A
PRG:07592: 46 FE    LSR $FE
PRG:07594: B0 6A    BCS $6A
PRG:07596: 46 FE    LSR $FE
PRG:07598: B0 A0    BCS $A0
PRG:0759A: 46 FE    LSR $FE
PRG:0759C: B0 80    BCS $80
PRG:0759E: 46 FE    LSR $FE
PRG:075A0: B0 B0    BCS $B0
PRG:075A2: 46 FE    LSR $FE
PRG:075A4: B0 3C    BCS $3C
PRG:075A6: A5 F2    LDA $F2
PRG:075A8: F0 17    BEQ $17
PRG:075AA: 30 27    BMI $27
PRG:075AC: 4A       LSR
PRG:075AD: B0 13    BCS $13
PRG:075AF: 4A       LSR
PRG:075B0: B0 5D    BCS $5D
PRG:075B2: 4A       LSR
PRG:075B3: B0 5A    BCS $5A
PRG:075B5: 4A       LSR
PRG:075B6: B0 8D    BCS $8D
PRG:075B8: 4A       LSR
PRG:075B9: B0 07    BCS $07
PRG:075BB: 4A       LSR
PRG:075BC: B0 99    BCS $99
PRG:075BE: 4A       LSR
PRG:075BF: B0 26    BCS $26
PRG:075C1: 60       RTS
PRG:075C2: 4C 2C F5 JMP $F52C
PRG:075C5: 4C 68 F5 JMP $F568
PRG:075C8: A9 38    LDA $38
PRG:075CA: 8D BD 07 STA $07BD
PRG:075CD: A0 C4    LDY $C4
PRG:075CF: A9 18    LDA $18
PRG:075D1: D0 0B    BNE $0B
PRG:075D3: AD BD 07 LDA $07BD
PRG:075D6: C9 08    CMP $08
PRG:075D8: D0 8E    BNE $8E
PRG:075DA: A0 A4    LDY $A4
PRG:075DC: A9 5A    LDA $5A
PRG:075DE: A2 9F    LDX $9F
PRG:075E0: D0 83    BNE $83
PRG:075E2: A9 30    LDA $30
PRG:075E4: 8D BD 07 STA $07BD
PRG:075E7: AD BD 07 LDA $07BD
PRG:075EA: A2 03    LDX $03
PRG:075EC: 4A       LSR
PRG:075ED: B0 D6    BCS $D6
PRG:075EF: CA       DEX
PRG:075F0: D0 FA    BNE $FA
PRG:075F2: A8       TAY
PRG:075F3: B9 D3 F4 LDA $F4D3
PRG:075F6: A2 82    LDX $82
PRG:075F8: A0 7F    LDY $7F
PRG:075FA: D0 E4    BNE $E4
PRG:075FC: A9 10    LDA $10
PRG:075FE: D0 02    BNE $02
PRG:07600: A9 20    LDA $20
PRG:07602: 8D BD 07 STA $07BD
PRG:07605: A9 7F    LDA $7F
PRG:07607: 8D 05 40 STA $4005
PRG:0760A: A9 00    LDA $00
PRG:0760C: 8D BE 07 STA $07BE
PRG:0760F: EE BE 07 INC $07BE
PRG:07612: AD BE 07 LDA $07BE
PRG:07615: 4A       LSR
PRG:07616: A8       TAY
PRG:07617: CC BD 07 CPY $07BD
PRG:0761A: F0 0C    BEQ $0C
PRG:0761C: A9 9D    LDA $9D
PRG:0761E: 8D 04 40 STA $4004
PRG:07621: B9 F8 F4 LDA $F4F8
PRG:07624: 20 A9 F3 JSR $F3A9
PRG:07627: 60       RTS
PRG:07628: 4C 6D F5 JMP $F56D
PRG:0762B: 01 0E    ORA $0E
PRG:0762D: 0E 0D 0B ASL $0B0D
PRG:07630: 06 0C    ASL $0C
PRG:07632: 0F       .byte $0F
PRG:07633: 0A       ASL
PRG:07634: 09 03    ORA $03
PRG:07636: 0D 08 0D ORA $0D08
PRG:07639: 06 0C    ASL $0C
PRG:0763B: A9 20    LDA $20
PRG:0763D: 8D BF 07 STA $07BF
PRG:07640: AD BF 07 LDA $07BF
PRG:07643: 4A       LSR
PRG:07644: 90 12    BCC $12
PRG:07646: A8       TAY
PRG:07647: BE 2B F6 LDX $F62B
PRG:0764A: B9 EA FF LDA $FFEA
PRG:0764D: 8D 0C 40 STA $400C
PRG:07650: 8E 0E 40 STX $400E
PRG:07653: A9 18    LDA $18
PRG:07655: 8D 0F 40 STA $400F
PRG:07658: CE BF 07 DEC $07BF
PRG:0765B: D0 09    BNE $09
PRG:0765D: A9 F0    LDA $F0
PRG:0765F: 8D 0C 40 STA $400C
PRG:07662: A9 00    LDA $00
PRG:07664: 85 F3    STA $F3
PRG:07666: 60       RTS
PRG:07667: A4 FD    LDY $FD
PRG:07669: F0 0A    BEQ $0A
PRG:0766B: 84 F3    STY $F3
PRG:0766D: 46 FD    LSR $FD
PRG:0766F: B0 CA    BCS $CA
PRG:07671: 46 FD    LSR $FD
PRG:07673: B0 0B    BCS $0B
PRG:07675: A5 F3    LDA $F3
PRG:07677: F0 06    BEQ $06
PRG:07679: 4A       LSR
PRG:0767A: B0 C4    BCS $C4
PRG:0767C: 4A       LSR
PRG:0767D: B0 06    BCS $06
PRG:0767F: 60       RTS
PRG:07680: A9 40    LDA $40
PRG:07682: 8D BF 07 STA $07BF
PRG:07685: AD BF 07 LDA $07BF
PRG:07688: 4A       LSR
PRG:07689: A8       TAY
PRG:0768A: A2 0F    LDX $0F
PRG:0768C: B9 C9 FF LDA $FFC9
PRG:0768F: D0 BC    BNE $BC
PRG:07691: 4C 3A F7 JMP $F73A
PRG:07694: A5 FC    LDA $FC
PRG:07696: D0 0C    BNE $0C
PRG:07698: A5 FB    LDA $FB
PRG:0769A: D0 2C    BNE $2C
PRG:0769C: AD B1 07 LDA $07B1
PRG:0769F: 05 F4    ORA $F4
PRG:076A1: D0 EE    BNE $EE
PRG:076A3: 60       RTS
PRG:076A4: 8D B1 07 STA $07B1
PRG:076A7: C9 01    CMP $01
PRG:076A9: D0 06    BNE $06
PRG:076AB: 20 A7 F4 JSR $F4A7
PRG:076AE: 20 71 F5 JSR $F571
PRG:076B1: A6 F4    LDX $F4
PRG:076B3: 8E C5 07 STX $07C5
PRG:076B6: A0 00    LDY $00
PRG:076B8: 8C C4 07 STY $07C4
PRG:076BB: 84 F4    STY $F4
PRG:076BD: C9 40    CMP $40
PRG:076BF: D0 30    BNE $30
PRG:076C1: A2 08    LDX $08
PRG:076C3: 8E C4 07 STX $07C4
PRG:076C6: D0 29    BNE $29
PRG:076C8: C9 04    CMP $04
PRG:076CA: D0 03    BNE $03
PRG:076CC: 20 A7 F4 JSR $F4A7
PRG:076CF: A0 10    LDY $10
PRG:076D1: 8C C7 07 STY $07C7
PRG:076D4: A0 00    LDY $00
PRG:076D6: 8C B1 07 STY $07B1
PRG:076D9: 85 F4    STA $F4
PRG:076DB: C9 01    CMP $01
PRG:076DD: D0 0E    BNE $0E
PRG:076DF: EE C7 07 INC $07C7
PRG:076E2: AC C7 07 LDY $07C7
PRG:076E5: C0 32    CPY $32
PRG:076E7: D0 0C    BNE $0C
PRG:076E9: A0 11    LDY $11
PRG:076EB: D0 E4    BNE $E4
PRG:076ED: A0 08    LDY $08
PRG:076EF: 84 F7    STY $F7
PRG:076F1: C8       INY
PRG:076F2: 4A       LSR
PRG:076F3: 90 FC    BCC $FC
PRG:076F5: B9 0C F9 LDA $F90C
PRG:076F8: A8       TAY
PRG:076F9: B9 0D F9 LDA $F90D
PRG:076FC: 85 F0    STA $F0
PRG:076FE: B9 0E F9 LDA $F90E
PRG:07701: 85 F5    STA $F5
PRG:07703: B9 0F F9 LDA $F90F
PRG:07706: 85 F6    STA $F6
PRG:07708: B9 10 F9 LDA $F910
PRG:0770B: 85 F9    STA $F9
PRG:0770D: B9 11 F9 LDA $F911
PRG:07710: 85 F8    STA $F8
PRG:07712: B9 12 F9 LDA $F912
PRG:07715: 8D B0 07 STA $07B0
PRG:07718: 8D C1 07 STA $07C1
PRG:0771B: A9 01    LDA $01
PRG:0771D: 8D B4 07 STA $07B4
PRG:07720: 8D B6 07 STA $07B6
PRG:07723: 8D B9 07 STA $07B9
PRG:07726: 8D BA 07 STA $07BA
PRG:07729: A9 00    LDA $00
PRG:0772B: 85 F7    STA $F7
PRG:0772D: 8D CA 07 STA $07CA
PRG:07730: A9 0B    LDA $0B
PRG:07732: 8D 15 40 STA $4015
PRG:07735: A9 0F    LDA $0F
PRG:07737: 8D 15 40 STA $4015
PRG:0773A: CE B4 07 DEC $07B4
PRG:0773D: D0 5F    BNE $5F
PRG:0773F: A4 F7    LDY $F7
PRG:07741: E6 F7    INC $F7
PRG:07743: B1 F5    LDA $F5
PRG:07745: F0 04    BEQ $04
PRG:07747: 10 3D    BPL $3D
PRG:07749: D0 2F    BNE $2F
PRG:0774B: AD B1 07 LDA $07B1
PRG:0774E: C9 40    CMP $40
PRG:07750: D0 05    BNE $05
PRG:07752: AD C5 07 LDA $07C5
PRG:07755: D0 1D    BNE $1D
PRG:07757: 29 04    AND $04
PRG:07759: D0 1C    BNE $1C
PRG:0775B: A5 F4    LDA $F4
PRG:0775D: 29 5F    AND $5F
PRG:0775F: D0 13    BNE $13
PRG:07761: A9 00    LDA $00
PRG:07763: 85 F4    STA $F4
PRG:07765: 8D B1 07 STA $07B1
PRG:07768: 8D 08 40 STA $4008
PRG:0776B: A9 90    LDA $90
PRG:0776D: 8D 00 40 STA $4000
PRG:07770: 8D 04 40 STA $4004
PRG:07773: 60       RTS
PRG:07774: 4C D4 F6 JMP $F6D4
PRG:07777: 4C A4 F6 JMP $F6A4
PRG:0777A: 20 CB F8 JSR $F8CB
PRG:0777D: 8D B3 07 STA $07B3
PRG:07780: A4 F7    LDY $F7
PRG:07782: E6 F7    INC $F7
PRG:07784: B1 F5    LDA $F5
PRG:07786: A6 F2    LDX $F2
PRG:07788: D0 0E    BNE $0E
PRG:0778A: 20 A9 F3 JSR $F3A9
PRG:0778D: F0 03    BEQ $03
PRG:0778F: 20 D8 F8 JSR $F8D8
PRG:07792: 8D B5 07 STA $07B5
PRG:07795: 20 9F F3 JSR $F39F
PRG:07798: AD B3 07 LDA $07B3
PRG:0779B: 8D B4 07 STA $07B4
PRG:0779E: A5 F2    LDA $F2
PRG:077A0: D0 1A    BNE $1A
PRG:077A2: AD B1 07 LDA $07B1
PRG:077A5: 29 91    AND $91
PRG:077A7: D0 13    BNE $13
PRG:077A9: AC B5 07 LDY $07B5
PRG:077AC: F0 03    BEQ $03
PRG:077AE: CE B5 07 DEC $07B5
PRG:077B1: 20 F4 F8 JSR $F8F4
PRG:077B4: 8D 04 40 STA $4004
PRG:077B7: A2 7F    LDX $7F
PRG:077B9: 8E 05 40 STX $4005
PRG:077BC: A4 F8    LDY $F8
PRG:077BE: F0 5A    BEQ $5A
PRG:077C0: CE B6 07 DEC $07B6
PRG:077C3: D0 32    BNE $32
PRG:077C5: A4 F8    LDY $F8
PRG:077C7: E6 F8    INC $F8
PRG:077C9: B1 F5    LDA $F5
PRG:077CB: D0 0F    BNE $0F
PRG:077CD: A9 83    LDA $83
PRG:077CF: 8D 00 40 STA $4000
PRG:077D2: A9 94    LDA $94
PRG:077D4: 8D 01 40 STA $4001
PRG:077D7: 8D CA 07 STA $07CA
PRG:077DA: D0 E9    BNE $E9
PRG:077DC: 20 C5 F8 JSR $F8C5
PRG:077DF: 8D B6 07 STA $07B6
PRG:077E2: A4 F1    LDY $F1
PRG:077E4: D0 34    BNE $34
PRG:077E6: 8A       TXA
PRG:077E7: 29 3E    AND $3E
PRG:077E9: 20 8B F3 JSR $F38B
PRG:077EC: F0 03    BEQ $03
PRG:077EE: 20 D8 F8 JSR $F8D8
PRG:077F1: 8D B7 07 STA $07B7
PRG:077F4: 20 81 F3 JSR $F381
PRG:077F7: A5 F1    LDA $F1
PRG:077F9: D0 1F    BNE $1F
PRG:077FB: AD B1 07 LDA $07B1
PRG:077FE: 29 91    AND $91
PRG:07800: D0 0E    BNE $0E
PRG:07802: AC B7 07 LDY $07B7
PRG:07805: F0 03    BEQ $03
PRG:07807: CE B7 07 DEC $07B7
PRG:0780A: 20 F4 F8 JSR $F8F4
PRG:0780D: 8D 00 40 STA $4000
PRG:07810: AD CA 07 LDA $07CA
PRG:07813: D0 02    BNE $02
PRG:07815: A9 7F    LDA $7F
PRG:07817: 8D 01 40 STA $4001
PRG:0781A: A5 F9    LDA $F9
PRG:0781C: CE B9 07 DEC $07B9
PRG:0781F: D0 4C    BNE $4C
PRG:07821: A4 F9    LDY $F9
PRG:07823: E6 F9    INC $F9
PRG:07825: B1 F5    LDA $F5
PRG:07827: F0 41    BEQ $41
PRG:07829: 10 13    BPL $13
PRG:0782B: 20 CB F8 JSR $F8CB
PRG:0782E: 8D B8 07 STA $07B8
PRG:07831: A9 1F    LDA $1F
PRG:07833: 8D 08 40 STA $4008
PRG:07836: A4 F9    LDY $F9
PRG:07838: E6 F9    INC $F9
PRG:0783A: B1 F5    LDA $F5
PRG:0783C: F0 2C    BEQ $2C
PRG:0783E: 20 AD F3 JSR $F3AD
PRG:07841: AE B8 07 LDX $07B8
PRG:07844: 8E B9 07 STX $07B9
PRG:07847: AD B1 07 LDA $07B1
PRG:0784A: 29 6E    AND $6E
PRG:0784C: D0 06    BNE $06
PRG:0784E: A5 F4    LDA $F4
PRG:07850: 29 0A    AND $0A
PRG:07852: F0 19    BEQ $19
PRG:07854: 8A       TXA
PRG:07855: C9 12    CMP $12
PRG:07857: B0 0F    BCS $0F
PRG:07859: AD B1 07 LDA $07B1
PRG:0785C: 29 08    AND $08
PRG:0785E: F0 04    BEQ $04
PRG:07860: A9 0F    LDA $0F
PRG:07862: D0 06    BNE $06
PRG:07864: A9 1F    LDA $1F
PRG:07866: D0 02    BNE $02
PRG:07868: A9 FF    LDA $FF
PRG:0786A: 8D 08 40 STA $4008
PRG:0786D: A5 F4    LDA $F4
PRG:0786F: 29 F3    AND $F3
PRG:07871: F0 51    BEQ $51
PRG:07873: CE BA 07 DEC $07BA
PRG:07876: D0 4C    BNE $4C
PRG:07878: AC B0 07 LDY $07B0
PRG:0787B: EE B0 07 INC $07B0
PRG:0787E: B1 F5    LDA $F5
PRG:07880: D0 08    BNE $08
PRG:07882: AD C1 07 LDA $07C1
PRG:07885: 8D B0 07 STA $07B0
PRG:07888: D0 EE    BNE $EE
PRG:0788A: 20 C5 F8 JSR $F8C5
PRG:0788D: 8D BA 07 STA $07BA
PRG:07890: 8A       TXA
PRG:07891: 29 3E    AND $3E
PRG:07893: F0 24    BEQ $24
PRG:07895: C9 30    CMP $30
PRG:07897: F0 18    BEQ $18
PRG:07899: C9 20    CMP $20
PRG:0789B: F0 0C    BEQ $0C
PRG:0789D: 29 10    AND $10
PRG:0789F: F0 18    BEQ $18
PRG:078A1: A9 1C    LDA $1C
PRG:078A3: A2 03    LDX $03
PRG:078A5: A0 18    LDY $18
PRG:078A7: D0 12    BNE $12
PRG:078A9: A9 1C    LDA $1C
PRG:078AB: A2 0C    LDX $0C
PRG:078AD: A0 18    LDY $18
PRG:078AF: D0 0A    BNE $0A
PRG:078B1: A9 1C    LDA $1C
PRG:078B3: A2 03    LDX $03
PRG:078B5: A0 58    LDY $58
PRG:078B7: D0 02    BNE $02
PRG:078B9: A9 10    LDA $10
PRG:078BB: 8D 0C 40 STA $400C
PRG:078BE: 8E 0E 40 STX $400E
PRG:078C1: 8C 0F 40 STY $400F
PRG:078C4: 60       RTS
PRG:078C5: AA       TAX
PRG:078C6: 6A       ROR
PRG:078C7: 8A       TXA
PRG:078C8: 2A       ROL
PRG:078C9: 2A       ROL
PRG:078CA: 2A       ROL
PRG:078CB: 29 07    AND $07
PRG:078CD: 18       CLC
PRG:078CE: 65 F0    ADC $F0
PRG:078D0: 6D C4 07 ADC $07C4
PRG:078D3: A8       TAY
PRG:078D4: B9 66 FF LDA $FF66
PRG:078D7: 60       RTS
PRG:078D8: AD B1 07 LDA $07B1
PRG:078DB: 29 08    AND $08
PRG:078DD: F0 04    BEQ $04
PRG:078DF: A9 04    LDA $04
PRG:078E1: D0 0C    BNE $0C
PRG:078E3: A5 F4    LDA $F4
PRG:078E5: 29 7D    AND $7D
PRG:078E7: F0 04    BEQ $04
PRG:078E9: A9 08    LDA $08
PRG:078EB: D0 02    BNE $02
PRG:078ED: A9 28    LDA $28
PRG:078EF: A2 82    LDX $82
PRG:078F1: A0 7F    LDY $7F
PRG:078F3: 60       RTS
PRG:078F4: AD B1 07 LDA $07B1
PRG:078F7: 29 08    AND $08
PRG:078F9: F0 04    BEQ $04
PRG:078FB: B9 96 FF LDA $FF96
PRG:078FE: 60       RTS
PRG:078FF: A5 F4    LDA $F4
PRG:07901: 29 7D    AND $7D
PRG:07903: F0 04    BEQ $04
PRG:07905: B9 9A FF LDA $FF9A
PRG:07908: 60       RTS
PRG:07909: B9 A2 FF LDA $FFA2
PRG:0790C: 60       RTS
PRG:0790D: A5 59    LDA $59
PRG:0790F: 54 64    NOP $64
PRG:07911: 59 3C 31 EOR $313C
PRG:07914: 4B       .byte $4B
PRG:07915: 69 5E    ADC $5E
PRG:07917: 46 4F    LSR $4F
PRG:07919: 36 8D    ROL $8D
PRG:0791B: 36 4B    ROL $4B
PRG:0791D: 8D 69 69 STA $6969
PRG:07920: 6F       .byte $6F
PRG:07921: 75 6F    ADC $6F
PRG:07923: 7B       .byte $7B
PRG:07924: 6F       .byte $6F
PRG:07925: 75 6F    ADC $6F
PRG:07927: 7B       .byte $7B
PRG:07928: 81 87    STA $87
PRG:0792A: 81 8D    STA $8D
PRG:0792C: 69 69    ADC $69
PRG:0792E: 93       .byte $93
PRG:0792F: 99 93 9F STA $9F93
PRG:07932: 93       .byte $93
PRG:07933: 99 93 9F STA $9F93
PRG:07936: 81 87    STA $87
PRG:07938: 81 8D    STA $8D
PRG:0793A: 93       .byte $93
PRG:0793B: 99 93 9F STA $9F93
PRG:0793E: 08       PHP
PRG:0793F: 72       .byte $72
PRG:07940: FC 27 18 NOP $1827
PRG:07943: 20 B8 F9 JSR $F9B8
PRG:07946: 2E 1A 40 ROL $401A
PRG:07949: 20 B0 FC JSR $FCB0
PRG:0794C: 3D 21 20 AND $2021
PRG:0794F: C4 FC    CPY $FC
PRG:07951: 3F       .byte $3F
PRG:07952: 1D 18 11 ORA $1118
PRG:07955: FD 00 00 SBC $0000
PRG:07958: 08       PHP
PRG:07959: 1C FA 00 NOP $00FA
PRG:0795C: 00 A4    BRK $A4
PRG:0795E: FB       .byte $FB
PRG:0795F: 93       .byte $93
PRG:07960: 62       .byte $62
PRG:07961: 10 C8    BPL $C8
PRG:07963: FE 24 14 INC $1424
PRG:07966: 18       CLC
PRG:07967: 45 FC    EOR $FC
PRG:07969: 1E 14 08 ASL $0814
PRG:0796C: 52       .byte $52
PRG:0796D: FD A0 70 SBC $70A0
PRG:07970: 68       PLA
PRG:07971: 08       PHP
PRG:07972: 51 FE    EOR $FE
PRG:07974: 4C 24 18 JMP $1824
PRG:07977: 01 FA    ORA $FA
PRG:07979: 2D 1C B8 AND $B81C
PRG:0797C: 18       CLC
PRG:0797D: 49 FA    EOR $FA
PRG:0797F: 20 12 70 JSR $7012
PRG:07982: 18       CLC
PRG:07983: 75 FA    ADC $FA
PRG:07985: 1B       .byte $1B
PRG:07986: 10 44    BPL $44
PRG:07988: 18       CLC
PRG:07989: 9D FA 11 STA $11FA
PRG:0798C: 0A       ASL
PRG:0798D: 1C 18 C2 NOP $C218
PRG:07990: FA       NOP
PRG:07991: 2D 10 58 AND $5810
PRG:07994: 18       CLC
PRG:07995: DB       .byte $DB
PRG:07996: FA       NOP
PRG:07997: 14 0D    NOP $0D
PRG:07999: 3F       .byte $3F
PRG:0799A: 18       CLC
PRG:0799B: F9 FA 15 SBC $15FA
PRG:0799E: 0D 21 18 ORA $1821
PRG:079A1: 25 FB    AND $FB
PRG:079A3: 18       CLC
PRG:079A4: 10 7A    BPL $7A
PRG:079A6: 18       CLC
PRG:079A7: 4B       .byte $4B
PRG:079A8: FB       .byte $FB
PRG:079A9: 19 0F 54 ORA $540F
PRG:079AC: 18       CLC
PRG:079AD: 74 FB    NOP $FB
PRG:079AF: 1E 12 2B ASL $2B12
PRG:079B2: 18       CLC
PRG:079B3: 72       .byte $72
PRG:079B4: FB       .byte $FB
PRG:079B5: 1E 0F 2D ASL $2D0F
PRG:079B8: 84 2C    STY $2C
PRG:079BA: 2C 2C 82 BIT $822C
PRG:079BD: 04 2C    NOP $2C
PRG:079BF: 04 85    NOP $85
PRG:079C1: 2C 84 2C BIT $2C84
PRG:079C4: 2C 2A 2A BIT $2A2A
PRG:079C7: 2A       ROL
PRG:079C8: 82       .byte $82
PRG:079C9: 04 2A    NOP $2A
PRG:079CB: 04 85    NOP $85
PRG:079CD: 2A       ROL
PRG:079CE: 84 2A    STY $2A
PRG:079D0: 2A       ROL
PRG:079D1: 00 1F    BRK $1F
PRG:079D3: 1F       .byte $1F
PRG:079D4: 1F       .byte $1F
PRG:079D5: 98       TYA
PRG:079D6: 1F       .byte $1F
PRG:079D7: 1F       .byte $1F
PRG:079D8: 98       TYA
PRG:079D9: 9E       .byte $9E
PRG:079DA: 98       TYA
PRG:079DB: 1F       .byte $1F
PRG:079DC: 1D 1D 1D ORA $1D1D
PRG:079DF: 94 1D    STY $1D
PRG:079E1: 1D 94 9C ORA $9C94
PRG:079E4: 94 1D    STY $1D
PRG:079E6: 86 18    STX $18
PRG:079E8: 85 26    STA $26
PRG:079EA: 30 84    BMI $84
PRG:079EC: 04 26    NOP $26
PRG:079EE: 30 86    BMI $86
PRG:079F0: 14 85    NOP $85
PRG:079F2: 22       .byte $22
PRG:079F3: 2C 84 04 BIT $0484
PRG:079F6: 22       .byte $22
PRG:079F7: 2C 21 D0 BIT $D021
PRG:079FA: C4 D0    CPY $D0
PRG:079FC: 31 D0    AND $D0
PRG:079FE: C4 D0    CPY $D0
PRG:07A00: 00 85    BRK $85
PRG:07A02: 2C 22 1C BIT $1C22
PRG:07A05: 84 26    STY $26
PRG:07A07: 2A       ROL
PRG:07A08: 82       .byte $82
PRG:07A09: 28       PLP
PRG:07A0A: 26 04    ROL $04
PRG:07A0C: 87       .byte $87
PRG:07A0D: 22       .byte $22
PRG:07A0E: 34 3A    NOP $3A
PRG:07A10: 82       .byte $82
PRG:07A11: 40       RTI
PRG:07A12: 04 36    NOP $36
PRG:07A14: 84 3A    STY $3A
PRG:07A16: 34 82    NOP $82
PRG:07A18: 2C 30 85 BIT $8530
PRG:07A1B: 2A       ROL
PRG:07A1C: 00 5D    BRK $5D
PRG:07A1E: 55 4D    EOR $4D
PRG:07A20: 15 19    ORA $19
PRG:07A22: 96 15    STX $15
PRG:07A24: D5 E3    CMP $E3
PRG:07A26: EB       .byte $EB
PRG:07A27: 2D A6 2B AND $2BA6
PRG:07A2A: 27       .byte $27
PRG:07A2B: 9C       .byte $9C
PRG:07A2C: 9E       .byte $9E
PRG:07A2D: 59 85 22 EOR $2285
PRG:07A30: 1C 14 84 NOP $8414
PRG:07A33: 1E 22 82 ASL $8222
PRG:07A36: 20 1E 04 JSR $041E
PRG:07A39: 87       .byte $87
PRG:07A3A: 1C 2C 34 NOP $342C
PRG:07A3D: 82       .byte $82
PRG:07A3E: 36 04    ROL $04
PRG:07A40: 30 34    BMI $34
PRG:07A42: 04 2C    NOP $2C
PRG:07A44: 04 26    NOP $26
PRG:07A46: 2A       ROL
PRG:07A47: 85 22    STA $22
PRG:07A49: 84 04    STY $04
PRG:07A4B: 82       .byte $82
PRG:07A4C: 3A       NOP
PRG:07A4D: 38       SEC
PRG:07A4E: 36 32    ROL $32
PRG:07A50: 04 34    NOP $34
PRG:07A52: 04 24    NOP $24
PRG:07A54: 26 2C    ROL $2C
PRG:07A56: 04 26    NOP $26
PRG:07A58: 2C 30 00 BIT $0030
PRG:07A5B: 05 B4    ORA $B4
PRG:07A5D: B2       .byte $B2
PRG:07A5E: B0 2B    BCS $2B
PRG:07A60: AC 84 9C LDY $9C84
PRG:07A63: 9E       .byte $9E
PRG:07A64: A2 84    LDX $84
PRG:07A66: 94 9C    STY $9C
PRG:07A68: 9E       .byte $9E
PRG:07A69: 85 14    STA $14
PRG:07A6B: 22       .byte $22
PRG:07A6C: 84 2C    STY $2C
PRG:07A6E: 85 1E    STA $1E
PRG:07A70: 82       .byte $82
PRG:07A71: 2C 84 2C BIT $2C84
PRG:07A74: 1E 84 04 ASL $0484
PRG:07A77: 82       .byte $82
PRG:07A78: 3A       NOP
PRG:07A79: 38       SEC
PRG:07A7A: 36 32    ROL $32
PRG:07A7C: 04 34    NOP $34
PRG:07A7E: 04 64    NOP $64
PRG:07A80: 04 64    NOP $64
PRG:07A82: 86 64    STX $64
PRG:07A84: 00 05    BRK $05
PRG:07A86: B4 B2    LDY $B2
PRG:07A88: B0 2B    BCS $2B
PRG:07A8A: AC 84 37 LDY $3784
PRG:07A8D: B6 B6    LDX $B6
PRG:07A8F: 45 85    EOR $85
PRG:07A91: 14 1C    NOP $1C
PRG:07A93: 82       .byte $82
PRG:07A94: 22       .byte $22
PRG:07A95: 84 2C    STY $2C
PRG:07A97: 4E 82 4E LSR $4E82
PRG:07A9A: 84 4E    STY $4E
PRG:07A9C: 22       .byte $22
PRG:07A9D: 84 04    STY $04
PRG:07A9F: 85 32    STA $32
PRG:07AA1: 85 30    STA $30
PRG:07AA3: 86 2C    STX $2C
PRG:07AA5: 04 00    NOP $00
PRG:07AA7: 05 A4    ORA $A4
PRG:07AA9: 05 9E    ORA $9E
PRG:07AAB: 05 9D    ORA $9D
PRG:07AAD: 85 84    STA $84
PRG:07AAF: 14 85    NOP $85
PRG:07AB1: 24 28    BIT $28
PRG:07AB3: 2C 82 22 BIT $2282
PRG:07AB6: 84 22    STY $22
PRG:07AB8: 14 21    NOP $21
PRG:07ABA: D0 C4    BNE $C4
PRG:07ABC: D0 31    BNE $31
PRG:07ABE: D0 C4    BNE $C4
PRG:07AC0: D0 00    BNE $00
PRG:07AC2: 82       .byte $82
PRG:07AC3: 2C 84 2C BIT $2C84
PRG:07AC6: 2C 82 2C BIT $2C82
PRG:07AC9: 30 04    BMI $04
PRG:07ACB: 34 2C    NOP $2C
PRG:07ACD: 04 26    NOP $26
PRG:07ACF: 86 22    STX $22
PRG:07AD1: 00 A4    BRK $A4
PRG:07AD3: 25 25    AND $25
PRG:07AD5: A4 29    LDY $29
PRG:07AD7: A2 1D    LDX $1D
PRG:07AD9: 9C       .byte $9C
PRG:07ADA: 95 82    STA $82
PRG:07ADC: 2C 2C 04 BIT $042C
PRG:07ADF: 2C 04 2C BIT $2C04
PRG:07AE2: 30 85    BMI $85
PRG:07AE4: 34 04    NOP $04
PRG:07AE6: 04 00    NOP $00
PRG:07AE8: A4 25    LDY $25
PRG:07AEA: 25 A4    AND $A4
PRG:07AEC: A8       TAY
PRG:07AED: 63       .byte $63
PRG:07AEE: 04 85    NOP $85
PRG:07AF0: 0E 1A 84 ASL $841A
PRG:07AF3: 24 85    BIT $85
PRG:07AF5: 22       .byte $22
PRG:07AF6: 14 84    NOP $84
PRG:07AF8: 0C 82 34 NOP $3482
PRG:07AFB: 84 34    STY $34
PRG:07AFD: 34 82    NOP $82
PRG:07AFF: 2C 84 34 BIT $3484
PRG:07B02: 86 3A    STX $3A
PRG:07B04: 04 00    NOP $00
PRG:07B06: A0 21    LDY $21
PRG:07B08: 21 A0    AND $A0
PRG:07B0A: 21 2B    AND $2B
PRG:07B0C: 05 A3    ORA $A3
PRG:07B0E: 82       .byte $82
PRG:07B0F: 18       CLC
PRG:07B10: 84 18    STY $18
PRG:07B12: 18       CLC
PRG:07B13: 82       .byte $82
PRG:07B14: 18       CLC
PRG:07B15: 18       CLC
PRG:07B16: 04 86    NOP $86
PRG:07B18: 3A       NOP
PRG:07B19: 22       .byte $22
PRG:07B1A: 31 90    AND $90
PRG:07B1C: 31 90    AND $90
PRG:07B1E: 31 71    AND $71
PRG:07B20: 31 90    AND $90
PRG:07B22: 90 90    BCC $90
PRG:07B24: 00 82    BRK $82
PRG:07B26: 34 84    NOP $84
PRG:07B28: 2C 85 22 BIT $2285
PRG:07B2B: 84 24    STY $24
PRG:07B2D: 82       .byte $82
PRG:07B2E: 26 36    ROL $36
PRG:07B30: 04 36    NOP $36
PRG:07B32: 86 26    STX $26
PRG:07B34: 00 AC    BRK $AC
PRG:07B36: 27       .byte $27
PRG:07B37: 5D 1D 9E EOR $9E1D
PRG:07B3A: 2D AC 9F AND $9FAC
PRG:07B3D: 85 14    STA $14
PRG:07B3F: 82       .byte $82
PRG:07B40: 20 84 22 JSR $2284
PRG:07B43: 2C 1E 1E BIT $1E1E
PRG:07B46: 82       .byte $82
PRG:07B47: 2C 2C 1E BIT $1E2C
PRG:07B4A: 04 87    NOP $87
PRG:07B4C: 2A       ROL
PRG:07B4D: 40       RTI
PRG:07B4E: 40       RTI
PRG:07B4F: 40       RTI
PRG:07B50: 3A       NOP
PRG:07B51: 36 82    ROL $82
PRG:07B53: 34 2C    NOP $2C
PRG:07B55: 04 26    NOP $26
PRG:07B57: 86 22    STX $22
PRG:07B59: 00 E3    BRK $E3
PRG:07B5B: F7       .byte $F7
PRG:07B5C: F7       .byte $F7
PRG:07B5D: F7       .byte $F7
PRG:07B5E: F5 F1    SBC $F1
PRG:07B60: AC 27 9E LDY $9E27
PRG:07B63: 9D 85 18 STA $1885
PRG:07B66: 82       .byte $82
PRG:07B67: 1E 84 22 ASL $2284
PRG:07B6A: 2A       ROL
PRG:07B6B: 22       .byte $22
PRG:07B6C: 22       .byte $22
PRG:07B6D: 82       .byte $82
PRG:07B6E: 2C 2C 22 BIT $222C
PRG:07B71: 04 86    NOP $86
PRG:07B73: 04 82    NOP $82
PRG:07B75: 2A       ROL
PRG:07B76: 36 04    ROL $04
PRG:07B78: 36 87    ROL $87
PRG:07B7A: 36 34    ROL $34
PRG:07B7C: 30 86    BMI $86
PRG:07B7E: 2C 04 00 BIT $0004
PRG:07B81: 00 68    BRK $68
PRG:07B83: 6A       ROR
PRG:07B84: 6C 45 A2 JMP $A245
PRG:07B87: 31 B0    AND $B0
PRG:07B89: F1 ED    SBC $ED
PRG:07B8B: EB       .byte $EB
PRG:07B8C: A2 1D    LDX $1D
PRG:07B8E: 9C       .byte $9C
PRG:07B8F: 95 86    STA $86
PRG:07B91: 04 85    NOP $85
PRG:07B93: 22       .byte $22
PRG:07B94: 82       .byte $82
PRG:07B95: 22       .byte $22
PRG:07B96: 87       .byte $87
PRG:07B97: 22       .byte $22
PRG:07B98: 26 2A    ROL $2A
PRG:07B9A: 84 2C    STY $2C
PRG:07B9C: 22       .byte $22
PRG:07B9D: 86 14    STX $14
PRG:07B9F: 51 90    EOR $90
PRG:07BA1: 31 11    AND $11
PRG:07BA3: 00 80    BRK $80
PRG:07BA5: 22       .byte $22
PRG:07BA6: 28       PLP
PRG:07BA7: 22       .byte $22
PRG:07BA8: 26 22    ROL $22
PRG:07BAA: 24 22    BIT $22
PRG:07BAC: 26 22    ROL $22
PRG:07BAE: 28       PLP
PRG:07BAF: 22       .byte $22
PRG:07BB0: 2A       ROL
PRG:07BB1: 22       .byte $22
PRG:07BB2: 28       PLP
PRG:07BB3: 22       .byte $22
PRG:07BB4: 26 22    ROL $22
PRG:07BB6: 28       PLP
PRG:07BB7: 22       .byte $22
PRG:07BB8: 26 22    ROL $22
PRG:07BBA: 24 22    BIT $22
PRG:07BBC: 26 22    ROL $22
PRG:07BBE: 28       PLP
PRG:07BBF: 22       .byte $22
PRG:07BC0: 2A       ROL
PRG:07BC1: 22       .byte $22
PRG:07BC2: 28       PLP
PRG:07BC3: 22       .byte $22
PRG:07BC4: 26 20    ROL $20
PRG:07BC6: 26 20    ROL $20
PRG:07BC8: 24 20    BIT $20
PRG:07BCA: 26 20    ROL $20
PRG:07BCC: 28       PLP
PRG:07BCD: 20 26 20 JSR $2026
PRG:07BD0: 28       PLP
PRG:07BD1: 20 26 20 JSR $2026
PRG:07BD4: 24 20    BIT $20
PRG:07BD6: 26 20    ROL $20
PRG:07BD8: 24 20    BIT $20
PRG:07BDA: 26 20    ROL $20
PRG:07BDC: 28       PLP
PRG:07BDD: 20 26 20 JSR $2026
PRG:07BE0: 28       PLP
PRG:07BE1: 20 26 20 JSR $2026
PRG:07BE4: 24 28    BIT $28
PRG:07BE6: 30 28    BMI $28
PRG:07BE8: 32       .byte $32
PRG:07BE9: 28       PLP
PRG:07BEA: 30 28    BMI $28
PRG:07BEC: 2E 28 30 ROL $3028
PRG:07BEF: 28       PLP
PRG:07BF0: 2E 28 2C ROL $2C28
PRG:07BF3: 28       PLP
PRG:07BF4: 2E 28 30 ROL $3028
PRG:07BF7: 28       PLP
PRG:07BF8: 32       .byte $32
PRG:07BF9: 28       PLP
PRG:07BFA: 30 28    BMI $28
PRG:07BFC: 2E 28 30 ROL $3028
PRG:07BFF: 28       PLP
PRG:07C00: 2E 28 2C ROL $2C28
PRG:07C03: 28       PLP
PRG:07C04: 2E 00 04 ROL $0400
PRG:07C07: 70 6E    BVS $6E
PRG:07C09: 6C 6E 70 JMP $706E
PRG:07C0C: 72       .byte $72
PRG:07C0D: 70 6E    BVS $6E
PRG:07C0F: 70 6E    BVS $6E
PRG:07C11: 6C 6E 70 JMP $706E
PRG:07C14: 72       .byte $72
PRG:07C15: 70 6E    BVS $6E
PRG:07C17: 6E 6C 6E ROR $6E6C
PRG:07C1A: 70 6E    BVS $6E
PRG:07C1C: 70 6E    BVS $6E
PRG:07C1E: 6C 6E 6C JMP $6C6E
PRG:07C21: 6E 70 6E ROR $6E70
PRG:07C24: 70 6E    BVS $6E
PRG:07C26: 6C 76 78 JMP $7876
PRG:07C29: 76 74    ROR $74
PRG:07C2B: 76 74    ROR $74
PRG:07C2D: 72       .byte $72
PRG:07C2E: 74 76    NOP $76
PRG:07C30: 78       SEI
PRG:07C31: 76 74    ROR $74
PRG:07C33: 76 74    ROR $74
PRG:07C35: 72       .byte $72
PRG:07C36: 74 84    NOP $84
PRG:07C38: 1A       NOP
PRG:07C39: 83       .byte $83
PRG:07C3A: 18       CLC
PRG:07C3B: 20 84 1E JSR $1E84
PRG:07C3E: 83       .byte $83
PRG:07C3F: 1C 28 26 NOP $2628
PRG:07C42: 1C 1A 1C NOP $1C1A
PRG:07C45: 82       .byte $82
PRG:07C46: 2C 04 04 BIT $0404
PRG:07C49: 22       .byte $22
PRG:07C4A: 04 04    NOP $04
PRG:07C4C: 84 1C    STY $1C
PRG:07C4E: 87       .byte $87
PRG:07C4F: 26 2A    ROL $2A
PRG:07C51: 26 84    ROL $84
PRG:07C53: 24 28    BIT $28
PRG:07C55: 24 80    BIT $80
PRG:07C57: 22       .byte $22
PRG:07C58: 00 9C    BRK $9C
PRG:07C5A: 05 94    ORA $94
PRG:07C5C: 05 0D    ORA $0D
PRG:07C5E: 9F       .byte $9F
PRG:07C5F: 1E 9C 98 ASL $989C
PRG:07C62: 9D 82 22 STA $2282
PRG:07C65: 04 04    NOP $04
PRG:07C67: 1C 04 04 NOP $0404
PRG:07C6A: 84 14    STY $14
PRG:07C6C: 86 1E    STX $1E
PRG:07C6E: 80 16    NOP $16
PRG:07C70: 80 14    NOP $14
PRG:07C72: 81 1C    STA $1C
PRG:07C74: 30 04    BMI $04
PRG:07C76: 30 30    BMI $30
PRG:07C78: 04 1E    NOP $1E
PRG:07C7A: 32       .byte $32
PRG:07C7B: 04 32    NOP $32
PRG:07C7D: 32       .byte $32
PRG:07C7E: 04 20    NOP $20
PRG:07C80: 34 04    NOP $04
PRG:07C82: 34 34    NOP $34
PRG:07C84: 04 36    NOP $36
PRG:07C86: 04 84    NOP $84
PRG:07C88: 36 00    ROL $00
PRG:07C8A: 46 A4    LSR $A4
PRG:07C8C: 64 A4    NOP $A4
PRG:07C8E: 48       PHA
PRG:07C8F: A6 66    LDX $66
PRG:07C91: A6 4A    LDX $4A
PRG:07C93: A8       TAY
PRG:07C94: 68       PLA
PRG:07C95: A8       TAY
PRG:07C96: 6A       ROR
PRG:07C97: 44 2B    NOP $2B
PRG:07C99: 81 2A    STA $2A
PRG:07C9B: 42       .byte $42
PRG:07C9C: 04 42    NOP $42
PRG:07C9E: 42       .byte $42
PRG:07C9F: 04 2C    NOP $2C
PRG:07CA1: 64 04    NOP $04
PRG:07CA3: 64 64    NOP $64
PRG:07CA5: 04 2E    NOP $2E
PRG:07CA7: 46 04    LSR $04
PRG:07CA9: 46 46    LSR $46
PRG:07CAB: 04 22    NOP $22
PRG:07CAD: 04 84    NOP $84
PRG:07CAF: 22       .byte $22
PRG:07CB0: 87       .byte $87
PRG:07CB1: 04 06    NOP $06
PRG:07CB3: 0C 14 1C NOP $1C14
PRG:07CB6: 22       .byte $22
PRG:07CB7: 86 2C    STX $2C
PRG:07CB9: 22       .byte $22
PRG:07CBA: 87       .byte $87
PRG:07CBB: 04 60    NOP $60
PRG:07CBD: 0E 14 1A ASL $1A14
PRG:07CC0: 24 86    BIT $86
PRG:07CC2: 2C 24 87 BIT $8724
PRG:07CC5: 04 08    NOP $08
PRG:07CC7: 10 18    BPL $18
PRG:07CC9: 1E 28 86 ASL $8628
PRG:07CCC: 30 30    BMI $30
PRG:07CCE: 80 64    NOP $64
PRG:07CD0: 00 CD    BRK $CD
PRG:07CD2: D5 DD    CMP $DD
PRG:07CD4: E3       .byte $E3
PRG:07CD5: ED F5 BB SBC $BBF5
PRG:07CD8: B5 CF    LDA $CF
PRG:07CDA: D5 DB    CMP $DB
PRG:07CDC: E5 ED    SBC $ED
PRG:07CDE: F3       .byte $F3
PRG:07CDF: BD B3 D1 LDA $D1B3
PRG:07CE2: D9 DF E9 CMP $E9DF
PRG:07CE5: F1 F7    SBC $F7
PRG:07CE7: BF       .byte $BF
PRG:07CE8: FF       .byte $FF
PRG:07CE9: FF       .byte $FF
PRG:07CEA: FF       .byte $FF
PRG:07CEB: 34 00    NOP $00
PRG:07CED: 86 04    STX $04
PRG:07CEF: 87       .byte $87
PRG:07CF0: 14 1C    NOP $1C
PRG:07CF2: 22       .byte $22
PRG:07CF3: 86 34    STX $34
PRG:07CF5: 84 2C    STY $2C
PRG:07CF7: 04 04    NOP $04
PRG:07CF9: 04 87    NOP $87
PRG:07CFB: 14 1A    NOP $1A
PRG:07CFD: 24 86    BIT $86
PRG:07CFF: 32       .byte $32
PRG:07D00: 84 2C    STY $2C
PRG:07D02: 04 86    NOP $86
PRG:07D04: 04 87    NOP $87
PRG:07D06: 18       CLC
PRG:07D07: 1E 28 86 ASL $8628
PRG:07D0A: 36 87    ROL $87
PRG:07D0C: 30 30    BMI $30
PRG:07D0E: 30 80    BMI $80
PRG:07D10: 2C 82 14 BIT $1482
PRG:07D13: 2C 62 26 BIT $2662
PRG:07D16: 10 28    BPL $28
PRG:07D18: 80 04    NOP $04
PRG:07D1A: 82       .byte $82
PRG:07D1B: 14 2C    NOP $2C
PRG:07D1D: 62       .byte $62
PRG:07D1E: 26 10    ROL $10
PRG:07D20: 28       PLP
PRG:07D21: 80 04    NOP $04
PRG:07D23: 82       .byte $82
PRG:07D24: 08       PHP
PRG:07D25: 1E 5E 18 ASL $185E
PRG:07D28: 60       RTS
PRG:07D29: 1A       NOP
PRG:07D2A: 80 04    NOP $04
PRG:07D2C: 82       .byte $82
PRG:07D2D: 08       PHP
PRG:07D2E: 1E 5E 18 ASL $185E
PRG:07D31: 60       RTS
PRG:07D32: 1A       NOP
PRG:07D33: 86 04    STX $04
PRG:07D35: 83       .byte $83
PRG:07D36: 1A       NOP
PRG:07D37: 18       CLC
PRG:07D38: 16 84    ASL $84
PRG:07D3A: 14 1A    NOP $1A
PRG:07D3C: 18       CLC
PRG:07D3D: 0E 0C 16 ASL $160C
PRG:07D40: 83       .byte $83
PRG:07D41: 14 20    NOP $20
PRG:07D43: 1E 1C 28 ASL $281C
PRG:07D46: 26 87    ROL $87
PRG:07D48: 24 1A    BIT $1A
PRG:07D4A: 12       .byte $12
PRG:07D4B: 10 62    BPL $62
PRG:07D4D: 0E 80 04 ASL $0480
PRG:07D50: 04 00    NOP $00
PRG:07D52: 82       .byte $82
PRG:07D53: 18       CLC
PRG:07D54: 1C 20 22 NOP $2220
PRG:07D57: 26 28    ROL $28
PRG:07D59: 81 2A    STA $2A
PRG:07D5B: 2A       ROL
PRG:07D5C: 2A       ROL
PRG:07D5D: 04 2A    NOP $2A
PRG:07D5F: 04 83    NOP $83
PRG:07D61: 2A       ROL
PRG:07D62: 82       .byte $82
PRG:07D63: 22       .byte $22
PRG:07D64: 86 34    STX $34
PRG:07D66: 32       .byte $32
PRG:07D67: 34 81    NOP $81
PRG:07D69: 04 22    NOP $22
PRG:07D6B: 26 2A    ROL $2A
PRG:07D6D: 2C 30 86 BIT $8630
PRG:07D70: 34 83    NOP $83
PRG:07D72: 32       .byte $32
PRG:07D73: 82       .byte $82
PRG:07D74: 36 84    ROL $84
PRG:07D76: 34 85    NOP $85
PRG:07D78: 04 81    NOP $81
PRG:07D7A: 22       .byte $22
PRG:07D7B: 86 30    STX $30
PRG:07D7D: 2E 30 81 ROL $8130
PRG:07D80: 04 22    NOP $22
PRG:07D82: 26 2A    ROL $2A
PRG:07D84: 2C 2E 86 BIT $862E
PRG:07D87: 30 83    BMI $83
PRG:07D89: 22       .byte $22
PRG:07D8A: 82       .byte $82
PRG:07D8B: 36 84    ROL $84
PRG:07D8D: 34 85    NOP $85
PRG:07D8F: 04 81    NOP $81
PRG:07D91: 22       .byte $22
PRG:07D92: 86 3A    STX $3A
PRG:07D94: 3A       NOP
PRG:07D95: 3A       NOP
PRG:07D96: 82       .byte $82
PRG:07D97: 3A       NOP
PRG:07D98: 81 40    STA $40
PRG:07D9A: 82       .byte $82
PRG:07D9B: 04 81    NOP $81
PRG:07D9D: 3A       NOP
PRG:07D9E: 86 36    STX $36
PRG:07DA0: 36 36    ROL $36
PRG:07DA2: 82       .byte $82
PRG:07DA3: 36 81    ROL $81
PRG:07DA5: 3A       NOP
PRG:07DA6: 82       .byte $82
PRG:07DA7: 04 81    NOP $81
PRG:07DA9: 36 86    ROL $86
PRG:07DAB: 34 82    NOP $82
PRG:07DAD: 26 2A    ROL $2A
PRG:07DAF: 36 81    ROL $81
PRG:07DB1: 34 34    NOP $34
PRG:07DB3: 85 34    STA $34
PRG:07DB5: 81 2A    STA $2A
PRG:07DB7: 86 2C    STX $2C
PRG:07DB9: 00 84    BRK $84
PRG:07DBB: 90 B0    BCC $B0
PRG:07DBD: 84 50    STY $50
PRG:07DBF: 50 B0    BVC $B0
PRG:07DC1: 00 98    BRK $98
PRG:07DC3: 96 94    STX $94
PRG:07DC5: 92       .byte $92
PRG:07DC6: 94 96    STY $96
PRG:07DC8: 58       CLI
PRG:07DC9: 58       CLI
PRG:07DCA: 58       CLI
PRG:07DCB: 44 5C    NOP $5C
PRG:07DCD: 44 9F    NOP $9F
PRG:07DCF: A3       .byte $A3
PRG:07DD0: A1 A3    LDA $A3
PRG:07DD2: 85 A3    STA $A3
PRG:07DD4: E0 A6    CPX $A6
PRG:07DD6: 23       .byte $23
PRG:07DD7: C4 9F    CPY $9F
PRG:07DD9: 9D 9F 85 STA $859F
PRG:07DDC: 9F       .byte $9F
PRG:07DDD: D2       .byte $D2
PRG:07DDE: A6 23    LDX $23
PRG:07DE0: C4 B5    CPY $B5
PRG:07DE2: B1 AF    LDA $AF
PRG:07DE4: 85 B1    STA $B1
PRG:07DE6: AF       .byte $AF
PRG:07DE7: AD 85 95 LDA $9585
PRG:07DEA: 9E       .byte $9E
PRG:07DEB: A2 AA    LDX $AA
PRG:07DED: 6A       ROR
PRG:07DEE: 6A       ROR
PRG:07DEF: 6B       .byte $6B
PRG:07DF0: 5E 9D 84 LSR $849D
PRG:07DF3: 04 04    NOP $04
PRG:07DF5: 82       .byte $82
PRG:07DF6: 22       .byte $22
PRG:07DF7: 86 22    STX $22
PRG:07DF9: 82       .byte $82
PRG:07DFA: 14 22    NOP $22
PRG:07DFC: 2C 12 22 BIT $2212
PRG:07DFF: 2A       ROL
PRG:07E00: 14 22    NOP $22
PRG:07E02: 2C 1C 22 BIT $221C
PRG:07E05: 2C 14 22 BIT $2214
PRG:07E08: 2C 12 22 BIT $2212
PRG:07E0B: 2A       ROL
PRG:07E0C: 14 22    NOP $22
PRG:07E0E: 2C 1C 22 BIT $221C
PRG:07E11: 2C 18 22 BIT $2218
PRG:07E14: 2A       ROL
PRG:07E15: 16 20    ASL $20
PRG:07E17: 28       PLP
PRG:07E18: 18       CLC
PRG:07E19: 22       .byte $22
PRG:07E1A: 2A       ROL
PRG:07E1B: 12       .byte $12
PRG:07E1C: 22       .byte $22
PRG:07E1D: 2A       ROL
PRG:07E1E: 18       CLC
PRG:07E1F: 22       .byte $22
PRG:07E20: 2A       ROL
PRG:07E21: 12       .byte $12
PRG:07E22: 22       .byte $22
PRG:07E23: 2A       ROL
PRG:07E24: 14 22    NOP $22
PRG:07E26: 2C 0C 22 BIT $220C
PRG:07E29: 2C 14 22 BIT $2214
PRG:07E2C: 34 12    NOP $12
PRG:07E2E: 22       .byte $22
PRG:07E2F: 30 10    BMI $10
PRG:07E31: 22       .byte $22
PRG:07E32: 2E 16 22 ROL $2216
PRG:07E35: 34 18    NOP $18
PRG:07E37: 26 36    ROL $36
PRG:07E39: 16 26    ASL $26
PRG:07E3B: 36 14    ROL $14
PRG:07E3D: 26 36    ROL $36
PRG:07E3F: 12       .byte $12
PRG:07E40: 22       .byte $22
PRG:07E41: 36 5C    ROL $5C
PRG:07E43: 22       .byte $22
PRG:07E44: 34 0C    NOP $0C
PRG:07E46: 22       .byte $22
PRG:07E47: 22       .byte $22
PRG:07E48: 81 1E    STA $1E
PRG:07E4A: 1E 85 1E ASL $1E85
PRG:07E4D: 81 12    STA $12
PRG:07E4F: 86 14    STX $14
PRG:07E51: 81 2C    STA $2C
PRG:07E53: 22       .byte $22
PRG:07E54: 1C 2C 22 NOP $222C
PRG:07E57: 1C 85 2C NOP $2C85
PRG:07E5A: 04 81    NOP $81
PRG:07E5C: 2E 24 1E ROL $1E24
PRG:07E5F: 2E 24 1E ROL $1E24
PRG:07E62: 85 2E    STA $2E
PRG:07E64: 04 81    NOP $81
PRG:07E66: 32       .byte $32
PRG:07E67: 28       PLP
PRG:07E68: 22       .byte $22
PRG:07E69: 32       .byte $32
PRG:07E6A: 28       PLP
PRG:07E6B: 22       .byte $22
PRG:07E6C: 85 32    STA $32
PRG:07E6E: 87       .byte $87
PRG:07E6F: 36 36    ROL $36
PRG:07E71: 36 84    ROL $84
PRG:07E73: 3A       NOP
PRG:07E74: 00 5C    BRK $5C
PRG:07E76: 54 4C    NOP $4C
PRG:07E78: 5C 54 4C NOP $4C54
PRG:07E7B: 5C 1C 1C NOP $1C1C
PRG:07E7E: 5C 5C 5C NOP $5C5C
PRG:07E81: 5C 5E 56 NOP $565E
PRG:07E84: 4E 5E 56 LSR $565E
PRG:07E87: 4E 5E 1E LSR $1E5E
PRG:07E8A: 1E 5E 5E ASL $5E5E
PRG:07E8D: 5E 5E 62 LSR $625E
PRG:07E90: 5A       NOP
PRG:07E91: 50 62    BVC $62
PRG:07E93: 5A       NOP
PRG:07E94: 50 62    BVC $62
PRG:07E96: 22       .byte $22
PRG:07E97: 22       .byte $22
PRG:07E98: 62       .byte $62
PRG:07E99: E7       .byte $E7
PRG:07E9A: E7       .byte $E7
PRG:07E9B: E7       .byte $E7
PRG:07E9C: 2B       .byte $2B
PRG:07E9D: 86 14    STX $14
PRG:07E9F: 81 14    STA $14
PRG:07EA1: 80 14    NOP $14
PRG:07EA3: 14 81    NOP $81
PRG:07EA5: 14 14    NOP $14
PRG:07EA7: 14 14    NOP $14
PRG:07EA9: 86 16    STX $16
PRG:07EAB: 81 16    STA $16
PRG:07EAD: 80 16    NOP $16
PRG:07EAF: 16 81    ASL $81
PRG:07EB1: 16 16    ASL $16
PRG:07EB3: 16 16    ASL $16
PRG:07EB5: 81 28    STA $28
PRG:07EB7: 22       .byte $22
PRG:07EB8: 1A       NOP
PRG:07EB9: 28       PLP
PRG:07EBA: 22       .byte $22
PRG:07EBB: 1A       NOP
PRG:07EBC: 28       PLP
PRG:07EBD: 80 28    NOP $28
PRG:07EBF: 28       PLP
PRG:07EC0: 81 28    STA $28
PRG:07EC2: 87       .byte $87
PRG:07EC3: 2C 2C 2C BIT $2C2C
PRG:07EC6: 84 30    STY $30
PRG:07EC8: 83       .byte $83
PRG:07EC9: 04 84    NOP $84
PRG:07ECB: 0C 83 62 NOP $6283
PRG:07ECE: 10 84    BPL $84
PRG:07ED0: 12       .byte $12
PRG:07ED1: 83       .byte $83
PRG:07ED2: 1C 22 1E NOP $1E22
PRG:07ED5: 22       .byte $22
PRG:07ED6: 26 18    ROL $18
PRG:07ED8: 1E 04 1C ASL $1C04
PRG:07EDB: 00 E3    BRK $E3
PRG:07EDD: E1 E3    SBC $E3
PRG:07EDF: 1D DE E0 ORA $E0DE
PRG:07EE2: 23       .byte $23
PRG:07EE3: EC 75 74 CPX $7475
PRG:07EE6: F0 F4    BEQ $F4
PRG:07EE8: F6 EA    INC $EA
PRG:07EEA: 31 2D    AND $2D
PRG:07EEC: 83       .byte $83
PRG:07EED: 12       .byte $12
PRG:07EEE: 14 04    NOP $04
PRG:07EF0: 18       CLC
PRG:07EF1: 1A       NOP
PRG:07EF2: 1C 14 26 NOP $2614
PRG:07EF5: 22       .byte $22
PRG:07EF6: 1E 1C 18 ASL $181C
PRG:07EF9: 1E 22 0C ASL $0C22
PRG:07EFC: 14 FF    NOP $FF
PRG:07EFE: FF       .byte $FF
PRG:07EFF: FF       .byte $FF
PRG:07F00: 00 88    BRK $88
PRG:07F02: 00 2F    BRK $2F
PRG:07F04: 00 00    BRK $00
PRG:07F06: 02       .byte $02
PRG:07F07: A6 02    LDX $02
PRG:07F09: 80 02    NOP $02
PRG:07F0B: 5C 02 3A NOP $3A02
PRG:07F0E: 02       .byte $02
PRG:07F0F: 1A       NOP
PRG:07F10: 01 DF    ORA $DF
PRG:07F12: 01 C4    ORA $C4
PRG:07F14: 01 AB    ORA $AB
PRG:07F16: 01 93    ORA $93
PRG:07F18: 01 7C    ORA $7C
PRG:07F1A: 01 67    ORA $67
PRG:07F1C: 01 53    ORA $53
PRG:07F1E: 01 40    ORA $40
PRG:07F20: 01 2E    ORA $2E
PRG:07F22: 01 1D    ORA $1D
PRG:07F24: 01 0D    ORA $0D
PRG:07F26: 00 FE    BRK $FE
PRG:07F28: 00 EF    BRK $EF
PRG:07F2A: 00 E2    BRK $E2
PRG:07F2C: 00 D5    BRK $D5
PRG:07F2E: 00 C9    BRK $C9
PRG:07F30: 00 BE    BRK $BE
PRG:07F32: 00 B3    BRK $B3
PRG:07F34: 00 A9    BRK $A9
PRG:07F36: 00 A0    BRK $A0
PRG:07F38: 00 97    BRK $97
PRG:07F3A: 00 8E    BRK $8E
PRG:07F3C: 00 86    BRK $86
PRG:07F3E: 00 77    BRK $77
PRG:07F40: 00 7E    BRK $7E
PRG:07F42: 00 71    BRK $71
PRG:07F44: 00 54    BRK $54
PRG:07F46: 00 64    BRK $64
PRG:07F48: 00 5F    BRK $5F
PRG:07F4A: 00 59    BRK $59
PRG:07F4C: 00 50    BRK $50
PRG:07F4E: 00 47    BRK $47
PRG:07F50: 00 43    BRK $43
PRG:07F52: 00 3B    BRK $3B
PRG:07F54: 00 35    BRK $35
PRG:07F56: 00 2A    BRK $2A
PRG:07F58: 00 23    BRK $23
PRG:07F5A: 04 75    NOP $75
PRG:07F5C: 03       .byte $03
PRG:07F5D: 57       .byte $57
PRG:07F5E: 02       .byte $02
PRG:07F5F: F9 02 CF SBC $CF02
PRG:07F62: 01 FC    ORA $FC
PRG:07F64: 00 6A    BRK $6A
PRG:07F66: 05 0A    ORA $0A
PRG:07F68: 14 28    NOP $28
PRG:07F6A: 50 1E    BVC $1E
PRG:07F6C: 3C 02 04 NOP $0402
PRG:07F6F: 08       PHP
PRG:07F70: 10 20    BPL $20
PRG:07F72: 40       RTI
PRG:07F73: 18       CLC
PRG:07F74: 30 0C    BMI $0C
PRG:07F76: 03       .byte $03
PRG:07F77: 06 0C    ASL $0C
PRG:07F79: 18       CLC
PRG:07F7A: 30 12    BMI $12
PRG:07F7C: 24 08    BIT $08
PRG:07F7E: 36 03    ROL $03
PRG:07F80: 09 06    ORA $06
PRG:07F82: 12       .byte $12
PRG:07F83: 1B       .byte $1B
PRG:07F84: 24 0C    BIT $0C
PRG:07F86: 24 02    BIT $02
PRG:07F88: 06 04    ASL $04
PRG:07F8A: 0C 12 18 NOP $1812
PRG:07F8D: 08       PHP
PRG:07F8E: 12       .byte $12
PRG:07F8F: 01 03    ORA $03
PRG:07F91: 02       .byte $02
PRG:07F92: 06 09    ASL $09
PRG:07F94: 0C 04 98 NOP $9804
PRG:07F97: 99 9A 9B STA $9B9A
PRG:07F9A: 90 94    BCC $94
PRG:07F9C: 94 95    STY $95
PRG:07F9E: 95 96    STA $96
PRG:07FA0: 97       .byte $97
PRG:07FA1: 98       TYA
PRG:07FA2: 90 91    BCC $91
PRG:07FA4: 92       .byte $92
PRG:07FA5: 92       .byte $92
PRG:07FA6: 93       .byte $93
PRG:07FA7: 93       .byte $93
PRG:07FA8: 93       .byte $93
PRG:07FA9: 94 94    STY $94
PRG:07FAB: 94 94    STY $94
PRG:07FAD: 94 94    STY $94
PRG:07FAF: 95 95    STA $95
PRG:07FB1: 95 95    STA $95
PRG:07FB3: 95 95    STA $95
PRG:07FB5: 96 96    STX $96
PRG:07FB7: 96 96    STX $96
PRG:07FB9: 96 96    STX $96
PRG:07FBB: 96 96    STX $96
PRG:07FBD: 96 96    STX $96
PRG:07FBF: 96 96    STX $96
PRG:07FC1: 96 96    STX $96
PRG:07FC3: 96 96    STX $96
PRG:07FC5: 96 95    STX $95
PRG:07FC7: 95 94    STA $94
PRG:07FC9: 93       .byte $93
PRG:07FCA: 15 16    ORA $16
PRG:07FCC: 16 17    ASL $17
PRG:07FCE: 17       .byte $17
PRG:07FCF: 18       CLC
PRG:07FD0: 19 19 1A ORA $1A19
PRG:07FD3: 1A       NOP
PRG:07FD4: 1C 1D 1D NOP $1D1D
PRG:07FD7: 1E 1E 1F ASL $1F1E
PRG:07FDA: 1F       .byte $1F
PRG:07FDB: 1F       .byte $1F
PRG:07FDC: 1F       .byte $1F
PRG:07FDD: 1E 1D 1C ASL $1C1D
PRG:07FE0: 1E 1F 1F ASL $1F1F
PRG:07FE3: 1E 1D 1C ASL $1C1D
PRG:07FE6: 1A       NOP
PRG:07FE7: 18       CLC
PRG:07FE8: 16 14    ASL $14
PRG:07FEA: 15 16    ORA $16
PRG:07FEC: 16 17    ASL $17
PRG:07FEE: 17       .byte $17
PRG:07FEF: 18       CLC
PRG:07FF0: 19 19 1A ORA $1A19
PRG:07FF3: 1A       NOP
PRG:07FF4: 1C 1D 1D NOP $1D1D
PRG:07FF7: 1E 1E 1F ASL $1F1E
PRG:07FFA: 82       .byte $82
PRG:07FFB: 80 00    NOP $00
PRG:07FFD: 80 F0    NOP $F0
PRG:07FFF: FF       .byte $FF
